 PhysXCommon_64

 Timestamp is 651a79c6 (Mon Oct  2 11:05:26 2023)

 Preferred load address is 0000000180000000

 Start         Length     Name                   Class
 0001:00000000 00003530H .text$di                CODE
 0001:00003530 001d2720H .text$mn                CODE
 0001:001d5c50 00000040H .text$mn$00             CODE
 0001:001d5c90 00000680H .text$x                 CODE
 0001:001d6310 0000000fH .text$yd                CODE
 0002:00000000 00000288H .idata$5                DATA
 0002:00000288 00000038H .00cfg                  DATA
 0002:000002c0 00000008H .CRT$XCA                DATA
 0002:000002c8 000019d0H .CRT$XCU                DATA
 0002:00001c98 00000008H .CRT$XCZ                DATA
 0002:00001ca0 00000008H .CRT$XIA                DATA
 0002:00001ca8 00000018H .CRT$XIC                DATA
 0002:00001cc0 00000008H .CRT$XIZ                DATA
 0002:00001cc8 00000008H .CRT$XPA                DATA
 0002:00001cd0 00000010H .CRT$XPX                DATA
 0002:00001ce0 00000008H .CRT$XPXA               DATA
 0002:00001ce8 00000008H .CRT$XPZ                DATA
 0002:00001cf0 00000008H .CRT$XTA                DATA
 0002:00001cf8 00000008H .CRT$XTZ                DATA
 0002:00001d00 00000000H .gehcont$y              DATA
 0002:00001d00 00000000H .gfids$y                DATA
 0002:00001d00 00012000H .rdata                  DATA
 0002:00013d00 00000000H .rdata$CastGuardVftablesA DATA
 0002:00013d00 00000000H .rdata$CastGuardVftablesC DATA
 0002:00013d00 0000043cH .rdata$r                DATA
 0002:0001413c 0000022cH .rdata$voltmd           DATA
 0002:00014368 00000450H .rdata$zzzdbg           DATA
 0002:000147b8 00000008H .rtc$IAA                DATA
 0002:000147c0 00000008H .rtc$IZZ                DATA
 0002:000147c8 00000008H .rtc$TAA                DATA
 0002:000147d0 00000008H .rtc$TZZ                DATA
 0002:000147d8 00014c38H .xdata                  DATA
 0002:00029410 00000084H .xdata$x                DATA
 0002:00029494 00000020H .didat$2                DATA
 0002:000294b4 00000024H .didat$3                DATA
 0002:000294d8 000000c8H .didat$4                DATA
 0002:000295a0 00000418H .didat$6                DATA
 0002:000299b8 000000c8H .didat$7                DATA
 0002:00029a80 0000c614H .edata                  DATA
 0002:00036094 00000014H .idata$2                DATA
 0002:000360a8 00000018H .idata$3                DATA
 0002:000360c0 00000288H .idata$4                DATA
 0002:00036348 000005caH .idata$6                DATA
 0003:00000000 00001c40H .data                   DATA
 0003:00001c40 00001158H .data$r                 DATA
 0003:00002d98 000000f0H .data$rs                DATA
 0003:00002e88 000000c8H .didat$5                DATA
 0003:00002f50 0000461cH .bss                    DATA
 0004:00000000 0000c348H .pdata                  DATA
 0005:00000000 0000236cH _RDATA                  DATA
 0006:00000000 000000a0H .rsrc$01                DATA
 0006:000000a0 000004b0H .rsrc$02                DATA

  Address         Publics by Value              Rva+Base               Lib:Object

 0000:00000000       __AbsoluteZero             0000000000000000     <absolute>
 0000:00000000       ___safe_se_handler_count   0000000000000000     <absolute>
 0000:00000000       ___safe_se_handler_table   0000000000000000     <absolute>
 0000:00000000       __arm64x_extra_rfe_table   0000000000000000     <absolute>
 0000:00000000       __arm64x_extra_rfe_table_size 0000000000000000     <absolute>
 0000:00000000       __arm64x_native_entrypoint 0000000000000000     <absolute>
 0000:00000000       __arm64x_redirection_metadata 0000000000000000     <absolute>
 0000:00000000       __arm64x_redirection_metadata_count 0000000000000000     <absolute>
 0000:00000000       __dynamic_value_reloc_table 0000000000000000     <absolute>
 0000:00000000       __enclave_config           0000000000000000     <absolute>
 0000:00000000       __guard_check_icall_a64n_fptr 0000000000000000     <absolute>
 0000:00000000       __guard_eh_cont_count      0000000000000000     <absolute>
 0000:00000000       __guard_eh_cont_table      0000000000000000     <absolute>
 0000:00000000       __guard_fids_count         0000000000000000     <absolute>
 0000:00000000       __guard_fids_table         0000000000000000     <absolute>
 0000:00000000       __guard_iat_count          0000000000000000     <absolute>
 0000:00000000       __guard_iat_table          0000000000000000     <absolute>
 0000:00000000       __guard_longjmp_count      0000000000000000     <absolute>
 0000:00000000       __guard_longjmp_table      0000000000000000     <absolute>
 0000:00000000       __hybrid_auxiliary_iat     0000000000000000     <absolute>
 0000:00000000       __hybrid_auxiliary_iat_copy 0000000000000000     <absolute>
 0000:00000000       __hybrid_code_map          0000000000000000     <absolute>
 0000:00000000       __hybrid_code_map_count    0000000000000000     <absolute>
 0000:00000000       __x64_code_ranges_to_entry_points 0000000000000000     <absolute>
 0000:00000000       __x64_code_ranges_to_entry_points_count 0000000000000000     <absolute>
 0000:00000100       __guard_flags              0000000000000100     <absolute>
 0000:00000000       __ImageBase                0000000180000000     <linker-defined>
 0001:00003530       ??0PtrTable@Cm@physx@@QEAA@W4PxEMPTY@2@@Z 0000000180004530 f i CmPtrTable.obj
 0001:00003550       ??0PtrTable@Cm@physx@@QEAA@XZ 0000000180004550 f   CmPtrTable.obj
 0001:00003560       ??1AABBTreeBuildNode@Gu@physx@@QEAA@XZ 0000000180004560 f   GuMeshFactory.obj
 0001:00003560       ??1BigConvexDataBuilder@physx@@QEAA@XZ 0000000180004560 f   GuCookingBigConvexDataBuilder.obj
 0001:00003560       ??1Box@Gu@physx@@QEAA@XZ   0000000180004560 f   GuBox.obj
 0001:00003560       ??1HeightFieldData@Gu@physx@@QEAA@XZ 0000000180004560 f   GuCCTSweepTests.obj
 0001:00003560       ??1PtrTable@Cm@physx@@QEAA@XZ 0000000180004560 f   CmPtrTable.obj
 0001:00003560       ?build@CompanionPrunerIncremental@@UEAAXXZ 0000000180004560 f   GuSecondaryPruner.obj
 0001:00003560       ?checkTreeLeaf@IncrementalAABBTree@Gu@physx@@QEAAXPEAVIncrementalAABBTreeNode@23@I@Z 0000000180004560 f   GuIncrementalAABBTree.obj
 0001:00003560       ?execute@?$PxThreadT@V?$PxReflectionAllocator@VPxThreadImpl@physx@@@physx@@@physx@@UEAAXXZ 0000000180004560 f   GuSDF.obj
 0001:00003560       ?execute@PxRunnable@physx@@UEAAXXZ 0000000180004560 f   GuSDF.obj
 0001:00003560       ?merge@BucketPruner@Gu@physx@@UEAAXPEBX@Z 0000000180004560 f   GuBucketPruner.obj
 0001:00003560       ?merge@IncrementalAABBPruner@Gu@physx@@UEAAXPEBX@Z 0000000180004560 f   GuIncrementalAABBPruner.obj
 0001:00003560       ?onMeshIndexFormatChange@TriangleMeshBuilder@physx@@UEAAXXZ 0000000180004560 f   GuCookingTriangleMesh.obj
 0001:00003560       ?profile@Callback@RTree@Gu@physx@@UEAAXXZ 0000000180004560 f   GuMidphaseRTree.obj
 0001:00003560       ?purge@BucketPruner@Gu@physx@@UEAAXXZ 0000000180004560 f   GuBucketPruner.obj
 0001:00003560       ?requiresObjects@ConvexMesh@Gu@physx@@UEAAXAEAVPxProcessPxBaseCallback@3@@Z 0000000180004560 f   GuConvexMesh.obj
 0001:00003560       ?requiresObjects@HeightField@Gu@physx@@UEAAXAEAVPxProcessPxBaseCallback@3@@Z 0000000180004560 f   GuHeightField.obj
 0001:00003560       ?requiresObjects@SoftBodyMesh@Gu@physx@@UEAAXAEAVPxProcessPxBaseCallback@3@@Z 0000000180004560 f   GuTetrahedronMesh.obj
 0001:00003560       ?requiresObjects@TriangleMesh@Gu@physx@@UEAAXAEAVPxProcessPxBaseCallback@3@@Z 0000000180004560 f   GuTriangleMesh.obj
 0001:00003560       ?swapIndex@CompanionPrunerAABBTree@@UEAAXII@Z 0000000180004560 f   GuSecondaryPruner.obj
 0001:00003560       ?swapIndex@CompanionPrunerBucket@@UEAAXII@Z 0000000180004560 f   GuSecondaryPruner.obj
 0001:00003560       ?timeStampChange@CompanionPrunerAABBTree@@UEAAXXZ 0000000180004560 f   GuSecondaryPruner.obj
 0001:00003560       ?timeStampChange@CompanionPrunerBucket@@UEAAXXZ 0000000180004560 f   GuSecondaryPruner.obj
 0001:00003560       ?visualize@BasePruner@Gu@physx@@UEBAXAEAVPxRenderOutput@3@II@Z 0000000180004560 f   GuIncrementalAABBPruner.obj
 0001:00003560       _guard_check_icall_nop     0000000180004560 f   LIBCMT:guard_support.obj
 0001:00003570       ??4AABBTreeBounds@Gu@physx@@QEAAAEAV012@AEBV012@@Z 0000000180004570 f i GuMeshFactory.obj
 0001:00003570       ??4CmModuleUpdateLoader@Cm@physx@@QEAAAEAV012@AEBV012@@Z 0000000180004570 f i CmWindowsModuleUpdateLoader.obj
 0001:00003570       ??4PtrTable@Cm@physx@@QEAAAEAU012@AEBU012@@Z 0000000180004570 f i CmPtrTable.obj
 0001:00003580       ?add@PtrTable@Cm@physx@@QEAAXPEAXAEAVPtrTableStorageManager@23@@Z 0000000180004580 f   CmPtrTable.obj
 0001:00003690       ?clear@PtrTable@Cm@physx@@QEAAXAEAVPtrTableStorageManager@23@@Z 0000000180004690 f   CmPtrTable.obj
 0001:00003700       ?exportExtraData@PtrTable@Cm@physx@@QEAAXAEAVPxSerializationContext@3@@Z 0000000180004700 f   CmPtrTable.obj
 0001:00003750       ?find@PtrTable@Cm@physx@@QEBAIPEBX@Z 0000000180004750 f   CmPtrTable.obj
 0001:00003780       ?getBinaryMetaData@PtrTable@Cm@physx@@SAXAEAVPxOutputStream@3@@Z 0000000180004780 f   CmPtrTable.obj
 0001:00003970       ?getCount@PtrTable@Cm@physx@@QEBAIXZ 0000000180004970 f i CmPtrTable.obj
 0001:00003980       ?getPtrs@PtrTable@Cm@physx@@QEAAPEAPEAXXZ 0000000180004980 f i CmPtrTable.obj
 0001:00003980       ?getPtrs@PtrTable@Cm@physx@@QEBAPEBQEAXXZ 0000000180004980 f i CmPtrTable.obj
 0001:00003990       ?importExtraData@PtrTable@Cm@physx@@QEAAXAEAVPxDeserializationContext@3@@Z 0000000180004990 f   CmPtrTable.obj
 0001:000039c0       ?realloc@PtrTable@Cm@physx@@AEAAXIIAEAVPtrTableStorageManager@23@@Z 00000001800049c0 f   CmPtrTable.obj
 0001:00003a50       ?replaceWithLast@PtrTable@Cm@physx@@QEAAXIAEAVPtrTableStorageManager@23@@Z 0000000180004a50 f   CmPtrTable.obj
 0001:00003b50       ??_ECollection@Cm@physx@@UEAAPEAXI@Z 0000000180004b50 f i CmCollection.obj
 0001:00003b50       ??_GCollection@Cm@physx@@UEAAPEAXI@Z 0000000180004b50 f i CmCollection.obj
 0001:00003c00       ??_EPxCollection@physx@@MEAAPEAXI@Z 0000000180004c00 f i CmCollection.obj
 0001:00003c00       ??_GPxCollection@physx@@MEAAPEAXI@Z 0000000180004c00 f i CmCollection.obj
 0001:00003c30       ?add@Collection@Cm@physx@@UEAAXAEAVPxBase@3@_K@Z 0000000180004c30 f   CmCollection.obj
 0001:00003d20       ?add@Collection@Cm@physx@@UEAAXAEAVPxCollection@3@@Z 0000000180004d20 f   CmCollection.obj
 0001:00003ec0       ?addId@Collection@Cm@physx@@UEAAXAEAVPxBase@3@_K@Z 0000000180004ec0 f   CmCollection.obj
 0001:00003ff0       ?contains@Collection@Cm@physx@@UEBA_NAEAVPxBase@3@@Z 0000000180004ff0 f   CmCollection.obj
 0001:000040a0       ?create@?$PxHashBase@V?$PxPair@$$CB_KPEAVPxBase@physx@@@physx@@_KU?$PxHash@_K@2@UGetKey@?$PxHashMapBase@_KPEAVPxBase@physx@@U?$PxHash@_K@2@VPxAllocator@2@@2@VPxAllocator@2@$00@physx@@QEAAPEAV?$PxPair@$$CB_KPEAVPxBase@physx@@@2@AEB_KAEA_N@Z 00000001800050a0 f i CmCollection.obj
 0001:000040a0       ?create@?$PxHashBase@V?$PxPair@QEAVPxBase@physx@@_K@physx@@PEAVPxBase@2@U?$PxHash@PEAVPxBase@physx@@@2@UGetKey@?$PxHashMapBase@PEAVPxBase@physx@@_KU?$PxHash@PEAVPxBase@physx@@@2@VPxAllocator@2@@2@VPxAllocator@2@$00@physx@@QEAAPEAV?$PxPair@QEAVPxBase@physx@@_K@2@AEBQEAVPxBase@2@AEA_N@Z 00000001800050a0 f i CmCollection.obj
 0001:00004230       ?erase@?$PxHashBase@V?$PxPair@$$CB_KPEAVPxBase@physx@@@physx@@_KU?$PxHash@_K@2@UGetKey@?$PxHashMapBase@_KPEAVPxBase@physx@@U?$PxHash@_K@2@VPxAllocator@2@@2@VPxAllocator@2@$00@physx@@QEAA_NAEB_K@Z 0000000180005230 f i CmCollection.obj
 0001:00004230       ?erase@?$PxHashBase@V?$PxPair@QEAVPxBase@physx@@_K@physx@@PEAVPxBase@2@U?$PxHash@PEAVPxBase@physx@@@2@UGetKey@?$PxHashMapBase@PEAVPxBase@physx@@_KU?$PxHash@PEAVPxBase@physx@@@2@VPxAllocator@2@@2@VPxAllocator@2@$00@physx@@QEAA_NAEBQEAVPxBase@2@@Z 0000000180005230 f i CmCollection.obj
 0001:000043e0       ?find@?$PxHashMapBase@_KPEAVPxBase@physx@@U?$PxHash@_K@2@VPxAllocator@2@@physx@@QEBAPEBV?$PxPair@$$CB_KPEAVPxBase@physx@@@2@AEB_K@Z 00000001800053e0 f i CmCollection.obj
 0001:00004480       ?find@Collection@Cm@physx@@UEBAPEAVPxBase@3@_K@Z 0000000180005480 f   CmCollection.obj
 0001:000044b0       ?getId@Collection@Cm@physx@@UEBA_KAEBVPxBase@3@@Z 00000001800054b0 f   CmCollection.obj
 0001:00004560       ?getIds@Collection@Cm@physx@@UEBAIPEA_KII@Z 0000000180005560 f   CmCollection.obj
 0001:00004630       ?getNbIds@Collection@Cm@physx@@UEBAIXZ 0000000180005630 f   CmCollection.obj
 0001:00004640       ?getNbObjects@Collection@Cm@physx@@UEBAIXZ 0000000180005640 f   CmCollection.obj
 0001:00004650       ?getObject@Collection@Cm@physx@@UEBAAEAVPxBase@3@I@Z 0000000180005650 f   CmCollection.obj
 0001:00004660       ?getObjects@Collection@Cm@physx@@UEBAIPEAPEAVPxBase@3@II@Z 0000000180005660 f   CmCollection.obj
 0001:000046a0       ?release@Collection@Cm@physx@@UEAAXXZ 00000001800056a0 f i CmCollection.obj
 0001:000046c0       ?remove@Collection@Cm@physx@@UEAAXAEAVPxBase@3@@Z 00000001800056c0 f   CmCollection.obj
 0001:000047b0       ?remove@Collection@Cm@physx@@UEAAXAEAVPxCollection@3@@Z 00000001800057b0 f   CmCollection.obj
 0001:000048c0       ?removeId@Collection@Cm@physx@@UEAAX_K@Z 00000001800058c0 f   CmCollection.obj
 0001:00004940       ?reserveInternal@?$PxHashBase@V?$PxPair@$$CB_KPEAVPxBase@physx@@@physx@@_KU?$PxHash@_K@2@UGetKey@?$PxHashMapBase@_KPEAVPxBase@physx@@U?$PxHash@_K@2@VPxAllocator@2@@2@VPxAllocator@2@$00@physx@@AEAAXI@Z 0000000180005940 f i CmCollection.obj
 0001:00004940       ?reserveInternal@?$PxHashBase@V?$PxPair@QEAVPxBase@physx@@_K@physx@@PEAVPxBase@2@U?$PxHash@PEAVPxBase@physx@@@2@UGetKey@?$PxHashMapBase@PEAVPxBase@physx@@_KU?$PxHash@PEAVPxBase@physx@@@2@VPxAllocator@2@@2@VPxAllocator@2@$00@physx@@AEAAXI@Z 0000000180005940 f i CmCollection.obj
 0001:00004b20       PxCreateCollection         0000000180005b20 f   CmCollection.obj
 0001:00004c10       ??0RadixSort@Cm@physx@@QEAA@XZ 0000000180005c10 f   CmRadixSort.obj
 0001:00004c40       ??0RadixSortBuffered@Cm@physx@@QEAA@XZ 0000000180005c40 f   CmRadixSort.obj
 0001:00004c70       ??1RadixSort@Cm@physx@@UEAA@XZ 0000000180005c70 f   CmRadixSort.obj
 0001:00004c80       ??1RadixSortBuffered@Cm@physx@@UEAA@XZ 0000000180005c80 f   CmRadixSort.obj
 0001:00004cb0       ??_ERadixSort@Cm@physx@@UEAAPEAXI@Z 0000000180005cb0 f i CmRadixSort.obj
 0001:00004d40       ??_ERadixSortBuffered@Cm@physx@@UEAAPEAXI@Z 0000000180005d40 f i CmRadixSort.obj
 0001:00004e30       ?CheckResize@RadixSortBuffered@Cm@physx@@AEAAXI@Z 0000000180005e30 f i CmRadixSort.obj
 0001:00004e70       ?GetNbHits@RadixSort@Cm@physx@@QEBAIXZ 0000000180005e70 f i CmRadixSort.obj
 0001:00004e80       ?GetNbTotalCalls@RadixSort@Cm@physx@@QEBAIXZ 0000000180005e80 f i CmRadixSort.obj
 0001:00004e90       ?GetRanks@RadixSort@Cm@physx@@QEBAPEBIXZ 0000000180005e90 f i CmRadixSort.obj
 0001:00004e90       ?getGridModelInvMass@SoftBodyAuxData@Gu@physx@@UEAAPEAMXZ 0000000180005e90 f i GuTetrahedronMesh.obj
 0001:00004e90       ?getHeightField@HeightFieldUtil@Gu@physx@@QEBAAEBVHeightField@23@XZ 0000000180005e90 f i GuCCTSweepTests.obj
 0001:00004e90       ?getSimulationMesh@SoftBodyMesh@Gu@physx@@UEAAPEAVPxTetrahedronMesh@3@XZ 0000000180005e90 f i GuTetrahedronMesh.obj
 0001:00004e90       ?getSimulationMesh@SoftBodyMesh@Gu@physx@@UEBAPEBVPxTetrahedronMesh@3@XZ 0000000180005e90 f i GuTetrahedronMesh.obj
 0001:00004ea0       ?GetRecyclable@RadixSort@Cm@physx@@QEBAPEAIXZ 0000000180005ea0 f i CmRadixSort.obj
 0001:00004ea0       ?GetValencies@BigConvexData@physx@@QEBAPEBUValency@Gu@2@XZ 0000000180005ea0 f i GuMetaData.obj
 0001:00004ea0       ?getCollisionMesh@SoftBodyMesh@Gu@physx@@UEAAPEAVPxTetrahedronMesh@3@XZ 0000000180005ea0 f i GuTetrahedronMesh.obj
 0001:00004ea0       ?getCollisionMesh@SoftBodyMesh@Gu@physx@@UEBAPEBVPxTetrahedronMesh@3@XZ 0000000180005ea0 f i GuTetrahedronMesh.obj
 0001:00004ea0       ?getHeightFieldGeometry@HeightFieldUtil@Gu@physx@@QEBAAEBVPxHeightFieldGeometry@3@XZ 0000000180005ea0 f i GuCCTSweepTests.obj
 0001:00004ea0       ?getObjects@PruningPool@Gu@physx@@QEBAPEAUPrunerPayload@23@XZ 0000000180005ea0 f i GuIncrementalAABBPrunerCore.obj
 0001:00004ea0       ?getPos@AABBTreeBuildNode@Gu@physx@@QEBAPEBV123@XZ 0000000180005ea0 f i GuMeshFactory.obj
 0001:00004ea0       ?getVertices@TetrahedronMesh@Gu@physx@@UEBAPEBV?$PxVec3T@M@3@XZ 0000000180005ea0 f i GuTetrahedronMesh.obj
 0001:00004ea0       ?getVertices@TriangleMesh@Gu@physx@@UEBAPEBV?$PxVec3T@M@3@XZ 0000000180005ea0 f i GuTriangleMesh.obj
 0001:00004eb0       ?Resize@RadixSortBuffered@Cm@physx@@AEAA_NI@Z 0000000180005eb0 f   CmRadixSort.obj
 0001:00004fb0       ?SetBuffers@RadixSort@Cm@physx@@QEAA_NPEAI00PEAPEAI@Z 0000000180005fb0 f   CmRadixSort.obj
 0001:00004ff0       ?Sort@RadixSort@Cm@physx@@QEAAAEAV123@PEBIIW4RadixHint@23@@Z 0000000180005ff0 f   CmRadixSort.obj
 0001:000056a0       ?Sort@RadixSort@Cm@physx@@QEAAAEAV123@PEBMI@Z 00000001800066a0 f   CmRadixSort.obj
 0001:00005e40       ?Sort@RadixSortBuffered@Cm@physx@@QEAAAEAV123@PEBIIW4RadixHint@23@@Z 0000000180006e40 f   CmRadixSort.obj
 0001:00005ee0       ?Sort@RadixSortBuffered@Cm@physx@@QEAAAEAV123@PEBMI@Z 0000000180006ee0 f   CmRadixSort.obj
 0001:00005f70       ?invalidateRanks@RadixSort@Cm@physx@@QEAAXXZ 0000000180006f70 f i CmRadixSort.obj
 0001:00005f80       ?reset@RadixSortBuffered@Cm@physx@@QEAAXXZ 0000000180006f80 f   CmRadixSort.obj
 0001:00006000       ?ReadHeader@Cm@physx@@YA_NEEEEAEAIAEA_NAEAVPxInputStream@2@@Z 0000000180007000 f   CmSerialize.obj
 0001:00006160       ?ReadIndices@Cm@physx@@YAXGIPEAGAEAVPxInputStream@2@_N@Z 0000000180007160 f   CmSerialize.obj
 0001:000062b0       ?StoreIndices@Cm@physx@@YAXGIPEBGAEAVPxOutputStream@2@_N@Z 00000001800072b0 f   CmSerialize.obj
 0001:000063a0       ?WriteHeader@Cm@physx@@YA_NEEEEI_NAEAVPxOutputStream@2@@Z 00000001800073a0 f   CmSerialize.obj
 0001:000064d0       ?computeMaxIndex@physx@@YAGPEBGI@Z 00000001800074d0 f   CmSerialize.obj
 0001:00006500       ?computeMaxIndex@physx@@YAIPEBII@Z 0000000180007500 f   CmSerialize.obj
 0001:00006530       ?readByteBuffer@physx@@YAXPEAEIAEAVPxInputStream@1@@Z 0000000180007530 f   CmSerialize.obj
 0001:00006530       ?writeByteBuffer@physx@@YAXPEBEIAEAVPxOutputStream@1@@Z 0000000180007530 f   CmSerialize.obj
 0001:00006550       ?readChunk@physx@@YAXAEAC000AEAVPxInputStream@1@@Z 0000000180007550 f   CmSerialize.obj
 0001:000065d0       ?readDword@physx@@YAI_NAEAVPxInputStream@1@@Z 00000001800075d0 f   CmSerialize.obj
 0001:00006630       ?readFloat@physx@@YAM_NAEAVPxInputStream@1@@Z 0000000180007630 f   CmSerialize.obj
 0001:00006690       ?readFloatBuffer@physx@@YA_NPEAMI_NAEAVPxInputStream@1@@Z 0000000180007690 f   CmSerialize.obj
 0001:00006710       ?readHeader@physx@@YA_NCCCCAEAIAEA_NAEAVPxInputStream@1@@Z 0000000180007710 f   CmSerialize.obj
 0001:00006860       ?readIndices@physx@@YAXIIPEAIAEAVPxInputStream@1@_N@Z 0000000180007860 f   CmSerialize.obj
 0001:00006990       ?readWord@physx@@YAG_NAEAVPxInputStream@1@@Z 0000000180007990 f   CmSerialize.obj
 0001:000069d0       ?readWordBuffer@physx@@YAXPEAGI_NAEAVPxInputStream@1@@Z 00000001800079d0 f   CmSerialize.obj
 0001:00006a40       ?storeIndices@physx@@YAXIIPEBIAEAVPxOutputStream@1@_N@Z 0000000180007a40 f   CmSerialize.obj
 0001:00006bd0       ?writeDword@physx@@YAXI_NAEAVPxOutputStream@1@@Z 0000000180007bd0 f   CmSerialize.obj
 0001:00006c20       ?writeFloat@physx@@YAXM_NAEAVPxOutputStream@1@@Z 0000000180007c20 f   CmSerialize.obj
 0001:00006c70       ?writeFloatBuffer@physx@@YAXPEBMI_NAEAVPxOutputStream@1@@Z 0000000180007c70 f   CmSerialize.obj
 0001:00006d10       ?writeHeader@physx@@YA_NCCCCI_NAEAVPxOutputStream@1@@Z 0000000180007d10 f   CmSerialize.obj
 0001:00006e40       ?writeWord@physx@@YAXG_NAEAVPxOutputStream@1@@Z 0000000180007e40 f   CmSerialize.obj
 0001:00006e80       ?writeWordBuffer@physx@@YAXPEBGI_NAEAVPxOutputStream@1@@Z 0000000180007e80 f   CmSerialize.obj
 0001:00006f00       ??6PxRenderOutput@physx@@QEAAAEAV01@AEBV?$PxTransformT@M@1@@Z 0000000180007f00 f i CmVisualization.obj
 0001:00007080       ??6PxRenderOutput@physx@@QEAAAEAV01@AEBV?$PxVec3T@M@1@@Z 0000000180008080 f i CmVisualization.obj
 0001:00007370       ?renderOutputDebugArrow@Cm@physx@@YAXAEAVPxRenderOutput@2@AEBUPxDebugArrow@2@@Z 0000000180008370 f   CmVisualization.obj
 0001:00007710       ?renderOutputDebugBasis@Cm@physx@@YAXAEAVPxRenderOutput@2@AEBUPxDebugBasis@2@@Z 0000000180008710 f   CmVisualization.obj
 0001:00007ca0       ?renderOutputDebugBox@Cm@physx@@YAXAEAVPxRenderOutput@2@AEBVPxBounds3@2@@Z 0000000180008ca0 f   CmVisualization.obj
 0001:00007f10       ?renderOutputDebugCircle@Cm@physx@@YAXAEAVPxRenderOutput@2@IM@Z 0000000180008f10 f   CmVisualization.obj
 0001:00007ff0       ?visualizeAngularLimit@Cm@physx@@YAXAEAVPxRenderOutput@2@MAEBV?$PxTransformT@M@2@MM@Z 0000000180008ff0 f   CmVisualization.obj
 0001:00008180       ?visualizeDoubleCone@Cm@physx@@YAXAEAVPxRenderOutput@2@MAEBV?$PxTransformT@M@2@M@Z 0000000180009180 f   CmVisualization.obj
 0001:000083a0       ?visualizeJointFrames@Cm@physx@@YAXAEAVPxRenderOutput@2@MAEBV?$PxTransformT@M@2@1@Z 00000001800093a0 f   CmVisualization.obj
 0001:00008ea0       ?visualizeLimitCone@Cm@physx@@YAXAEAVPxRenderOutput@2@MAEBV?$PxTransformT@M@2@MM@Z 0000000180009ea0 f   CmVisualization.obj
 0001:000090d0       ?visualizeLinearLimit@Cm@physx@@YAXAEAVPxRenderOutput@2@MAEBV?$PxTransformT@M@2@1M@Z 000000018000a0d0 f   CmVisualization.obj
 0001:000096c0       ??0CmModuleUpdateLoader@Cm@physx@@QEAA@PEBD@Z 000000018000a6c0 f   CmWindowsModuleUpdateLoader.obj
 0001:00009700       ??1CmModuleUpdateLoader@Cm@physx@@QEAA@XZ 000000018000a700 f   CmWindowsModuleUpdateLoader.obj
 0001:00009730       ?LoadModule@CmModuleUpdateLoader@Cm@physx@@QEAAPEAUHINSTANCE__@@PEBD0@Z 000000018000a730 f   CmWindowsModuleUpdateLoader.obj
 0001:000097a0       __local_stdio_printf_options 000000018000a7a0 f i CmWindowsModuleUpdateLoader.obj
 0001:000097b0       printf                     000000018000a7b0 f i CmWindowsModuleUpdateLoader.obj
 0001:00009810       ?commonDelayHook@@YAP6A_JXZIPEAUDelayLoadInfo@@@Z 000000018000a810 f   CmWindowsDelayLoadHook.obj
 0001:000098f0       PxSetPhysXCommonDelayLoadHook 000000018000a8f0 f   CmWindowsDelayLoadHook.obj
 0001:00009900       ??0?$PxQuatT@M@physx@@QEAA@AEBV?$PxMat33T@M@1@@Z 000000018000a900 f i GuBox.obj
 0001:00009b00       ??0Box@Gu@physx@@QEAA@AEBV012@@Z 000000018000ab00 f i GuBox.obj
 0001:00009b00       ??4Box@Gu@physx@@QEAAAEBV012@AEBV012@@Z 000000018000ab00 f i GuBox.obj
 0001:00009b60       ??0Box@Gu@physx@@QEAA@AEBV?$PxVec3T@M@2@0AEBV?$PxMat33T@M@2@@Z 000000018000ab60 f i GuBox.obj
 0001:00009bd0       ??$forward@_K@std@@YA$$QEA_KAEA_K@Z 000000018000abd0 f i libvcruntime:undname.obj
 0001:00009bd0       ??0AABBTreeBuildNode@Gu@physx@@QEAA@XZ 000000018000abd0 f i GuMeshFactory.obj
 0001:00009bd0       ??0BigConvexData@physx@@QEAA@W4PxEMPTY@1@@Z 000000018000abd0 f i GuMetaData.obj
 0001:00009bd0       ??0Box@Gu@physx@@QEAA@XZ   000000018000abd0 f i GuBox.obj
 0001:00009bd0       ??0HeightFieldData@Gu@physx@@QEAA@W4PxEMPTY@2@@Z 000000018000abd0 f i GuCCTSweepTests.obj
 0001:00009bd0       ?getAABB@AABBTreeBuildNode@Gu@physx@@QEBAAEBVPxBounds3@3@XZ 000000018000abd0 f i GuMeshFactory.obj
 0001:00009bd0       ?getPaddedBounds@HeightFieldData@Gu@physx@@QEBAAEBVCenterExtentsPadded@23@XZ 000000018000abd0 f i GuCCTSweepTests.obj
 0001:00009be0       ?computeAABBExtent@Box@Gu@physx@@QEBA?AV?$PxVec3T@M@3@XZ 000000018000abe0 f i GuBox.obj
 0001:00009ca0       ?computeBoxPoints@Box@Gu@physx@@QEBAXPEIAV?$PxVec3T@M@3@@Z 000000018000aca0 f i GuBox.obj
 0001:00009ce0       ?computeOBBPoints@Gu@physx@@YAXPEIAV?$PxVec3T@M@2@AEBV32@1111@Z 000000018000ace0 f   GuBox.obj
 0001:00009f60       ?create@Box@Gu@physx@@QEAAXAEBVCapsule@23@@Z 000000018000af60 f   GuBox.obj
 0001:0000a190       ?getBoxEdges@Gu@physx@@YAPEBEXZ 000000018000b190 f   GuBox.obj
 0001:0000a1a0       ?getTransform@Box@Gu@physx@@QEBA?AV?$PxTransformT@M@3@XZ 000000018000b1a0 f i GuBox.obj
 0001:0000a200       ?isValid@Box@Gu@physx@@QEBA_NXZ 000000018000b200 f i GuBox.obj
 0001:0000a220       ?rotate@Box@Gu@physx@@QEBA?AV?$PxVec3T@M@3@AEBV43@@Z 000000018000b220 f i GuBox.obj
 0001:0000a2b0       ?rotateInv@Box@Gu@physx@@QEBA?AV?$PxVec3T@M@3@AEBV43@@Z 000000018000b2b0 f i GuBox.obj
 0001:0000a340       ?setAxes@Box@Gu@physx@@QEAAXAEBV?$PxVec3T@M@3@00@Z 000000018000b340 f i GuBox.obj
 0001:0000a380       ?setEmpty@Box@Gu@physx@@QEAAXXZ 000000018000b380 f i GuBox.obj
 0001:0000a3c0       ?transform@Box@Gu@physx@@QEBA?AV?$PxVec3T@M@3@AEBV43@@Z 000000018000b3c0 f i GuBox.obj
 0001:0000a460       ?PxComputeBasisVectors@physx@@YAXAEBV?$PxVec3T@M@1@0AEAV21@11@Z 000000018000b460 f i GuCapsule.obj
 0001:0000a600       ?computeBoxAroundCapsule@Gu@physx@@YAXAEBVCapsule@12@AEAVBox@12@@Z 000000018000b600 f   GuCapsule.obj
 0001:0000a750       ??0HeightFieldData@Gu@physx@@QEAA@$$QEAU012@@Z 000000018000b750 f i GuCCTSweepTests.obj
 0001:0000a750       ??0HeightFieldData@Gu@physx@@QEAA@AEBU012@@Z 000000018000b750 f i GuCCTSweepTests.obj
 0001:0000a750       ??4HeightFieldData@Gu@physx@@QEAAAEAU012@$$QEAU012@@Z 000000018000b750 f i GuCCTSweepTests.obj
 0001:0000a750       ??4HeightFieldData@Gu@physx@@QEAAAEAU012@AEBU012@@Z 000000018000b750 f i GuCCTSweepTests.obj
 0001:0000a7b0       ??0HeightFieldData@Gu@physx@@QEAA@XZ 000000018000b7b0 f i GuCCTSweepTests.obj
 0001:0000a7c0       ??0HeightFieldTraceUtil@Gu@physx@@QEAA@AEBVPxHeightFieldGeometry@2@@Z 000000018000b7c0 f i GuCCTSweepTests.obj
 0001:0000a7c0       ??0HeightFieldUtil@Gu@physx@@QEAA@AEBVPxHeightFieldGeometry@2@@Z 000000018000b7c0 f i GuCCTSweepTests.obj
 0001:0000a800       ??4AABBTreeBuildParams@Gu@physx@@QEAAAEAV012@AEBV012@@Z 000000018000b800 f i GuMeshFactory.obj
 0001:0000a800       ??4HeightFieldTraceUtil@Gu@physx@@QEAAAEAV012@$$QEAV012@@Z 000000018000b800 f i GuCCTSweepTests.obj
 0001:0000a800       ??4HeightFieldTraceUtil@Gu@physx@@QEAAAEAV012@AEBV012@@Z 000000018000b800 f i GuCCTSweepTests.obj
 0001:0000a800       ??4HeightFieldUtil@Gu@physx@@QEAAAEAV012@AEBV012@@Z 000000018000b800 f i GuCCTSweepTests.obj
 0001:0000a820       ??4HeightFieldUtil@Gu@physx@@QEAAAEAV012@$$QEAV012@@Z 000000018000b820 f i GuCCTSweepTests.obj
 0001:0000a880       ??_EEntityReport@Gu@physx@@UEAAPEAXI@Z 000000018000b880 f i GuSweepsHF.obj
 0001:0000a880       ??_EOverlapCallback@PxBVH@physx@@UEAAPEAXI@Z 000000018000b880 f i GuQuerySystem.obj
 0001:0000a880       ??_EOverlapReport@Gu@physx@@UEAAPEAXI@Z 000000018000b880 f i GuCCTSweepTests.obj
 0001:0000a880       ??_ERaycastCallback@PxBVH@physx@@UEAAPEAXI@Z 000000018000b880 f i GuQuerySystem.obj
 0001:0000a880       ??_ERemapCallback@RTreeCooker@physx@@UEAAPEAXI@Z 000000018000b880 f i GuCookingTriangleMesh.obj
 0001:0000a880       ??_GEntityReport@Gu@physx@@UEAAPEAXI@Z 000000018000b880 f i GuSweepsHF.obj
 0001:0000a880       ??_GOverlapCallback@PxBVH@physx@@UEAAPEAXI@Z 000000018000b880 f i GuQuerySystem.obj
 0001:0000a880       ??_GOverlapReport@Gu@physx@@UEAAPEAXI@Z 000000018000b880 f i GuCCTSweepTests.obj
 0001:0000a880       ??_GRaycastCallback@PxBVH@physx@@UEAAPEAXI@Z 000000018000b880 f i GuQuerySystem.obj
 0001:0000a880       ??_GRemapCallback@RTreeCooker@physx@@UEAAPEAXI@Z 000000018000b880 f i GuCookingTriangleMesh.obj
 0001:0000a8b0       ??_H@YAXPEAX_K1P6APEAX0@Z@Z 000000018000b8b0 f i GuCCTSweepTests.obj
 0001:0000a900       ?ceilUp@HeightFieldTraceUtil@Gu@physx@@SAMM@Z 000000018000b900 f i GuCCTSweepTests.obj
 0001:0000a940       ?floorDown@HeightFieldTraceUtil@Gu@physx@@SAMM@Z 000000018000b940 f i GuCCTSweepTests.obj
 0001:0000a980       ?getHeightAtShapePoint@HeightFieldUtil@Gu@physx@@QEBAMMM@Z 000000018000b980 f i GuCCTSweepTests.obj
 0001:0000a9e0       ?getHeightInternal2@HeightField@Gu@physx@@QEBAMIMM@Z 000000018000b9e0 f i GuCCTSweepTests.obj
 0001:0000ab50       ?getNormalAtShapePoint@HeightFieldUtil@Gu@physx@@QEBA?AV?$PxVec3T@M@3@MM@Z 000000018000bb50 f i GuCCTSweepTests.obj
 0001:0000ac10       ?getNormal_2@HeightField@Gu@physx@@QEBA?AV?$PxVec3T@M@3@IMMMMM@Z 000000018000bc10 f i GuCCTSweepTests.obj
 0001:0000ad30       ?getOneOverColumnScale@HeightFieldUtil@Gu@physx@@QEBAMXZ 000000018000bd30 f i GuCCTSweepTests.obj
 0001:0000ad40       ?getOneOverHeightScale@HeightFieldUtil@Gu@physx@@QEBAMXZ 000000018000bd40 f i GuCCTSweepTests.obj
 0001:0000ad50       ?getOneOverRowScale@HeightFieldUtil@Gu@physx@@QEBAMXZ 000000018000bd50 f i GuCCTSweepTests.obj
 0001:0000ad60       ?hf2shapen@HeightFieldUtil@Gu@physx@@QEBA?AV?$PxVec3T@M@3@AEBV43@@Z 000000018000bd60 f i GuCCTSweepTests.obj
 0001:0000ad60       ?shape2hfp@HeightFieldUtil@Gu@physx@@QEBA?AV?$PxVec3T@M@3@AEBV43@@Z 000000018000bd60 f i GuCCTSweepTests.obj
 0001:0000ada0       ?hf2shapep@HeightFieldUtil@Gu@physx@@QEBA?AV?$PxVec3T@M@3@AEBV43@@Z 000000018000bda0 f i GuCCTSweepTests.obj
 0001:0000ade0       ?hf2worldn@HeightFieldUtil@Gu@physx@@QEBA?AV?$PxVec3T@M@3@AEBV?$PxTransformT@M@3@AEBV43@@Z 000000018000bde0 f i GuCCTSweepTests.obj
 0001:0000af50       ?hf2worldp@HeightFieldUtil@Gu@physx@@QEBA?AV?$PxVec3T@M@3@AEBV?$PxTransformT@M@3@AEBV43@@Z 000000018000bf50 f i GuCCTSweepTests.obj
 0001:0000b0d0       ?overlapAABBTriangles0to1@HeightFieldUtil@Gu@physx@@QEBAXAEBV?$PxTransformT@M@3@AEBVPxBounds3@3@AEAVOverlapReport@23@I@Z 000000018000c0d0 f i GuCCTSweepTests.obj
 0001:0000b470       ?overlapAABBTriangles@HeightFieldUtil@Gu@physx@@QEBAXAEBV?$PxTransformT@M@3@0AEBVPxBounds3@3@AEAVOverlapReport@23@I@Z 000000018000c470 f i GuCCTSweepTests.obj
 0001:0000ba90       ?overlapAABBTriangles@HeightFieldUtil@Gu@physx@@QEBAXAEBV?$PxTransformT@M@3@AEBVPxBounds3@3@AEAVOverlapReport@23@I@Z 000000018000ca90 f i GuCCTSweepTests.obj
 0001:0000c170       ?sweepBoxTriangles_Precise@Gu@physx@@YA_NIPEBVPxTriangle@2@_NAEBVPxBoxGeometry@2@AEBV?$PxTransformT@M@2@AEBV?$PxVec3T@M@2@MAEAUPxGeomSweepHit@2@PEBIMV?$PxFlags@W4Enum@PxHitFlag@physx@@G@2@@Z 000000018000d170 f   GuCCTSweepTests.obj
 0001:0000cef0       ?sweepBox_BoxGeom_Precise@@YA_NAEBVPxGeometry@physx@@AEBV?$PxTransformT@M@2@AEBVPxBoxGeometry@2@1AEBVBox@Gu@2@AEBV?$PxVec3T@M@2@MAEAUPxGeomSweepHit@2@V?$PxFlags@W4Enum@PxHitFlag@physx@@G@2@MPEAUPxQueryThreadContext@2@@Z 000000018000def0 f   GuCCTSweepTests.obj
 0001:0000d0b0       ?sweepBox_CapsuleGeom_Precise@@YA_NAEBVPxGeometry@physx@@AEBV?$PxTransformT@M@2@AEBVPxBoxGeometry@2@1AEBVBox@Gu@2@AEBV?$PxVec3T@M@2@MAEAUPxGeomSweepHit@2@V?$PxFlags@W4Enum@PxHitFlag@physx@@G@2@MPEAUPxQueryThreadContext@2@@Z 000000018000e0b0 f   GuCCTSweepTests.obj
 0001:0000d480       ?sweepBox_HeightFieldGeom_Precise@@YA_NAEBVPxGeometry@physx@@AEBV?$PxTransformT@M@2@AEBVPxBoxGeometry@2@1AEBVBox@Gu@2@AEBV?$PxVec3T@M@2@MAEAUPxGeomSweepHit@2@V?$PxFlags@W4Enum@PxHitFlag@physx@@G@2@MPEAUPxQueryThreadContext@2@@Z 000000018000e480 f   GuCCTSweepTests.obj
 0001:0000dca0       ?sweepBox_SphereGeom_Precise@@YA_NAEBVPxGeometry@physx@@AEBV?$PxTransformT@M@2@AEBVPxBoxGeometry@2@1AEBVBox@Gu@2@AEBV?$PxVec3T@M@2@MAEAUPxGeomSweepHit@2@V?$PxFlags@W4Enum@PxHitFlag@physx@@G@2@MPEAUPxQueryThreadContext@2@@Z 000000018000eca0 f   GuCCTSweepTests.obj
 0001:0000df80       ?sweepCapsule_BoxGeom_Precise@@YA_NAEBVPxGeometry@physx@@AEBV?$PxTransformT@M@2@AEBVPxCapsuleGeometry@2@1AEBVCapsule@Gu@2@AEBV?$PxVec3T@M@2@MAEAUPxGeomSweepHit@2@V?$PxFlags@W4Enum@PxHitFlag@physx@@G@2@MPEAUPxQueryThreadContext@2@@Z 000000018000ef80 f   GuCCTSweepTests.obj
 0001:0000e5e0       ??0?$CacheMap@UCachedEdge@Gu@physx@@$0IA@@Gu@physx@@QEAA@XZ 000000018000f5e0 f i GuGeometryQuery.obj
 0001:0000e6a0       ??0?$CacheMap@UCachedVertex@Gu@physx@@$0IA@@Gu@physx@@QEAA@XZ 000000018000f6a0 f i GuGeometryQuery.obj
 0001:0000e760       ??0MultiplePersistentContactManifold@Gu@physx@@QEAA@XZ 000000018000f760 f i GuGeometryQuery.obj
 0001:0000e7b0       ??0PCMMeshContactGeneration@Gu@physx@@QEAA@AEBT__m128@@0AEBVPxTransformV@aos@2@1AEAVMultiplePersistentContactManifold@12@AEAVPxContactBuffer@2@PEAV?$PxInlineArray@I$0DMA@V?$PxReflectionAllocator@I@physx@@@2@PEAVPxRenderOutput@2@@Z 000000018000f7b0 f i GuGeometryQuery.obj
 0001:0000f0e0       ??0PolygonalBox@Gu@physx@@QEAA@AEBV012@@Z 00000001800100e0 f i GuGeometryQuery.obj
 0001:0000f360       ??4MultiplePersistentContactManifold@Gu@physx@@QEAAAEAV012@$$QEAV012@@Z 0000000180010360 f i GuGeometryQuery.obj
 0001:0000f670       ??4MultiplePersistentContactManifold@Gu@physx@@QEAAAEAV012@AEBV012@@Z 0000000180010670 f i GuGeometryQuery.obj
 0001:0000f690       ??_E?$SupportLocalImpl@VBoxV@Gu@physx@@@Gu@physx@@UEAAPEAXI@Z 0000000180010690 f i GuGeometryQuery.obj
 0001:0000f690       ??_E?$SupportLocalImpl@VConvexHullNoScaleV@Gu@physx@@@Gu@physx@@UEAAPEAXI@Z 0000000180010690 f i GuMTD.obj
 0001:0000f690       ??_E?$SupportLocalImpl@VConvexHullV@Gu@physx@@@Gu@physx@@UEAAPEAXI@Z 0000000180010690 f i GuGeometryQuery.obj
 0001:0000f690       ??_E?$SupportLocalImpl@VTriangleV@Gu@physx@@@Gu@physx@@UEAAPEAXI@Z 0000000180010690 f i GuPCMContactConvexCommon.obj
 0001:0000f690       ??_G?$SupportLocalImpl@VBoxV@Gu@physx@@@Gu@physx@@UEAAPEAXI@Z 0000000180010690 f i GuGeometryQuery.obj
 0001:0000f690       ??_G?$SupportLocalImpl@VConvexHullNoScaleV@Gu@physx@@@Gu@physx@@UEAAPEAXI@Z 0000000180010690 f i GuMTD.obj
 0001:0000f690       ??_G?$SupportLocalImpl@VConvexHullV@Gu@physx@@@Gu@physx@@UEAAPEAXI@Z 0000000180010690 f i GuGeometryQuery.obj
 0001:0000f690       ??_G?$SupportLocalImpl@VTriangleV@Gu@physx@@@Gu@physx@@UEAAPEAXI@Z 0000000180010690 f i GuPCMContactConvexCommon.obj
 0001:0000f6c0       ??_ESupportLocal@Gu@physx@@UEAAPEAXI@Z 00000001800106c0 f i GuGeometryQuery.obj
 0001:0000f6c0       ??_GSupportLocal@Gu@physx@@UEAAPEAXI@Z 00000001800106c0 f i GuGeometryQuery.obj
 0001:0000f6f0       ?clearManifold@MultiplePersistentContactManifold@Gu@physx@@QEAAXXZ 00000001800106f0 f i GuGeometryQuery.obj
 0001:0000f750       ?computeGeomBounds@PxGeometryQuery@physx@@SAXAEAVPxBounds3@2@AEBVPxGeometry@2@AEBV?$PxTransformT@M@2@MMV?$PxFlags@W4Enum@PxGeometryQueryFlag@physx@@I@2@@Z 0000000180010750 f   GuGeometryQuery.obj
 0001:0000f7d0       ?computePenetration@PxGeometryQuery@physx@@SA_NAEAV?$PxVec3T@M@2@AEAMAEBVPxGeometry@2@AEBV?$PxTransformT@M@2@23V?$PxFlags@W4Enum@PxGeometryQueryFlag@physx@@I@2@@Z 00000001800107d0 f   GuGeometryQuery.obj
 0001:0000f950       ?doSupport@?$SupportLocalImpl@VBoxV@Gu@physx@@@Gu@physx@@UEBA?AT__m128@@AEBT4@@Z 0000000180010950 f i GuGeometryQuery.obj
 0001:0000f980       ?doSupport@?$SupportLocalImpl@VBoxV@Gu@physx@@@Gu@physx@@UEBAXAEBT__m128@@AEAT4@1@Z 0000000180010980 f i GuGeometryQuery.obj
 0001:0000f9d0       ?doSupport@?$SupportLocalImpl@VConvexHullV@Gu@physx@@@Gu@physx@@UEBA?AT__m128@@AEBT4@@Z 00000001800109d0 f i GuGeometryQuery.obj
 0001:0000fab0       ?doSupport@?$SupportLocalImpl@VConvexHullV@Gu@physx@@@Gu@physx@@UEBAXAEBT__m128@@AEAT4@1@Z 0000000180010ab0 f i GuGeometryQuery.obj
 0001:0000fe10       ?generateTriangleContacts@PxGeometryQuery@physx@@SA_NAEBVPxGeometry@2@AEBV?$PxTransformT@M@2@QEBV?$PxVec3T@M@2@IMMMAEAVPxContactBuffer@2@@Z 0000000180010e10 f   GuGeometryQuery.obj
 0001:000117a0       ?getEmptyManifold@MultiplePersistentContactManifold@Gu@physx@@QEAAPEAVSinglePersistentContactManifold@23@XZ 00000001800127a0 f i GuGeometryQuery.obj
 0001:000117c0       ?getManifold@MultiplePersistentContactManifold@Gu@physx@@QEAAPEAVSinglePersistentContactManifold@23@I@Z 00000001800127c0 f i GuGeometryQuery.obj
 0001:000117c0       ?getManifold@MultiplePersistentContactManifold@Gu@physx@@QEBAPEBVSinglePersistentContactManifold@23@I@Z 00000001800127c0 f i GuGeometryQuery.obj
 0001:000117e0       ?getUniqueID@PxCustomGeometry@physx@@SAIXZ 00000001800127e0 f   GuGeometryQuery.obj
 0001:00011800       ?hillClimbing@ConvexHullV@Gu@physx@@QEBAIAEBT__m128@@@Z 0000000180012800 f i GuGeometryQuery.obj
 0001:00011a30       ?initialize@MultiplePersistentContactManifold@Gu@physx@@QEAAXXZ 0000000180012a30 f i GuGeometryQuery.obj
 0001:00011a90       ?invalidate@MultiplePersistentContactManifold@Gu@physx@@QEBAIAEBVPxTransformV@aos@3@AEBT__m128@@1@Z 0000000180012a90 f i GuGeometryQuery.obj
 0001:00011b00       ?invalidate@MultiplePersistentContactManifold@Gu@physx@@QEBAIAEBVPxTransformV@aos@3@AEBT__m128@@@Z 0000000180012b00 f i GuGeometryQuery.obj
 0001:00011b70       ?isUnit@?$PxQuatT@M@physx@@QEBA_NXZ 0000000180012b70 f i GuGeometryQuery.obj
 0001:00011c30       ?isValid@PxGeometryQuery@physx@@SA_NAEBVPxGeometry@2@@Z 0000000180012c30 f   GuGeometryQuery.obj
 0001:00011f20       ?maxTransformPositionDelta@MultiplePersistentContactManifold@Gu@physx@@QEBA?AT__m128@@AEBT4@@Z 0000000180012f20 f i GuGeometryQuery.obj
 0001:00011f60       ?maxTransformQuatDelta@MultiplePersistentContactManifold@Gu@physx@@QEBA?AT__m128@@AEBT4@@Z 0000000180012f60 f i GuGeometryQuery.obj
 0001:00011fa0       ?overlap@PxGeometryQuery@physx@@SA_NAEBVPxGeometry@2@AEBV?$PxTransformT@M@2@01V?$PxFlags@W4Enum@PxGeometryQueryFlag@physx@@I@2@PEAUPxQueryThreadContext@2@@Z 0000000180012fa0 f   GuGeometryQuery.obj
 0001:00012070       ?pointDistance@PxGeometryQuery@physx@@SAMAEBV?$PxVec3T@M@2@AEBVPxGeometry@2@AEBV?$PxTransformT@M@2@PEAV32@PEAIV?$PxFlags@W4Enum@PxGeometryQueryFlag@physx@@I@2@@Z 0000000180013070 f   GuGeometryQuery.obj
 0001:00012800       ?populateVerts@?$SupportLocalImpl@VBoxV@Gu@physx@@@Gu@physx@@UEBAXPEBEIPEBV?$PxVec3T@M@3@PEAT__m128@@@Z 0000000180013800 f i GuGeometryQuery.obj
 0001:00012840       ?populateVerts@?$SupportLocalImpl@VConvexHullV@Gu@physx@@@Gu@physx@@UEBAXPEBEIPEBV?$PxVec3T@M@3@PEAT__m128@@@Z 0000000180013840 f i GuGeometryQuery.obj
 0001:000128a0       ?raycast@PxGeometryQuery@physx@@SAIAEBV?$PxVec3T@M@2@0AEBVPxGeometry@2@AEBV?$PxTransformT@M@2@MV?$PxFlags@W4Enum@PxHitFlag@physx@@G@2@IPEIAUPxGeomRaycastHit@2@IV?$PxFlags@W4Enum@PxGeometryQueryFlag@physx@@I@2@PEAUPxQueryThreadContext@2@@Z 00000001800138a0 f   GuGeometryQuery.obj
 0001:000129a0       ?reduceManifoldContactsInDifferentPatches@MultiplePersistentContactManifold@Gu@physx@@QEBAIPEAPEAUPCMContactPatch@23@IPEAVMeshPersistentContact@23@IAEBT__m128@@@Z 00000001800139a0 f i GuGeometryQuery.obj
 0001:00012b10       ?refineContactPatchConnective@MultiplePersistentContactManifold@Gu@physx@@QEBAXPEAPEAUPCMContactPatch@23@IPEAVMeshPersistentContact@23@AEBT__m128@@@Z 0000000180013b10 f i GuGeometryQuery.obj
 0001:00012c00       ?refreshManifold@MultiplePersistentContactManifold@Gu@physx@@QEAAXAEBVPxMatTransformV@aos@3@AEBT__m128@@1@Z 0000000180013c00 f i GuGeometryQuery.obj
 0001:00012d00       ?setRelativeTransform@MultiplePersistentContactManifold@Gu@physx@@QEAAXAEBVPxTransformV@aos@3@@Z 0000000180013d00 f i GuGeometryQuery.obj
 0001:00012d10       ?supportVertexIndex@ConvexHullV@Gu@physx@@QEBAIAEBT__m128@@@Z 0000000180013d10 f i GuGeometryQuery.obj
 0001:00012f90       ?sweep@PxGeometryQuery@physx@@SA_NAEBV?$PxVec3T@M@2@MAEBVPxGeometry@2@AEBV?$PxTransformT@M@2@12AEAUPxGeomSweepHit@2@V?$PxFlags@W4Enum@PxHitFlag@physx@@G@2@MV?$PxFlags@W4Enum@PxGeometryQueryFlag@physx@@I@2@PEAUPxQueryThreadContext@2@@Z 0000000180013f90 f   GuGeometryQuery.obj
 0001:00013420       ?computeBoxPoints@Gu@physx@@YAXAEBVPxBounds3@2@PEIAV?$PxVec3T@M@2@@Z 0000000180014420 f   GuInternal.obj
 0001:000134c0       ?computeSweptBox@Gu@physx@@YAXAEAVBox@12@AEBV?$PxVec3T@M@2@1AEBV?$PxMat33T@M@2@1M@Z 00000001800144c0 f   GuInternal.obj
 0001:00013a00       ?getPlane@Gu@physx@@YA?AVPxPlane@2@AEBV?$PxTransformT@M@2@@Z 0000000180014a00 f   GuInternal.obj
 0001:00013e50       ??_ECallbackRaycast@RTree@Gu@physx@@UEAAPEAXI@Z 0000000180014e50 f i GuMidphaseRTree.obj
 0001:00013e50       ??_ECallbackRefit@RTree@Gu@physx@@UEAAPEAXI@Z 0000000180014e50 f i GuTriangleMeshRTree.obj
 0001:00013e50       ??_EPxInsertionCallback@physx@@MEAAPEAXI@Z 0000000180014e50 f i GuMeshFactory.obj
 0001:00013e50       ??_GCallbackRaycast@RTree@Gu@physx@@UEAAPEAXI@Z 0000000180014e50 f i GuMidphaseRTree.obj
 0001:00013e50       ??_GCallbackRefit@RTree@Gu@physx@@UEAAPEAXI@Z 0000000180014e50 f i GuTriangleMeshRTree.obj
 0001:00013e50       ??_GPxInsertionCallback@physx@@MEAAPEAXI@Z 0000000180014e50 f i GuMeshFactory.obj
 0001:00013e80       ??$copy@V?$PxReflectionAllocator@USlab@NodeAllocator@Gu@physx@@@physx@@@?$PxArray@USlab@NodeAllocator@Gu@physx@@V?$PxReflectionAllocator@USlab@NodeAllocator@Gu@physx@@@4@@physx@@IEAAXAEBV01@@Z 0000000180014e80 f i GuMeshFactory.obj
 0001:00013f40       ??0AABBTreeBounds@Gu@physx@@QEAA@XZ 0000000180014f40 f i GuMeshFactory.obj
 0001:00013f50       ??0AABBTreeBuildNode@Gu@physx@@QEAA@AEBV012@@Z 0000000180014f50 f i GuMeshFactory.obj
 0001:00013f50       ??4AABBTreeBuildNode@Gu@physx@@QEAAAEAV012@AEBV012@@Z 0000000180014f50 f i GuMeshFactory.obj
 0001:00013f90       ??0AABBTreeBuildParams@Gu@physx@@QEAA@IIPEBVAABBTreeBounds@12@W4BVHBuildStrategy@12@@Z 0000000180014f90 f i GuMeshFactory.obj
 0001:00013fb0       ??0MeshFactory@Gu@physx@@QEAA@XZ 0000000180014fb0 f   GuMeshFactory.obj
 0001:000141b0       ??0NodeAllocator@Gu@physx@@QEAA@AEBV012@@Z 00000001800151b0 f i GuMeshFactory.obj
 0001:000141f0       ??0TriangleMeshData@Gu@physx@@QEAA@XZ 00000001800151f0 f i GuMeshFactory.obj
 0001:00014300       ??1AABBTreeBounds@Gu@physx@@QEAA@XZ 0000000180015300 f i GuMeshFactory.obj
 0001:00014310       ??1AABBTreeBuildParams@Gu@physx@@QEAA@XZ 0000000180015310 f i GuMeshFactory.obj
 0001:00014310       ?reset@AABBTreeBuildParams@Gu@physx@@QEAAXXZ 0000000180015310 f i GuMeshFactory.obj
 0001:00014360       ??1CollisionMeshMappingData@Gu@physx@@UEAA@XZ 0000000180015360 f i GuMeshFactory.obj
 0001:000144b0       ??1MeshDataBase@Gu@physx@@UEAA@XZ 00000001800154b0 f i GuMeshFactory.obj
 0001:000145f0       ??1MeshFactory@Gu@physx@@MEAA@XZ 00000001800155f0 f   GuMeshFactory.obj
 0001:00014730       ??1RTreeTriangleData@Gu@physx@@UEAA@XZ 0000000180015730 f i GuMeshFactory.obj
 0001:000147a0       ??1SoftBodyCollisionData@Gu@physx@@UEAA@XZ 00000001800157a0 f i GuMeshFactory.obj
 0001:000148e0       ??1SoftBodySimulationData@Gu@physx@@UEAA@XZ 00000001800158e0 f i GuMeshFactory.obj
 0001:00014a00       ??1TetrahedronMeshData@Gu@physx@@QEAA@XZ 0000000180015a00 f i GuMeshFactory.obj
 0001:00014a90       ??1TriangleMeshData@Gu@physx@@UEAA@XZ 0000000180015a90 f i GuMeshFactory.obj
 0001:00014bc0       ??4NodeAllocator@Gu@physx@@QEAAAEAV012@AEBV012@@Z 0000000180015bc0 f i GuMeshFactory.obj
 0001:00014c70       ??_EMeshFactory@Gu@physx@@MEAAPEAXI@Z 0000000180015c70 f i GuMeshFactory.obj
 0001:00014d90       ??_FAABBTreeBuildParams@Gu@physx@@QEAAXXZ 0000000180015d90 f i GuMeshFactory.obj
 0001:00014db0       ??_EBV4TriangleData@Gu@physx@@UEAAPEAXI@Z 0000000180015db0 f i GuMeshFactory.obj
 0001:00014db0       ??_GBV4TriangleData@Gu@physx@@UEAAPEAXI@Z 0000000180015db0 f i GuMeshFactory.obj
 0001:00014e40       ??_ECollisionMeshMappingData@Gu@physx@@UEAAPEAXI@Z 0000000180015e40 f i GuMeshFactory.obj
 0001:00014e40       ??_GCollisionMeshMappingData@Gu@physx@@UEAAPEAXI@Z 0000000180015e40 f i GuMeshFactory.obj
 0001:00014eb0       ??_EMeshDataBase@Gu@physx@@UEAAPEAXI@Z 0000000180015eb0 f i GuMeshFactory.obj
 0001:00014eb0       ??_GMeshDataBase@Gu@physx@@UEAAPEAXI@Z 0000000180015eb0 f i GuMeshFactory.obj
 0001:00014f20       ??_EPxCollisionMeshMappingData@physx@@UEAAPEAXI@Z 0000000180015f20 f i GuMeshFactory.obj
 0001:00014f20       ??_GPxCollisionMeshMappingData@physx@@UEAAPEAXI@Z 0000000180015f20 f i GuMeshFactory.obj
 0001:00014f70       ??_ERTreeTriangleData@Gu@physx@@UEAAPEAXI@Z 0000000180015f70 f i GuMeshFactory.obj
 0001:00014f70       ??_GRTreeTriangleData@Gu@physx@@UEAAPEAXI@Z 0000000180015f70 f i GuMeshFactory.obj
 0001:00015020       ??_ESoftBodyCollisionData@Gu@physx@@UEAAPEAXI@Z 0000000180016020 f i GuMeshFactory.obj
 0001:00015020       ??_GSoftBodyCollisionData@Gu@physx@@UEAAPEAXI@Z 0000000180016020 f i GuMeshFactory.obj
 0001:00015090       ??_ESoftBodySimulationData@Gu@physx@@UEAAPEAXI@Z 0000000180016090 f i GuMeshFactory.obj
 0001:00015090       ??_GSoftBodySimulationData@Gu@physx@@UEAAPEAXI@Z 0000000180016090 f i GuMeshFactory.obj
 0001:00015100       ??_ETriangleMeshData@Gu@physx@@UEAAPEAXI@Z 0000000180016100 f i GuMeshFactory.obj
 0001:00015100       ??_GTriangleMeshData@Gu@physx@@UEAAPEAXI@Z 0000000180016100 f i GuMeshFactory.obj
 0001:00015170       ??_V@YAXPEAX_K@Z           0000000180016170 f i LIBCMT:delete_array_size.obj
 0001:00015170       ?__global_delete@@YAXPEAX_K@Z 0000000180016170 f i GuMeshFactory.obj
 0001:00015180       ?addBVH@MeshFactory@Gu@physx@@QEAAXPEAVBVH@23@_N@Z 0000000180016180 f   GuMeshFactory.obj
 0001:00015200       ?addConvexMesh@MeshFactory@Gu@physx@@QEAAXPEAVConvexMesh@23@_N@Z 0000000180016200 f   GuMeshFactory.obj
 0001:00015280       ?addFactoryListener@MeshFactory@Gu@physx@@QEAAXAEAVMeshFactoryListener@23@@Z 0000000180016280 f   GuMeshFactory.obj
 0001:000152f0       ?addHeightField@MeshFactory@Gu@physx@@QEAAXPEAVHeightField@23@_N@Z 00000001800162f0 f   GuMeshFactory.obj
 0001:00015370       ?addSoftBodyMesh@MeshFactory@Gu@physx@@QEAAXPEAVSoftBodyMesh@23@_N@Z 0000000180016370 f   GuMeshFactory.obj
 0001:000153f0       ?addTetrahedronMesh@MeshFactory@Gu@physx@@QEAAXPEAVTetrahedronMesh@23@_N@Z 00000001800163f0 f   GuMeshFactory.obj
 0001:00015470       ?addTriangleMesh@MeshFactory@Gu@physx@@QEAAXPEAVTriangleMesh@23@_N@Z 0000000180016470 f   GuMeshFactory.obj
 0001:000154f0       ?allocate@?$PxArray@USlab@NodeAllocator@Gu@physx@@V?$PxReflectionAllocator@USlab@NodeAllocator@Gu@physx@@@4@@physx@@IEAAPEAUSlab@NodeAllocator@Gu@2@I@Z 00000001800164f0 f i GuMeshFactory.obj
 0001:00015580       ?allocateAdjacencies@TriangleMeshData@Gu@physx@@QEAAPEAIXZ 0000000180016580 f i GuMeshFactory.obj
 0001:000155f0       ?allocateExtraTrigData@TriangleMeshData@Gu@physx@@QEAAPEAEXZ 00000001800165f0 f i GuMeshFactory.obj
 0001:00015660       ?allocateFaceRemap@TriangleMeshData@Gu@physx@@QEAAPEAIXZ 0000000180016660 f i GuMeshFactory.obj
 0001:000156d0       ?allocateGridModelData@SoftBodySimulationData@Gu@physx@@QEAAXIIIIIII@Z 00000001800166d0 f i GuMeshFactory.obj
 0001:00015950       ?allocateMaterials@TetrahedronMeshData@Gu@physx@@QEAAPEAGXZ 0000000180016950 f i GuMeshFactory.obj
 0001:000159c0       ?allocateMaterials@TriangleMeshData@Gu@physx@@QEAAPEAGXZ 00000001800169c0 f i GuMeshFactory.obj
 0001:00015a30       ?allocateTetrahedrons@TetrahedronMeshData@Gu@physx@@QEAAXII@Z 0000000180016a30 f i GuMeshFactory.obj
 0001:00015ac0       ?allocateTriangles@TriangleMeshData@Gu@physx@@QEAAPEAXI_NI@Z 0000000180016ac0 f i GuMeshFactory.obj
 0001:00015bb0       ?allocateVertices@MeshDataBase@Gu@physx@@QEAAPEAV?$PxVec3T@M@3@I@Z 0000000180016bb0 f i GuMeshFactory.obj
 0001:00015c20       ?allocateVertices@TetrahedronMeshData@Gu@physx@@QEAAPEAV?$PxVec3T@M@3@II@Z 0000000180016c20 f i GuMeshFactory.obj
 0001:00015cc0       ?allocatemappingData@CollisionMeshMappingData@Gu@physx@@QEAAXIIII@Z 0000000180016cc0 f i GuMeshFactory.obj
 0001:00015ea0       ?create@?$PxHashBase@PEAVBVH@Gu@physx@@PEAV123@U?$PxHash@PEAVBVH@Gu@physx@@@3@UGetKey@?$PxHashSetBase@PEAVBVH@Gu@physx@@U?$PxHash@PEAVBVH@Gu@physx@@@3@VPxAllocator@3@$00@3@VPxAllocator@3@$00@physx@@QEAAPEAPEAVBVH@Gu@2@AEBQEAV342@AEA_N@Z 0000000180016ea0 f i GuMeshFactory.obj
 0001:00015ea0       ?create@?$PxHashBase@PEAVConvexMesh@Gu@physx@@PEAV123@U?$PxHash@PEAVConvexMesh@Gu@physx@@@3@UGetKey@?$PxHashSetBase@PEAVConvexMesh@Gu@physx@@U?$PxHash@PEAVConvexMesh@Gu@physx@@@3@VPxAllocator@3@$00@3@VPxAllocator@3@$00@physx@@QEAAPEAPEAVConvexMesh@Gu@2@AEBQEAV342@AEA_N@Z 0000000180016ea0 f i GuMeshFactory.obj
 0001:00015ea0       ?create@?$PxHashBase@PEAVHeightField@Gu@physx@@PEAV123@U?$PxHash@PEAVHeightField@Gu@physx@@@3@UGetKey@?$PxHashSetBase@PEAVHeightField@Gu@physx@@U?$PxHash@PEAVHeightField@Gu@physx@@@3@VPxAllocator@3@$00@3@VPxAllocator@3@$00@physx@@QEAAPEAPEAVHeightField@Gu@2@AEBQEAV342@AEA_N@Z 0000000180016ea0 f i GuMeshFactory.obj
 0001:00015ea0       ?create@?$PxHashBase@PEAVSoftBodyMesh@Gu@physx@@PEAV123@U?$PxHash@PEAVSoftBodyMesh@Gu@physx@@@3@UGetKey@?$PxHashSetBase@PEAVSoftBodyMesh@Gu@physx@@U?$PxHash@PEAVSoftBodyMesh@Gu@physx@@@3@VPxAllocator@3@$00@3@VPxAllocator@3@$00@physx@@QEAAPEAPEAVSoftBodyMesh@Gu@2@AEBQEAV342@AEA_N@Z 0000000180016ea0 f i GuMeshFactory.obj
 0001:00015ea0       ?create@?$PxHashBase@PEAVTetrahedronMesh@Gu@physx@@PEAV123@U?$PxHash@PEAVTetrahedronMesh@Gu@physx@@@3@UGetKey@?$PxHashSetBase@PEAVTetrahedronMesh@Gu@physx@@U?$PxHash@PEAVTetrahedronMesh@Gu@physx@@@3@VPxAllocator@3@$00@3@VPxAllocator@3@$00@physx@@QEAAPEAPEAVTetrahedronMesh@Gu@2@AEBQEAV342@AEA_N@Z 0000000180016ea0 f i GuMeshFactory.obj
 0001:00015ea0       ?create@?$PxHashBase@PEAVTriangleMesh@Gu@physx@@PEAV123@U?$PxHash@PEAVTriangleMesh@Gu@physx@@@3@UGetKey@?$PxHashSetBase@PEAVTriangleMesh@Gu@physx@@U?$PxHash@PEAVTriangleMesh@Gu@physx@@@3@VPxAllocator@3@$00@3@VPxAllocator@3@$00@physx@@QEAAPEAPEAVTriangleMesh@Gu@2@AEBQEAV342@AEA_N@Z 0000000180016ea0 f i GuMeshFactory.obj
 0001:00016030       ?createBVH@MeshFactory@Gu@physx@@IEAAPEAVPxBVH@3@AEAVBVHData@23@@Z 0000000180017030 f   GuMeshFactory.obj
 0001:00016120       ?createBVH@MeshFactory@Gu@physx@@QEAAPEAVPxBVH@3@AEAVPxInputStream@3@@Z 0000000180017120 f   GuMeshFactory.obj
 0001:00016240       ?createBVH@MeshFactory@Gu@physx@@QEAAPEAVPxBVH@3@PEAX@Z 0000000180017240 f   GuMeshFactory.obj
 0001:00016250       ?createConvexMesh@MeshFactory@Gu@physx@@IEAAPEAVPxConvexMesh@3@AEAUConvexHullInitData@23@@Z 0000000180017250 f   GuMeshFactory.obj
 0001:00016340       ?createConvexMesh@MeshFactory@Gu@physx@@QEAAPEAVPxConvexMesh@3@AEAVPxInputStream@3@@Z 0000000180017340 f   GuMeshFactory.obj
 0001:00016450       ?createConvexMesh@MeshFactory@Gu@physx@@QEAAPEAVPxConvexMesh@3@PEAX@Z 0000000180017450 f   GuMeshFactory.obj
 0001:00016460       ?createHeightField@MeshFactory@Gu@physx@@QEAAPEAVPxHeightField@3@AEAVPxInputStream@3@@Z 0000000180017460 f   GuMeshFactory.obj
 0001:00016570       ?createHeightField@MeshFactory@Gu@physx@@QEAAPEAVPxHeightField@3@PEAX@Z 0000000180017570 f   GuMeshFactory.obj
 0001:00016660       ?createSoftBodyMesh@MeshFactory@Gu@physx@@IEAAPEAVPxSoftBodyMesh@3@AEAVSoftBodyMeshData@23@@Z 0000000180017660 f   GuMeshFactory.obj
 0001:00016750       ?createSoftBodyMesh@MeshFactory@Gu@physx@@QEAAPEAVPxSoftBodyMesh@3@AEAVPxInputStream@3@@Z 0000000180017750 f   GuMeshFactory.obj
 0001:00016d50       ?createSoftBodyMesh@MeshFactory@Gu@physx@@QEAAPEAVPxSoftBodyMesh@3@PEAX@Z 0000000180017d50 f   GuMeshFactory.obj
 0001:00016d60       ?createTetrahedronMesh@MeshFactory@Gu@physx@@IEAAPEAVPxTetrahedronMesh@3@AEAVTetrahedronMeshData@23@@Z 0000000180017d60 f   GuMeshFactory.obj
 0001:00016e50       ?createTetrahedronMesh@MeshFactory@Gu@physx@@QEAAPEAVPxTetrahedronMesh@3@AEAVPxInputStream@3@@Z 0000000180017e50 f   GuMeshFactory.obj
 0001:00016ec0       ?createTetrahedronMesh@MeshFactory@Gu@physx@@QEAAPEAVPxTetrahedronMesh@3@PEAX@Z 0000000180017ec0 f   GuMeshFactory.obj
 0001:00016ed0       ?createTriangleMesh@MeshFactory@Gu@physx@@IEAAPEAVPxTriangleMesh@3@AEAVTriangleMeshData@23@@Z 0000000180017ed0 f   GuMeshFactory.obj
 0001:00017050       ?createTriangleMesh@MeshFactory@Gu@physx@@QEAAPEAVPxTriangleMesh@3@AEAVPxInputStream@3@@Z 0000000180018050 f   GuMeshFactory.obj
 0001:000170b0       ?createTriangleMesh@MeshFactory@Gu@physx@@QEAAPEAVPxTriangleMesh@3@PEAX@Z 00000001800180b0 f   GuMeshFactory.obj
 0001:000170c0       ?erase@?$PxHashBase@PEAVBVH@Gu@physx@@PEAV123@U?$PxHash@PEAVBVH@Gu@physx@@@3@UGetKey@?$PxHashSetBase@PEAVBVH@Gu@physx@@U?$PxHash@PEAVBVH@Gu@physx@@@3@VPxAllocator@3@$00@3@VPxAllocator@3@$00@physx@@QEAA_NAEBQEAVBVH@Gu@2@@Z 00000001800180c0 f i GuMeshFactory.obj
 0001:000170c0       ?erase@?$PxHashBase@PEAVConvexMesh@Gu@physx@@PEAV123@U?$PxHash@PEAVConvexMesh@Gu@physx@@@3@UGetKey@?$PxHashSetBase@PEAVConvexMesh@Gu@physx@@U?$PxHash@PEAVConvexMesh@Gu@physx@@@3@VPxAllocator@3@$00@3@VPxAllocator@3@$00@physx@@QEAA_NAEBQEAVConvexMesh@Gu@2@@Z 00000001800180c0 f i GuMeshFactory.obj
 0001:000170c0       ?erase@?$PxHashBase@PEAVHeightField@Gu@physx@@PEAV123@U?$PxHash@PEAVHeightField@Gu@physx@@@3@UGetKey@?$PxHashSetBase@PEAVHeightField@Gu@physx@@U?$PxHash@PEAVHeightField@Gu@physx@@@3@VPxAllocator@3@$00@3@VPxAllocator@3@$00@physx@@QEAA_NAEBQEAVHeightField@Gu@2@@Z 00000001800180c0 f i GuMeshFactory.obj
 0001:000170c0       ?erase@?$PxHashBase@PEAVSoftBodyMesh@Gu@physx@@PEAV123@U?$PxHash@PEAVSoftBodyMesh@Gu@physx@@@3@UGetKey@?$PxHashSetBase@PEAVSoftBodyMesh@Gu@physx@@U?$PxHash@PEAVSoftBodyMesh@Gu@physx@@@3@VPxAllocator@3@$00@3@VPxAllocator@3@$00@physx@@QEAA_NAEBQEAVSoftBodyMesh@Gu@2@@Z 00000001800180c0 f i GuMeshFactory.obj
 0001:000170c0       ?erase@?$PxHashBase@PEAVTetrahedronMesh@Gu@physx@@PEAV123@U?$PxHash@PEAVTetrahedronMesh@Gu@physx@@@3@UGetKey@?$PxHashSetBase@PEAVTetrahedronMesh@Gu@physx@@U?$PxHash@PEAVTetrahedronMesh@Gu@physx@@@3@VPxAllocator@3@$00@3@VPxAllocator@3@$00@physx@@QEAA_NAEBQEAVTetrahedronMesh@Gu@2@@Z 00000001800180c0 f i GuMeshFactory.obj
 0001:000170c0       ?erase@?$PxHashBase@PEAVTriangleMesh@Gu@physx@@PEAV123@U?$PxHash@PEAVTriangleMesh@Gu@physx@@@3@UGetKey@?$PxHashSetBase@PEAVTriangleMesh@Gu@physx@@U?$PxHash@PEAVTriangleMesh@Gu@physx@@@3@VPxAllocator@3@$00@3@VPxAllocator@3@$00@physx@@QEAA_NAEBQEAVTriangleMesh@Gu@2@@Z 00000001800180c0 f i GuMeshFactory.obj
 0001:00017240       ?getBVHs@MeshFactory@Gu@physx@@QEBAIPEAPEAVPxBVH@3@II@Z 0000000180018240 f   GuMeshFactory.obj
 0001:000172e0       ?getBounds@AABBTreeBounds@Gu@physx@@QEAAPEAVPxBounds3@3@XZ 00000001800182e0 f i GuMeshFactory.obj
 0001:000172e0       ?getBounds@AABBTreeBounds@Gu@physx@@QEBAPEBVPxBounds3@3@XZ 00000001800182e0 f i GuMeshFactory.obj
 0001:000172f0       ?getConvexMeshes@MeshFactory@Gu@physx@@QEBAIPEAPEAVPxConvexMesh@3@II@Z 00000001800182f0 f   GuMeshFactory.obj
 0001:00017390       ?getHeightFields@MeshFactory@Gu@physx@@QEBAIPEAPEAVPxHeightField@3@II@Z 0000000180018390 f   GuMeshFactory.obj
 0001:00017430       ?getNbBVHs@MeshFactory@Gu@physx@@QEBAIXZ 0000000180018430 f   GuMeshFactory.obj
 0001:00017470       ?getNbConvexMeshes@MeshFactory@Gu@physx@@QEBAIXZ 0000000180018470 f   GuMeshFactory.obj
 0001:000174b0       ?getNbHeightFields@MeshFactory@Gu@physx@@QEBAIXZ 00000001800184b0 f   GuMeshFactory.obj
 0001:000174f0       ?getNbPrimitives@AABBTreeBuildNode@Gu@physx@@QEBAIXZ 00000001800184f0 f i GuMeshFactory.obj
 0001:000174f0       ?getNbRuntimePrimitives@AABBTreeBuildNode@Gu@physx@@QEBAIXZ 00000001800184f0 f i GuMeshFactory.obj
 0001:00017500       ?getNbSoftBodyMeshes@MeshFactory@Gu@physx@@QEBAIXZ 0000000180018500 f   GuMeshFactory.obj
 0001:00017540       ?getNbTetrahedronMeshes@MeshFactory@Gu@physx@@QEBAIXZ 0000000180018540 f   GuMeshFactory.obj
 0001:00017580       ?getNbTriangleMeshes@MeshFactory@Gu@physx@@QEBAIXZ 0000000180018580 f   GuMeshFactory.obj
 0001:000175c0       ?getNeg@AABBTreeBuildNode@Gu@physx@@QEBAPEBV123@XZ 00000001800185c0 f i GuMeshFactory.obj
 0001:000175e0       ?getPrimitives@AABBTreeBuildNode@Gu@physx@@QEAAPEAIPEAI@Z 00000001800185e0 f i GuMeshFactory.obj
 0001:000175e0       ?getPrimitives@AABBTreeBuildNode@Gu@physx@@QEBAPEBIPEBI@Z 00000001800185e0 f i GuMeshFactory.obj
 0001:000175f0       ?getSoftBodyMeshes@MeshFactory@Gu@physx@@QEBAIPEAPEAVPxSoftBodyMesh@3@II@Z 00000001800185f0 f   GuMeshFactory.obj
 0001:00017690       ?getTetrahedronMeshes@MeshFactory@Gu@physx@@QEBAIPEAPEAVPxTetrahedronMesh@3@II@Z 0000000180018690 f   GuMeshFactory.obj
 0001:00017720       ?getTriangleMeshes@MeshFactory@Gu@physx@@QEBAIPEAPEAVPxTriangleMesh@3@II@Z 0000000180018720 f   GuMeshFactory.obj
 0001:000177b0       ?growAndPushBack@?$PxArray@PEAVMeshFactoryListener@Gu@physx@@V?$PxReflectionAllocator@PEAVMeshFactoryListener@Gu@physx@@@3@@physx@@IEAAAEAPEAVMeshFactoryListener@Gu@2@AEBQEAV342@@Z 00000001800187b0 f i GuMeshFactory.obj
 0001:000178d0       ?isLeaf@AABBTreeBuildNode@Gu@physx@@QEBA_NXZ 00000001800188d0 f i GuMeshFactory.obj
 0001:000192f0       ?moveFrom@AABBTreeBounds@Gu@physx@@QEAAXAEAV123@@Z 000000018001a2f0 f i GuMeshFactory.obj
 0001:00019300       ?notifyFactoryListener@MeshFactory@Gu@physx@@QEAAXPEBVPxBase@3@G@Z 000000018001a300 f   GuMeshFactory.obj
 0001:00019370       ?ownsMemory@AABBTreeBounds@Gu@physx@@QEBA_NXZ 000000018001a370 f i GuMeshFactory.obj
 0001:00019650       ?recreate@?$PxArray@USlab@NodeAllocator@Gu@physx@@V?$PxReflectionAllocator@USlab@NodeAllocator@Gu@physx@@@4@@physx@@IEAAXI@Z 000000018001a650 f i GuMeshFactory.obj
 0001:00019700       ?release@CollisionMeshMappingData@Gu@physx@@UEAAXXZ 000000018001a700 f i GuMeshFactory.obj
 0001:00019720       ?release@MeshFactory@Gu@physx@@QEAAXXZ 000000018001a720 f   GuMeshFactory.obj
 0001:00019820       ?remove@MeshFactory@Gu@physx@@QEAA_NAEAVPxBase@3@@Z 000000018001a820 f   GuMeshFactory.obj
 0001:00019920       ?removeBVH@MeshFactory@Gu@physx@@QEAA_NAEAVPxBVH@3@@Z 000000018001a920 f   GuMeshFactory.obj
 0001:00019970       ?removeConvexMesh@MeshFactory@Gu@physx@@QEAA_NAEAVPxConvexMesh@3@@Z 000000018001a970 f   GuMeshFactory.obj
 0001:000199c0       ?removeFactoryListener@MeshFactory@Gu@physx@@QEAAXAEAVMeshFactoryListener@23@@Z 000000018001a9c0 f   GuMeshFactory.obj
 0001:00019a50       ?removeHeightField@MeshFactory@Gu@physx@@QEAA_NAEAVPxHeightField@3@@Z 000000018001aa50 f   GuMeshFactory.obj
 0001:00019aa0       ?removeSoftBodyMesh@MeshFactory@Gu@physx@@QEAA_NAEAVPxSoftBodyMesh@3@@Z 000000018001aaa0 f   GuMeshFactory.obj
 0001:00019af0       ?removeTetrahedronMesh@MeshFactory@Gu@physx@@QEAA_NAEAVPxTetrahedronMesh@3@@Z 000000018001aaf0 f   GuMeshFactory.obj
 0001:00019b40       ?removeTriangleMesh@MeshFactory@Gu@physx@@QEAA_NAEAVPxTriangleMesh@3@@Z 000000018001ab40 f   GuMeshFactory.obj
 0001:00019b90       ?reserveInternal@?$PxHashBase@PEAVBVH@Gu@physx@@PEAV123@U?$PxHash@PEAVBVH@Gu@physx@@@3@UGetKey@?$PxHashSetBase@PEAVBVH@Gu@physx@@U?$PxHash@PEAVBVH@Gu@physx@@@3@VPxAllocator@3@$00@3@VPxAllocator@3@$00@physx@@AEAAXI@Z 000000018001ab90 f i GuMeshFactory.obj
 0001:00019b90       ?reserveInternal@?$PxHashBase@PEAVConvexMesh@Gu@physx@@PEAV123@U?$PxHash@PEAVConvexMesh@Gu@physx@@@3@UGetKey@?$PxHashSetBase@PEAVConvexMesh@Gu@physx@@U?$PxHash@PEAVConvexMesh@Gu@physx@@@3@VPxAllocator@3@$00@3@VPxAllocator@3@$00@physx@@AEAAXI@Z 000000018001ab90 f i GuMeshFactory.obj
 0001:00019b90       ?reserveInternal@?$PxHashBase@PEAVHeightField@Gu@physx@@PEAV123@U?$PxHash@PEAVHeightField@Gu@physx@@@3@UGetKey@?$PxHashSetBase@PEAVHeightField@Gu@physx@@U?$PxHash@PEAVHeightField@Gu@physx@@@3@VPxAllocator@3@$00@3@VPxAllocator@3@$00@physx@@AEAAXI@Z 000000018001ab90 f i GuMeshFactory.obj
 0001:00019b90       ?reserveInternal@?$PxHashBase@PEAVSoftBodyMesh@Gu@physx@@PEAV123@U?$PxHash@PEAVSoftBodyMesh@Gu@physx@@@3@UGetKey@?$PxHashSetBase@PEAVSoftBodyMesh@Gu@physx@@U?$PxHash@PEAVSoftBodyMesh@Gu@physx@@@3@VPxAllocator@3@$00@3@VPxAllocator@3@$00@physx@@AEAAXI@Z 000000018001ab90 f i GuMeshFactory.obj
 0001:00019b90       ?reserveInternal@?$PxHashBase@PEAVTetrahedronMesh@Gu@physx@@PEAV123@U?$PxHash@PEAVTetrahedronMesh@Gu@physx@@@3@UGetKey@?$PxHashSetBase@PEAVTetrahedronMesh@Gu@physx@@U?$PxHash@PEAVTetrahedronMesh@Gu@physx@@@3@VPxAllocator@3@$00@3@VPxAllocator@3@$00@physx@@AEAAXI@Z 000000018001ab90 f i GuMeshFactory.obj
 0001:00019b90       ?reserveInternal@?$PxHashBase@PEAVTriangleMesh@Gu@physx@@PEAV123@U?$PxHash@PEAVTriangleMesh@Gu@physx@@@3@UGetKey@?$PxHashSetBase@PEAVTriangleMesh@Gu@physx@@U?$PxHash@PEAVTriangleMesh@Gu@physx@@@3@VPxAllocator@3@$00@3@VPxAllocator@3@$00@physx@@AEAAXI@Z 000000018001ab90 f i GuMeshFactory.obj
 0001:00019d60       ?setBounds@AABBTreeBounds@Gu@physx@@QEAAXPEAVPxBounds3@3@@Z 000000018001ad60 f i GuMeshFactory.obj
 0001:00019d70       ?setNbRunTimePrimitives@AABBTreeBuildNode@Gu@physx@@QEAAXI@Z 000000018001ad70 f i GuMeshFactory.obj
 0001:00019d80       ?takeOwnership@AABBTreeBounds@Gu@physx@@QEAAXXZ 000000018001ad80 f i GuMeshFactory.obj
 0001:00019d90       getInsertionCallback       000000018001ad90 f   GuMeshFactory.obj
 0001:00019da0       ??4BigConvexData@physx@@QEAAAEAV01@AEBV01@@Z 000000018001ada0 f i GuMetaData.obj
 0001:00019dc0       ?GetAdjacentVerts@BigConvexData@physx@@QEBAPEBEXZ 000000018001adc0 f i GuMetaData.obj
 0001:00019dc0       ?getSoftBodyAuxData@SoftBodyMesh@Gu@physx@@UEAAPEAVPxSoftBodyAuxData@3@XZ 000000018001adc0 f i GuTetrahedronMesh.obj
 0001:00019dc0       ?getSoftBodyAuxData@SoftBodyMesh@Gu@physx@@UEBAPEBVPxSoftBodyAuxData@3@XZ 000000018001adc0 f i GuTetrahedronMesh.obj
 0001:00019dc0       ?getTransforms@PruningPool@Gu@physx@@QEAAPEAV?$PxTransformT@M@3@XZ 000000018001adc0 f i GuIncrementalAABBPrunerCore.obj
 0001:00019dc0       ?getTransforms@PruningPool@Gu@physx@@QEBAPEBV?$PxTransformT@M@3@XZ 000000018001adc0 f i GuIncrementalAABBPrunerCore.obj
 0001:00019dc0       ?getTriangles@TriangleMesh@Gu@physx@@UEBAPEBXXZ 000000018001adc0 f i GuTriangleMesh.obj
 0001:00019dd0       ?GetNbNeighbors@BigConvexData@physx@@QEBAGI@Z 000000018001add0 f i GuMetaData.obj
 0001:00019dd0       ?GetValency@BigConvexData@physx@@QEBAGI@Z 000000018001add0 f i GuMetaData.obj
 0001:00019de0       ?GetNbSamples@BigConvexData@physx@@QEBAIXZ 000000018001ade0 f i GuMetaData.obj
 0001:00019df0       ?GetNbVerts@BigConvexData@physx@@QEBAIXZ 000000018001adf0 f i GuMetaData.obj
 0001:00019df0       ?getNbVertices@TetrahedronMesh@Gu@physx@@UEBAIXZ 000000018001adf0 f i GuTetrahedronMesh.obj
 0001:00019df0       ?getNbVertices@TriangleMesh@Gu@physx@@UEBAIXZ 000000018001adf0 f i GuTriangleMesh.obj
 0001:00019df0       ?length@pcharNode@@UEBAHXZ 000000018001adf0 f i libvcruntime:undname.obj
 0001:00019df0       ?raw_length@pcharNode@@UEBAHXZ 000000018001adf0 f i libvcruntime:undname.obj
 0001:00019e00       ?GetNeighbors@BigConvexData@physx@@QEBAPEBEI@Z 000000018001ae00 f i GuMetaData.obj
 0001:00019e10       ?GetOffset@BigConvexData@physx@@QEBAGI@Z 000000018001ae10 f i GuMetaData.obj
 0001:00019e20       ?GetSubdiv@BigConvexData@physx@@QEBAIXZ 000000018001ae20 f i GuMetaData.obj
 0001:00019e30       ?getBinaryMetaData@BV4Tree@Gu@physx@@SAXAEAVPxOutputStream@3@@Z 000000018001ae30 f   GuMetaData.obj
 0001:0001a3d0       ?getBinaryMetaData@BV4TriangleMesh@Gu@physx@@SAXAEAVPxOutputStream@3@@Z 000000018001b3d0 f   GuMetaData.obj
 0001:0001a750       ?getBinaryMetaData@BigConvexData@physx@@SAXAEAVPxOutputStream@2@@Z 000000018001b750 f   GuMetaData.obj
 0001:0001aa10       ?getBinaryMetaData@ConvexMesh@Gu@physx@@SAXAEAVPxOutputStream@3@@Z 000000018001ba10 f   GuMetaData.obj
 0001:0001b0a0       ?getBinaryMetaData@HeightField@Gu@physx@@SAXAEAVPxOutputStream@3@@Z 000000018001c0a0 f   GuMetaData.obj
 0001:0001b490       ?getBinaryMetaData@RTree@Gu@physx@@SAXAEAVPxOutputStream@3@@Z 000000018001c490 f   GuMetaData.obj
 0001:0001b7c0       ?getBinaryMetaData@RTreeTriangleMesh@Gu@physx@@SAXAEAVPxOutputStream@3@@Z 000000018001c7c0 f   GuMetaData.obj
 0001:0001b8a0       ?getBinaryMetaData@TriangleMesh@Gu@physx@@SAXAEAVPxOutputStream@3@@Z 000000018001c8a0 f   GuMetaData.obj
 0001:0001d3e0       ?doSupport@?$SupportLocalImpl@VConvexHullNoScaleV@Gu@physx@@@Gu@physx@@UEBA?AT__m128@@AEBT4@@Z 000000018001e3e0 f i GuMTD.obj
 0001:0001d430       ?doSupport@?$SupportLocalImpl@VConvexHullNoScaleV@Gu@physx@@@Gu@physx@@UEBAXAEBT__m128@@AEAT4@1@Z 000000018001e430 f i GuMTD.obj
 0001:0001d5b0       ?populateVerts@?$SupportLocalImpl@VConvexHullNoScaleV@Gu@physx@@@Gu@physx@@UEBAXPEBEIPEBV?$PxVec3T@M@3@PEAT__m128@@@Z 000000018001e5b0 f i GuMTD.obj
 0001:0001d5f0       ?getInternalData@TriangleMesh@Gu@physx@@UEBA_NAEAUPxTriangleMeshInternalData@3@_N@Z 000000018001e5f0 f   GuTriangleMesh.obj
 0001:0001d5f0       ?isDynamic@Pruner@Gu@physx@@UEBA_NXZ 000000018001e5f0 f   GuIncrementalAABBPruner.obj
 0001:0001f430       ??$gjk@U?$LocalConvex@VCapsuleV@Gu@physx@@@Gu@physx@@U?$LocalConvex@VConvexHullV@Gu@physx@@@23@@Gu@physx@@YA?AW4GjkStatus@01@AEBU?$LocalConvex@VCapsuleV@Gu@physx@@@01@AEBU?$LocalConvex@VConvexHullV@Gu@physx@@@01@AEBT__m128@@2AEAT5@333@Z 0000000180020430 f i GuMTD.obj
 0001:00020190       ??0SeparatingAxes@Gu@physx@@QEAA@$$QEAV012@@Z 0000000180021190 f i GuMTD.obj
 0001:00020190       ??0SeparatingAxes@Gu@physx@@QEAA@AEBV012@@Z 0000000180021190 f i GuMTD.obj
 0001:000202a0       ??0SeparatingAxes@Gu@physx@@QEAA@XZ 00000001800212a0 f i GuMTD.obj
 0001:000202b0       ??4SeparatingAxes@Gu@physx@@QEAAAEAV012@$$QEAV012@@Z 00000001800212b0 f i GuMTD.obj
 0001:000202b0       ??4SeparatingAxes@Gu@physx@@QEAAAEAV012@AEBV012@@Z 00000001800212b0 f i GuMTD.obj
 0001:000203c0       ??_E?$LocalConvex@UCustomConvexV@@@Gu@physx@@UEAAPEAXI@Z 00000001800213c0 f i GuGjkQuery.obj
 0001:000203c0       ??_E?$LocalConvex@UPointConvexV@@@Gu@physx@@UEAAPEAXI@Z 00000001800213c0 f i GuGjkQuery.obj
 0001:000203c0       ??_E?$LocalConvex@VBoxV@Gu@physx@@@Gu@physx@@UEAAPEAXI@Z 00000001800213c0 f i GuSweepTests.obj
 0001:000203c0       ??_E?$LocalConvex@VCapsuleV@Gu@physx@@@Gu@physx@@UEAAPEAXI@Z 00000001800213c0 f i GuMTD.obj
 0001:000203c0       ??_E?$LocalConvex@VConvexHullNoScaleV@Gu@physx@@@Gu@physx@@UEAAPEAXI@Z 00000001800213c0 f i GuPCMContactBoxConvex.obj
 0001:000203c0       ??_E?$LocalConvex@VConvexHullV@Gu@physx@@@Gu@physx@@UEAAPEAXI@Z 00000001800213c0 f i GuMTD.obj
 0001:000203c0       ??_E?$LocalConvex@VTetrahedronV@Gu@physx@@@Gu@physx@@UEAAPEAXI@Z 00000001800213c0 f i GuCookingTetrahedronMesh.obj
 0001:000203c0       ??_E?$LocalConvex@VTriangleV@Gu@physx@@@Gu@physx@@UEAAPEAXI@Z 00000001800213c0 f i GuSweepTests.obj
 0001:000203c0       ??_EGjkConvex@Gu@physx@@UEAAPEAXI@Z 00000001800213c0 f i GuMTD.obj
 0001:000203c0       ??_G?$LocalConvex@UCustomConvexV@@@Gu@physx@@UEAAPEAXI@Z 00000001800213c0 f i GuGjkQuery.obj
 0001:000203c0       ??_G?$LocalConvex@UPointConvexV@@@Gu@physx@@UEAAPEAXI@Z 00000001800213c0 f i GuGjkQuery.obj
 0001:000203c0       ??_G?$LocalConvex@VBoxV@Gu@physx@@@Gu@physx@@UEAAPEAXI@Z 00000001800213c0 f i GuSweepTests.obj
 0001:000203c0       ??_G?$LocalConvex@VCapsuleV@Gu@physx@@@Gu@physx@@UEAAPEAXI@Z 00000001800213c0 f i GuMTD.obj
 0001:000203c0       ??_G?$LocalConvex@VConvexHullNoScaleV@Gu@physx@@@Gu@physx@@UEAAPEAXI@Z 00000001800213c0 f i GuPCMContactBoxConvex.obj
 0001:000203c0       ??_G?$LocalConvex@VConvexHullV@Gu@physx@@@Gu@physx@@UEAAPEAXI@Z 00000001800213c0 f i GuMTD.obj
 0001:000203c0       ??_G?$LocalConvex@VTetrahedronV@Gu@physx@@@Gu@physx@@UEAAPEAXI@Z 00000001800213c0 f i GuCookingTetrahedronMesh.obj
 0001:000203c0       ??_G?$LocalConvex@VTriangleV@Gu@physx@@@Gu@physx@@UEAAPEAXI@Z 00000001800213c0 f i GuSweepTests.obj
 0001:000203c0       ??_GGjkConvex@Gu@physx@@UEAAPEAXI@Z 00000001800213c0 f i GuMTD.obj
 0001:00024540       ?getAxes@SeparatingAxes@Gu@physx@@QEBAPEBV?$PxVec3T@M@3@XZ 0000000180025540 f i GuMTD.obj
 0001:00024550       ?getCenter@?$LocalConvex@UCustomConvexV@@@Gu@physx@@UEBA?AT__m128@@XZ 0000000180025550 f i GuGjkQuery.obj
 0001:00024550       ?getCenter@?$LocalConvex@UPointConvexV@@@Gu@physx@@UEBA?AT__m128@@XZ 0000000180025550 f i GuGjkQuery.obj
 0001:00024550       ?getCenter@?$LocalConvex@VBoxV@Gu@physx@@@Gu@physx@@UEBA?AT__m128@@XZ 0000000180025550 f i GuSweepTests.obj
 0001:00024550       ?getCenter@?$LocalConvex@VCapsuleV@Gu@physx@@@Gu@physx@@UEBA?AT__m128@@XZ 0000000180025550 f i GuMTD.obj
 0001:00024550       ?getCenter@?$LocalConvex@VConvexHullNoScaleV@Gu@physx@@@Gu@physx@@UEBA?AT__m128@@XZ 0000000180025550 f i GuPCMContactBoxConvex.obj
 0001:00024550       ?getCenter@?$LocalConvex@VConvexHullV@Gu@physx@@@Gu@physx@@UEBA?AT__m128@@XZ 0000000180025550 f i GuMTD.obj
 0001:00024550       ?getCenter@?$LocalConvex@VTetrahedronV@Gu@physx@@@Gu@physx@@UEBA?AT__m128@@XZ 0000000180025550 f i GuCookingTetrahedronMesh.obj
 0001:00024550       ?getCenter@?$LocalConvex@VTriangleV@Gu@physx@@@Gu@physx@@UEBA?AT__m128@@XZ 0000000180025550 f i GuSweepTests.obj
 0001:00024560       ?getCount@BuildStats@Gu@physx@@QEBAIXZ 0000000180025560 f i GuBV4Build.obj
 0001:00024560       ?getNbActiveObjects@PruningPool@Gu@physx@@QEBAIXZ 0000000180025560 f i GuIncrementalAABBPrunerCore.obj
 0001:00024560       ?getNumAxes@SeparatingAxes@Gu@physx@@QEBAIXZ 0000000180025560 f i GuMTD.obj
 0001:00024570       ?getSweepMargin@?$LocalConvex@VCapsuleV@Gu@physx@@@Gu@physx@@UEBA?AT__m128@@XZ 0000000180025570 f i GuMTD.obj
 0001:00024570       ?getSweepMargin@?$RelativeConvex@VCapsuleV@Gu@physx@@@Gu@physx@@UEBA?AT__m128@@XZ 0000000180025570 f i GuCCDSweepPrimitives.obj
 0001:00024580       ?getSweepMargin@?$LocalConvex@UCustomConvexV@@@Gu@physx@@UEBA?AT__m128@@XZ 0000000180025580 f i GuGjkQuery.obj
 0001:00024580       ?getSweepMargin@?$LocalConvex@UPointConvexV@@@Gu@physx@@UEBA?AT__m128@@XZ 0000000180025580 f i GuGjkQuery.obj
 0001:00024580       ?getSweepMargin@?$LocalConvex@VBoxV@Gu@physx@@@Gu@physx@@UEBA?AT__m128@@XZ 0000000180025580 f i GuSweepTests.obj
 0001:00024580       ?getSweepMargin@?$LocalConvex@VConvexHullNoScaleV@Gu@physx@@@Gu@physx@@UEBA?AT__m128@@XZ 0000000180025580 f i GuPCMContactBoxConvex.obj
 0001:00024580       ?getSweepMargin@?$LocalConvex@VConvexHullV@Gu@physx@@@Gu@physx@@UEBA?AT__m128@@XZ 0000000180025580 f i GuMTD.obj
 0001:00024580       ?getSweepMargin@?$RelativeConvex@UCustomConvexV@@@Gu@physx@@UEBA?AT__m128@@XZ 0000000180025580 f i GuGjkQuery.obj
 0001:00024580       ?getSweepMargin@?$RelativeConvex@VBoxV@Gu@physx@@@Gu@physx@@UEBA?AT__m128@@XZ 0000000180025580 f i GuOverlapTests.obj
 0001:00024580       ?getSweepMargin@?$RelativeConvex@VConvexHullNoScaleV@Gu@physx@@@Gu@physx@@UEBA?AT__m128@@XZ 0000000180025580 f i GuPCMContactConvexConvex.obj
 0001:00024580       ?getSweepMargin@?$RelativeConvex@VConvexHullV@Gu@physx@@@Gu@physx@@UEBA?AT__m128@@XZ 0000000180025580 f i GuOverlapTests.obj
 0001:000245a0       ?getSweepMargin@GjkConvex@Gu@physx@@UEBA?AT__m128@@XZ 00000001800255a0 f i GuMTD.obj
 0001:000245c0       ?pointConvexDistance@@YA_NAEAV?$PxVec3T@M@physx@@0AEAMAEBV12@PEBVConvexMesh@Gu@2@AEBVPxMeshScale@2@AEBUPxTransformPadded@2@@Z 00000001800255c0 f   GuMTD.obj
 0001:00025320       ?reset@SeparatingAxes@Gu@physx@@QEAAXXZ 0000000180026320 f i GuMTD.obj
 0001:00025330       ?support@?$LocalConvex@VCapsuleV@Gu@physx@@@Gu@physx@@UEBA?AT__m128@@AEBT4@@Z 0000000180026330 f i GuMTD.obj
 0001:00025390       ?support@?$LocalConvex@VCapsuleV@Gu@physx@@@Gu@physx@@UEBA?AT__m128@@AEBT4@AEAH@Z 0000000180026390 f i GuMTD.obj
 0001:00025400       ?support@?$LocalConvex@VConvexHullV@Gu@physx@@@Gu@physx@@UEBA?AT__m128@@AEBT4@@Z 0000000180026400 f i GuMTD.obj
 0001:000254e0       ?support@?$LocalConvex@VConvexHullV@Gu@physx@@@Gu@physx@@UEBA?AT__m128@@AEBT4@AEAH@Z 00000001800264e0 f i GuMTD.obj
 0001:000255b0       ?support@GjkConvex@Gu@physx@@UEBA?AT__m128@@AEBT4@@Z 00000001800265b0 f i GuMTD.obj
 0001:000255d0       ?support@GjkConvex@Gu@physx@@UEBA?AT__m128@@AEBT4@AEAH@Z 00000001800265d0 f i GuMTD.obj
 0001:000255f0       ?supportPoint@?$LocalConvex@VCapsuleV@Gu@physx@@@Gu@physx@@UEBA?AT__m128@@H@Z 00000001800265f0 f i GuMTD.obj
 0001:00025620       ?supportPoint@?$LocalConvex@VConvexHullV@Gu@physx@@@Gu@physx@@UEBA?AT__m128@@H@Z 0000000180026620 f i GuMTD.obj
 0001:00025670       ?supportPoint@GjkConvex@Gu@physx@@UEBA?AT__m128@@H@Z 0000000180026670 f i GuMTD.obj
 0001:00025690       ?supportPoint@?$RelativeConvex@VBoxV@Gu@physx@@@Gu@physx@@UEBA?AT__m128@@H@Z 0000000180026690 f i GuOverlapTests.obj
 0001:00025700       ?support@?$RelativeConvex@VBoxV@Gu@physx@@@Gu@physx@@UEBA?AT__m128@@AEBT4@@Z 0000000180026700 f i GuOverlapTests.obj
 0001:00025780       ?support@?$RelativeConvex@VBoxV@Gu@physx@@@Gu@physx@@UEBA?AT__m128@@AEBT4@AEAH@Z 0000000180026780 f i GuOverlapTests.obj
 0001:00025810       ?getCenter@?$RelativeConvex@UCustomConvexV@@@Gu@physx@@UEBA?AT__m128@@XZ 0000000180026810 f i GuGjkQuery.obj
 0001:00025810       ?getCenter@?$RelativeConvex@VBoxV@Gu@physx@@@Gu@physx@@UEBA?AT__m128@@XZ 0000000180026810 f i GuOverlapTests.obj
 0001:00025810       ?getCenter@?$RelativeConvex@VCapsuleV@Gu@physx@@@Gu@physx@@UEBA?AT__m128@@XZ 0000000180026810 f i GuCCDSweepPrimitives.obj
 0001:00025810       ?getCenter@?$RelativeConvex@VConvexHullNoScaleV@Gu@physx@@@Gu@physx@@UEBA?AT__m128@@XZ 0000000180026810 f i GuPCMContactConvexConvex.obj
 0001:00025810       ?getCenter@?$RelativeConvex@VConvexHullV@Gu@physx@@@Gu@physx@@UEBA?AT__m128@@XZ 0000000180026810 f i GuOverlapTests.obj
 0001:00025810       ?getCenter@?$RelativeConvex@VTriangleV@Gu@physx@@@Gu@physx@@UEBA?AT__m128@@XZ 0000000180026810 f i GuCCDSweepPrimitives.obj
 0001:00025850       ??_E?$RelativeConvex@UCustomConvexV@@@Gu@physx@@UEAAPEAXI@Z 0000000180026850 f i GuGjkQuery.obj
 0001:00025850       ??_E?$RelativeConvex@VBoxV@Gu@physx@@@Gu@physx@@UEAAPEAXI@Z 0000000180026850 f i GuOverlapTests.obj
 0001:00025850       ??_E?$RelativeConvex@VCapsuleV@Gu@physx@@@Gu@physx@@UEAAPEAXI@Z 0000000180026850 f i GuCCDSweepPrimitives.obj
 0001:00025850       ??_E?$RelativeConvex@VConvexHullNoScaleV@Gu@physx@@@Gu@physx@@UEAAPEAXI@Z 0000000180026850 f i GuPCMContactConvexConvex.obj
 0001:00025850       ??_E?$RelativeConvex@VConvexHullV@Gu@physx@@@Gu@physx@@UEAAPEAXI@Z 0000000180026850 f i GuOverlapTests.obj
 0001:00025850       ??_E?$RelativeConvex@VTriangleV@Gu@physx@@@Gu@physx@@UEAAPEAXI@Z 0000000180026850 f i GuCCDSweepPrimitives.obj
 0001:00025850       ??_G?$RelativeConvex@UCustomConvexV@@@Gu@physx@@UEAAPEAXI@Z 0000000180026850 f i GuGjkQuery.obj
 0001:00025850       ??_G?$RelativeConvex@VBoxV@Gu@physx@@@Gu@physx@@UEAAPEAXI@Z 0000000180026850 f i GuOverlapTests.obj
 0001:00025850       ??_G?$RelativeConvex@VCapsuleV@Gu@physx@@@Gu@physx@@UEAAPEAXI@Z 0000000180026850 f i GuCCDSweepPrimitives.obj
 0001:00025850       ??_G?$RelativeConvex@VConvexHullNoScaleV@Gu@physx@@@Gu@physx@@UEAAPEAXI@Z 0000000180026850 f i GuPCMContactConvexConvex.obj
 0001:00025850       ??_G?$RelativeConvex@VConvexHullV@Gu@physx@@@Gu@physx@@UEAAPEAXI@Z 0000000180026850 f i GuOverlapTests.obj
 0001:00025850       ??_G?$RelativeConvex@VTriangleV@Gu@physx@@@Gu@physx@@UEAAPEAXI@Z 0000000180026850 f i GuCCDSweepPrimitives.obj
 0001:000279d0       ?supportPoint@?$RelativeConvex@VConvexHullV@Gu@physx@@@Gu@physx@@UEBA?AT__m128@@H@Z 00000001800289d0 f i GuOverlapTests.obj
 0001:00027a50       ?support@?$RelativeConvex@VConvexHullV@Gu@physx@@@Gu@physx@@UEBA?AT__m128@@AEBT4@@Z 0000000180028a50 f i GuOverlapTests.obj
 0001:00027b80       ?support@?$RelativeConvex@VConvexHullV@Gu@physx@@@Gu@physx@@UEBA?AT__m128@@AEBT4@AEAH@Z 0000000180028b80 f i GuOverlapTests.obj
 0001:00027d10       ??$gjk@U?$RelativeConvex@VBoxV@Gu@physx@@@Gu@physx@@U?$LocalConvex@VConvexHullV@Gu@physx@@@23@@Gu@physx@@YA?AW4GjkStatus@01@AEBU?$RelativeConvex@VBoxV@Gu@physx@@@01@AEBU?$LocalConvex@VConvexHullV@Gu@physx@@@01@AEBT__m128@@2AEAT5@333@Z 0000000180028d10 f i GuOverlapTests.obj
 0001:00028ac0       ??$gjk@U?$RelativeConvex@VConvexHullV@Gu@physx@@@Gu@physx@@U?$LocalConvex@VConvexHullV@Gu@physx@@@23@@Gu@physx@@YA?AW4GjkStatus@01@AEBU?$RelativeConvex@VConvexHullV@Gu@physx@@@01@AEBU?$LocalConvex@VConvexHullV@Gu@physx@@@01@AEBT__m128@@2AEAT5@333@Z 0000000180029ac0 f i GuOverlapTests.obj
 0001:00029940       ?ComputeCubemapNearestOffset@physx@@YAIAEBV?$PxVec3T@M@1@I@Z 000000018002a940 f i GuOverlapTests.obj
 0001:00029a40       ?getOverlapFuncTable@Gu@physx@@YAPEAY0L@Q6A_NAEBVPxGeometry@2@AEBV?$PxTransformT@M@2@01PEAUTriggerCache@12@PEAUPxQueryThreadContext@2@@ZXZ 000000018002aa40 f   GuOverlapTests.obj
 0001:0002b600       ?raycast_box@@YAIAEBVPxGeometry@physx@@AEBV?$PxTransformT@M@2@AEBV?$PxVec3T@M@2@2MV?$PxFlags@W4Enum@PxHitFlag@physx@@G@2@IPEIAUPxGeomRaycastHit@2@IPEAUPxQueryThreadContext@2@@Z 000000018002c600 f   GuRaycastTests.obj
 0001:0002bc30       ?raycast_sphere@@YAIAEBVPxGeometry@physx@@AEBV?$PxTransformT@M@2@AEBV?$PxVec3T@M@2@2MV?$PxFlags@W4Enum@PxHitFlag@physx@@G@2@IPEIAUPxGeomRaycastHit@2@IPEAUPxQueryThreadContext@2@@Z 000000018002cc30 f   GuRaycastTests.obj
 0001:0002bdc0       ?raycast_capsule@@YAIAEBVPxGeometry@physx@@AEBV?$PxTransformT@M@2@AEBV?$PxVec3T@M@2@2MV?$PxFlags@W4Enum@PxHitFlag@physx@@G@2@IPEIAUPxGeomRaycastHit@2@IPEAUPxQueryThreadContext@2@@Z 000000018002cdc0 f   GuRaycastTests.obj
 0001:0002c320       ?raycast_plane@@YAIAEBVPxGeometry@physx@@AEBV?$PxTransformT@M@2@AEBV?$PxVec3T@M@2@2MV?$PxFlags@W4Enum@PxHitFlag@physx@@G@2@IPEIAUPxGeomRaycastHit@2@IPEAUPxQueryThreadContext@2@@Z 000000018002d320 f   GuRaycastTests.obj
 0001:0002c490       ?raycast_convexMesh@@YAIAEBVPxGeometry@physx@@AEBV?$PxTransformT@M@2@AEBV?$PxVec3T@M@2@2MV?$PxFlags@W4Enum@PxHitFlag@physx@@G@2@IPEIAUPxGeomRaycastHit@2@IPEAUPxQueryThreadContext@2@@Z 000000018002d490 f   GuRaycastTests.obj
 0001:0002cf90       ?getMidphaseID@RTreeTriangleMesh@Gu@physx@@UEBA?AW4Enum@PxMeshMidPhase@3@XZ 000000018002df90 f   GuTriangleMeshRTree.obj
 0001:0002cf90       ?getMidphaseID@RTreeTriangleMeshBuilder@physx@@UEBA?AW4Enum@PxMeshMidPhase@2@XZ 000000018002df90 f   GuCookingTriangleMesh.obj
 0001:0002cf90       ?getTetrahedraRemap@TetrahedronMesh@Gu@physx@@UEBAPEBIXZ 000000018002df90 f   GuTetrahedronMesh.obj
 0001:0002cf90       ?raycast_hairsystem@@YAIAEBVPxGeometry@physx@@AEBV?$PxTransformT@M@2@AEBV?$PxVec3T@M@2@2MV?$PxFlags@W4Enum@PxHitFlag@physx@@G@2@IPEIAUPxGeomRaycastHit@2@IPEAUPxQueryThreadContext@2@@Z 000000018002df90 f   GuRaycastTests.obj
 0001:0002cf90       ?raycast_particlesystem@@YAIAEBVPxGeometry@physx@@AEBV?$PxTransformT@M@2@AEBV?$PxVec3T@M@2@2MV?$PxFlags@W4Enum@PxHitFlag@physx@@G@2@IPEIAUPxGeomRaycastHit@2@IPEAUPxQueryThreadContext@2@@Z 000000018002df90 f   GuRaycastTests.obj
 0001:0002cf90       ?raycast_softbody@@YAIAEBVPxGeometry@physx@@AEBV?$PxTransformT@M@2@AEBV?$PxVec3T@M@2@2MV?$PxFlags@W4Enum@PxHitFlag@physx@@G@2@IPEIAUPxGeomRaycastHit@2@IPEAUPxQueryThreadContext@2@@Z 000000018002df90 f   GuRaycastTests.obj
 0001:0002cfa0       ?raycast_triangleMesh@@YAIAEBVPxGeometry@physx@@AEBV?$PxTransformT@M@2@AEBV?$PxVec3T@M@2@2MV?$PxFlags@W4Enum@PxHitFlag@physx@@G@2@IPEIAUPxGeomRaycastHit@2@IPEAUPxQueryThreadContext@2@@Z 000000018002dfa0 f   GuRaycastTests.obj
 0001:0002d030       ?raycast_heightField@@YAIAEBVPxGeometry@physx@@AEBV?$PxTransformT@M@2@AEBV?$PxVec3T@M@2@2MV?$PxFlags@W4Enum@PxHitFlag@physx@@G@2@IPEIAUPxGeomRaycastHit@2@IPEAUPxQueryThreadContext@2@@Z 000000018002e030 f   GuRaycastTests.obj
 0001:0002ea80       ??Dphysx@@YA?AV?$PxMat34T@M@0@AEBVPxMeshScale@0@AEBV?$PxTransformT@M@0@@Z 000000018002fa80 f i GuRaycastTests.obj
 0001:0002f570       ?getRaycastFuncTable@Gu@physx@@YAAEAY0L@Q6AIAEBVPxGeometry@2@AEBV?$PxTransformT@M@2@AEBV?$PxVec3T@M@2@2MV?$PxFlags@W4Enum@PxHitFlag@physx@@G@2@IPEIAUPxGeomRaycastHit@2@IPEAUPxQueryThreadContext@2@@ZXZ 0000000180030570 f   GuRaycastTests.obj
 0001:0002f580       ??Dphysx@@YA?AV?$PxMat34T@M@0@AEBV?$PxTransformT@M@0@AEBVPxMeshScale@0@@Z 0000000180030580 f i GuSweepMTD.obj
 0001:0002fad0       ??_E?$MeshHitCallback@UPxGeomRaycastHit@physx@@@Gu@physx@@UEAAPEAXI@Z 0000000180030ad0 f i GuSweepMTD.obj
 0001:0002fad0       ??_G?$MeshHitCallback@UPxGeomRaycastHit@physx@@@Gu@physx@@UEAAPEAXI@Z 0000000180030ad0 f i GuSweepMTD.obj
 0001:0002fb00       ??_EMeshMTDGenerationCallback@@UEAAPEAXI@Z 0000000180030b00 f i GuSweepMTD.obj
 0001:0002fb00       ??_GMeshMTDGenerationCallback@@UEAAPEAXI@Z 0000000180030b00 f i GuSweepMTD.obj
 0001:0002fb30       ??_EMidPhaseQueryLocalReport@@UEAAPEAXI@Z 0000000180030b30 f i GuSweepMTD.obj
 0001:0002fb30       ??_ERTreeCookerRemap@@UEAAPEAXI@Z 0000000180030b30 f i GuCookingTriangleMesh.obj
 0001:0002fb30       ??_GMidPhaseQueryLocalReport@@UEAAPEAXI@Z 0000000180030b30 f i GuSweepMTD.obj
 0001:0002fb30       ??_GRTreeCookerRemap@@UEAAPEAXI@Z 0000000180030b30 f i GuCookingTriangleMesh.obj
 0001:0002fb60       ?allocate@?$PxArray@IV?$PxReflectionAllocator@I@physx@@@physx@@IEAAPEAII@Z 0000000180030b60 f i GuSweepMTD.obj
 0001:0002fbf0       ?computeBox_HeightFieldMTD@Gu@physx@@YA_NAEBVPxHeightFieldGeometry@2@AEBV?$PxTransformT@M@2@AEBVBox@12@1M_NAEAUPxGeomSweepHit@2@@Z 0000000180030bf0 f   GuSweepMTD.obj
 0001:000309c0       ?computeBox_TriangleMeshMTD@Gu@physx@@YA_NAEBVPxTriangleMeshGeometry@2@AEBV?$PxTransformT@M@2@AEBVBox@12@1M_NAEAUPxGeomSweepHit@2@@Z 00000001800319c0 f   GuSweepMTD.obj
 0001:00031a30       ?computeCapsule_CapsuleMTD@Gu@physx@@YA_NAEBVCapsule@12@0AEAUPxGeomSweepHit@2@@Z 0000000180032a30 f   GuSweepMTD.obj
 0001:00031c70       ?computeCapsule_HeightFieldMTD@Gu@physx@@YA_NAEBVPxHeightFieldGeometry@2@AEBV?$PxTransformT@M@2@AEAVCapsuleV@12@M_NAEAUPxGeomSweepHit@2@@Z 0000000180032c70 f   GuSweepMTD.obj
 0001:00032440       ?computeCapsule_TriangleMeshMTD@Gu@physx@@YA_NAEBVPxTriangleMeshGeometry@2@AEBV?$PxTransformT@M@2@AEAVCapsuleV@12@M_NAEAUPxGeomSweepHit@2@@Z 0000000180033440 f   GuSweepMTD.obj
 0001:00032cf0       ?computeConvex_HeightFieldMTD@Gu@physx@@YA_NAEBVPxHeightFieldGeometry@2@AEBV?$PxTransformT@M@2@AEBVPxConvexMeshGeometry@2@1M_NAEAUPxGeomSweepHit@2@@Z 0000000180033cf0 f   GuSweepMTD.obj
 0001:00033fc0       ?computeConvex_TriangleMeshMTD@Gu@physx@@YA_NAEBVPxTriangleMeshGeometry@2@AEBV?$PxTransformT@M@2@AEBVPxConvexMeshGeometry@2@1M_NAEAUPxGeomSweepHit@2@@Z 0000000180034fc0 f   GuSweepMTD.obj
 0001:000355e0       ?computePlane_BoxMTD@Gu@physx@@YA_NAEBVPxPlane@2@AEBVBox@12@AEAUPxGeomSweepHit@2@@Z 00000001800365e0 f   GuSweepMTD.obj
 0001:00035880       ?computePlane_CapsuleMTD@Gu@physx@@YA_NAEBVPxPlane@2@AEBVCapsule@12@AEAUPxGeomSweepHit@2@@Z 0000000180036880 f   GuSweepMTD.obj
 0001:00035990       ?computePlane_ConvexMTD@Gu@physx@@YA_NAEBVPxPlane@2@AEBVPxConvexMeshGeometry@2@AEBV?$PxTransformT@M@2@AEAUPxGeomSweepHit@2@@Z 0000000180036990 f   GuSweepMTD.obj
 0001:00036550       ?computeSphere_CapsuleMTD@Gu@physx@@YA_NAEBVSphere@12@AEBVCapsule@12@AEAUPxGeomSweepHit@2@@Z 0000000180037550 f   GuSweepMTD.obj
 0001:00036700       ?computeSphere_SphereMTD@Gu@physx@@YA_NAEBVSphere@12@0AEAUPxGeomSweepHit@2@@Z 0000000180037700 f   GuSweepMTD.obj
 0001:000367f0       ?getInverse@?$PxMat33T@M@physx@@QEBA?BV12@XZ 00000001800377f0 f i GuSweepMTD.obj
 0001:00036a40       ?growAndPushBack@?$PxArray@IV?$PxReflectionAllocator@I@physx@@@physx@@IEAAAEAIAEBI@Z 0000000180037a40 f i GuSweepMTD.obj
 0001:00036b00       ?init@FastVertex2ShapeScaling@Cm@physx@@QEAAXAEBV?$PxVec3T@M@3@AEBV?$PxQuatT@M@3@@Z 0000000180037b00 f i GuSweepMTD.obj
 0001:00037410       ?processHit@MeshMTDGenerationCallback@@UEAA_NAEBUPxGeomRaycastHit@physx@@AEBV?$PxVec3T@M@3@11AEAMPEBI@Z 0000000180038410 f i GuSweepMTD.obj
 0001:00037460       ?recreate@?$PxArray@IV?$PxReflectionAllocator@I@physx@@@physx@@IEAAXI@Z 0000000180038460 f i GuSweepMTD.obj
 0001:00037500       ?reportTouchedTris@MidPhaseQueryLocalReport@@UEAA_NIPEBI@Z 0000000180038500 f i GuSweepMTD.obj
 0001:00037570       ??$gjkPenetration@U?$LocalConvex@VCapsuleV@Gu@physx@@@Gu@physx@@U?$LocalConvex@VConvexHullV@Gu@physx@@@23@@Gu@physx@@YA?AW4GjkStatus@01@AEBU?$LocalConvex@VCapsuleV@Gu@physx@@@01@AEBU?$LocalConvex@VConvexHullV@Gu@physx@@@01@AEBT__m128@@2_NPEIAE4AEAEAEAUGjkOutput@01@@Z 0000000180038570 f i GuSweepSharedTests.obj
 0001:000375e0       ??$gjkPenetration@U?$LocalConvex@VCapsuleV@Gu@physx@@@Gu@physx@@U?$LocalConvex@VConvexHullV@Gu@physx@@@23@@Gu@physx@@YA?AW4GjkStatus@01@AEBU?$LocalConvex@VCapsuleV@Gu@physx@@@01@AEBU?$LocalConvex@VConvexHullV@Gu@physx@@@01@AEBT__m128@@2_NPEIAE4PEIAT5@5AEAEAEAUGjkOutput@01@@Z 00000001800385e0 f i GuSweepSharedTests.obj
 0001:00038b10       ??$gjkPenetration@U?$RelativeConvex@VBoxV@Gu@physx@@@Gu@physx@@U?$LocalConvex@VConvexHullV@Gu@physx@@@23@@Gu@physx@@YA?AW4GjkStatus@01@AEBU?$RelativeConvex@VBoxV@Gu@physx@@@01@AEBU?$LocalConvex@VConvexHullV@Gu@physx@@@01@AEBT__m128@@2_NPEIAE4AEAEAEAUGjkOutput@01@@Z 0000000180039b10 f i GuSweepSharedTests.obj
 0001:00038b80       ??$gjkPenetration@U?$RelativeConvex@VBoxV@Gu@physx@@@Gu@physx@@U?$LocalConvex@VConvexHullV@Gu@physx@@@23@@Gu@physx@@YA?AW4GjkStatus@01@AEBU?$RelativeConvex@VBoxV@Gu@physx@@@01@AEBU?$LocalConvex@VConvexHullV@Gu@physx@@@01@AEBT__m128@@2_NPEIAE4PEIAT5@5AEAEAEAUGjkOutput@01@@Z 0000000180039b80 f i GuSweepSharedTests.obj
 0001:0003a100       ??$gjkPenetration@U?$RelativeConvex@VConvexHullV@Gu@physx@@@Gu@physx@@U?$LocalConvex@VConvexHullV@Gu@physx@@@23@@Gu@physx@@YA?AW4GjkStatus@01@AEBU?$RelativeConvex@VConvexHullV@Gu@physx@@@01@AEBU?$LocalConvex@VConvexHullV@Gu@physx@@@01@AEBT__m128@@2_NPEIAE4AEAEAEAUGjkOutput@01@@Z 000000018003b100 f i GuSweepSharedTests.obj
 0001:0003a170       ??$gjkPenetration@U?$RelativeConvex@VConvexHullV@Gu@physx@@@Gu@physx@@U?$LocalConvex@VConvexHullV@Gu@physx@@@23@@Gu@physx@@YA?AW4GjkStatus@01@AEBU?$RelativeConvex@VConvexHullV@Gu@physx@@@01@AEBU?$LocalConvex@VConvexHullV@Gu@physx@@@01@AEBT__m128@@2_NPEIAE4PEIAT5@5AEAEAEAUGjkOutput@01@@Z 000000018003b170 f i GuSweepSharedTests.obj
 0001:0003b7c0       ??$gjkRaycast@U?$LocalConvex@VCapsuleV@Gu@physx@@@Gu@physx@@U?$LocalConvex@VConvexHullV@Gu@physx@@@23@@Gu@physx@@YA_NAEBU?$LocalConvex@VCapsuleV@Gu@physx@@@01@AEBU?$LocalConvex@VConvexHullV@Gu@physx@@@01@AEBT__m128@@222AEAT4@33M@Z 000000018003c7c0 f i GuSweepSharedTests.obj
 0001:0003c510       ??$gjkRaycast@U?$RelativeConvex@VBoxV@Gu@physx@@@Gu@physx@@U?$LocalConvex@VConvexHullV@Gu@physx@@@23@@Gu@physx@@YA_NAEBU?$RelativeConvex@VBoxV@Gu@physx@@@01@AEBU?$LocalConvex@VConvexHullV@Gu@physx@@@01@AEBT__m128@@222AEAT4@33M@Z 000000018003d510 f i GuSweepSharedTests.obj
 0001:0003d300       ??$gjkRaycast@U?$RelativeConvex@VConvexHullV@Gu@physx@@@Gu@physx@@U?$LocalConvex@VConvexHullV@Gu@physx@@@23@@Gu@physx@@YA_NAEBU?$RelativeConvex@VConvexHullV@Gu@physx@@@01@AEBU?$LocalConvex@VConvexHullV@Gu@physx@@@01@AEBT__m128@@222AEAT4@33M@Z 000000018003e300 f i GuSweepSharedTests.obj
 0001:0003e0e0       ??$gjkRaycastPenetration@U?$RelativeConvex@VConvexHullV@Gu@physx@@@Gu@physx@@U?$LocalConvex@VConvexHullV@Gu@physx@@@23@@Gu@physx@@YA_NAEBU?$RelativeConvex@VConvexHullV@Gu@physx@@@01@AEBU?$LocalConvex@VConvexHullV@Gu@physx@@@01@AEBT__m128@@222AEAT4@33M_N@Z 000000018003f0e0 f i GuSweepSharedTests.obj
 0001:0003ecb0       ?sweepBox_ConvexGeom@@YA_NAEBVPxGeometry@physx@@AEBV?$PxTransformT@M@2@AEBVPxBoxGeometry@2@1AEBVBox@Gu@2@AEBV?$PxVec3T@M@2@MAEAUPxGeomSweepHit@2@V?$PxFlags@W4Enum@PxHitFlag@physx@@G@2@MPEAUPxQueryThreadContext@2@@Z 000000018003fcb0 f   GuSweepSharedTests.obj
 0001:0003fad0       ?sweepBox_PlaneGeom@@YA_NAEBVPxGeometry@physx@@AEBV?$PxTransformT@M@2@AEBVPxBoxGeometry@2@1AEBVBox@Gu@2@AEBV?$PxVec3T@M@2@MAEAUPxGeomSweepHit@2@V?$PxFlags@W4Enum@PxHitFlag@physx@@G@2@MPEAUPxQueryThreadContext@2@@Z 0000000180040ad0 f   GuSweepSharedTests.obj
 0001:0003fec0       ?sweepCapsuleTriangles@Gu@physx@@YA_NIPEBVPxTriangle@2@_NAEBVPxCapsuleGeometry@2@AEBV?$PxTransformT@M@2@AEBV?$PxVec3T@M@2@MAEAUPxGeomSweepHit@2@PEBIMV?$PxFlags@W4Enum@PxHitFlag@physx@@G@2@@Z 0000000180040ec0 f   GuSweepSharedTests.obj
 0001:000400b0       ?sweepCapsule_CapsuleGeom@@YA_NAEBVPxGeometry@physx@@AEBV?$PxTransformT@M@2@AEBVPxCapsuleGeometry@2@1AEBVCapsule@Gu@2@AEBV?$PxVec3T@M@2@MAEAUPxGeomSweepHit@2@V?$PxFlags@W4Enum@PxHitFlag@physx@@G@2@MPEAUPxQueryThreadContext@2@@Z 00000001800410b0 f   GuSweepSharedTests.obj
 0001:00040290       ?sweepCapsule_ConvexGeom@@YA_NAEBVPxGeometry@physx@@AEBV?$PxTransformT@M@2@AEBVPxCapsuleGeometry@2@1AEBVCapsule@Gu@2@AEBV?$PxVec3T@M@2@MAEAUPxGeomSweepHit@2@V?$PxFlags@W4Enum@PxHitFlag@physx@@G@2@MPEAUPxQueryThreadContext@2@@Z 0000000180041290 f   GuSweepSharedTests.obj
 0001:00040fc0       ?sweepCapsule_PlaneGeom@@YA_NAEBVPxGeometry@physx@@AEBV?$PxTransformT@M@2@AEBVPxCapsuleGeometry@2@1AEBVCapsule@Gu@2@AEBV?$PxVec3T@M@2@MAEAUPxGeomSweepHit@2@V?$PxFlags@W4Enum@PxHitFlag@physx@@G@2@MPEAUPxQueryThreadContext@2@@Z 0000000180041fc0 f   GuSweepSharedTests.obj
 0001:000412a0       ?sweepCapsule_SphereGeom@@YA_NAEBVPxGeometry@physx@@AEBV?$PxTransformT@M@2@AEBVPxCapsuleGeometry@2@1AEBVCapsule@Gu@2@AEBV?$PxVec3T@M@2@MAEAUPxGeomSweepHit@2@V?$PxFlags@W4Enum@PxHitFlag@physx@@G@2@MPEAUPxQueryThreadContext@2@@Z 00000001800422a0 f   GuSweepSharedTests.obj
 0001:00041440       ?sweepConvex_BoxGeom@@YA_NAEBVPxGeometry@physx@@AEBV?$PxTransformT@M@2@AEBVPxConvexMeshGeometry@2@1AEBV?$PxVec3T@M@2@MAEAUPxGeomSweepHit@2@V?$PxFlags@W4Enum@PxHitFlag@physx@@G@2@MPEAUPxQueryThreadContext@2@@Z 0000000180042440 f   GuSweepSharedTests.obj
 0001:00041660       ?sweepConvex_CapsuleGeom@@YA_NAEBVPxGeometry@physx@@AEBV?$PxTransformT@M@2@AEBVPxConvexMeshGeometry@2@1AEBV?$PxVec3T@M@2@MAEAUPxGeomSweepHit@2@V?$PxFlags@W4Enum@PxHitFlag@physx@@G@2@MPEAUPxQueryThreadContext@2@@Z 0000000180042660 f   GuSweepSharedTests.obj
 0001:00041890       ?sweepConvex_ConvexGeom@@YA_NAEBVPxGeometry@physx@@AEBV?$PxTransformT@M@2@AEBVPxConvexMeshGeometry@2@1AEBV?$PxVec3T@M@2@MAEAUPxGeomSweepHit@2@V?$PxFlags@W4Enum@PxHitFlag@physx@@G@2@MPEAUPxQueryThreadContext@2@@Z 0000000180042890 f   GuSweepSharedTests.obj
 0001:00042870       ?sweepConvex_PlaneGeom@@YA_NAEBVPxGeometry@physx@@AEBV?$PxTransformT@M@2@AEBVPxConvexMeshGeometry@2@1AEBV?$PxVec3T@M@2@MAEAUPxGeomSweepHit@2@V?$PxFlags@W4Enum@PxHitFlag@physx@@G@2@MPEAUPxQueryThreadContext@2@@Z 0000000180043870 f   GuSweepSharedTests.obj
 0001:00042cb0       ?sweepConvex_SphereGeom@@YA_NAEBVPxGeometry@physx@@AEBV?$PxTransformT@M@2@AEBVPxConvexMeshGeometry@2@1AEBV?$PxVec3T@M@2@MAEAUPxGeomSweepHit@2@V?$PxFlags@W4Enum@PxHitFlag@physx@@G@2@MPEAUPxQueryThreadContext@2@@Z 0000000180043cb0 f   GuSweepSharedTests.obj
 0001:000438c0       ?sweepCapsule_BoxGeom@@YA_NAEBVPxGeometry@physx@@AEBV?$PxTransformT@M@2@AEBVPxCapsuleGeometry@2@1AEBVCapsule@Gu@2@AEBV?$PxVec3T@M@2@MAEAUPxGeomSweepHit@2@V?$PxFlags@W4Enum@PxHitFlag@physx@@G@2@MPEAUPxQueryThreadContext@2@@Z 00000001800448c0 f   GuSweepTests.obj
 0001:00044180       ?sweepBox_SphereGeom@@YA_NAEBVPxGeometry@physx@@AEBV?$PxTransformT@M@2@AEBVPxBoxGeometry@2@1AEBVBox@Gu@2@AEBV?$PxVec3T@M@2@MAEAUPxGeomSweepHit@2@V?$PxFlags@W4Enum@PxHitFlag@physx@@G@2@MPEAUPxQueryThreadContext@2@@Z 0000000180045180 f   GuSweepTests.obj
 0001:00044860       ?sweepBox_CapsuleGeom@@YA_NAEBVPxGeometry@physx@@AEBV?$PxTransformT@M@2@AEBVPxBoxGeometry@2@1AEBVBox@Gu@2@AEBV?$PxVec3T@M@2@MAEAUPxGeomSweepHit@2@V?$PxFlags@W4Enum@PxHitFlag@physx@@G@2@MPEAUPxQueryThreadContext@2@@Z 0000000180045860 f   GuSweepTests.obj
 0001:00045130       ?sweepBox_BoxGeom@@YA_NAEBVPxGeometry@physx@@AEBV?$PxTransformT@M@2@AEBVPxBoxGeometry@2@1AEBVBox@Gu@2@AEBV?$PxVec3T@M@2@MAEAUPxGeomSweepHit@2@V?$PxFlags@W4Enum@PxHitFlag@physx@@G@2@MPEAUPxQueryThreadContext@2@@Z 0000000180046130 f   GuSweepTests.obj
 0001:00045b30       ??$gjkPenetration@U?$LocalConvex@VCapsuleV@Gu@physx@@@Gu@physx@@U?$LocalConvex@VBoxV@Gu@physx@@@23@@Gu@physx@@YA?AW4GjkStatus@01@AEBU?$LocalConvex@VCapsuleV@Gu@physx@@@01@AEBU?$LocalConvex@VBoxV@Gu@physx@@@01@AEBT__m128@@2_NPEIAE4AEAEAEAUGjkOutput@01@@Z 0000000180046b30 f i GuSweepTests.obj
 0001:00045ba0       ??$gjkPenetration@U?$LocalConvex@VCapsuleV@Gu@physx@@@Gu@physx@@U?$LocalConvex@VBoxV@Gu@physx@@@23@@Gu@physx@@YA?AW4GjkStatus@01@AEBU?$LocalConvex@VCapsuleV@Gu@physx@@@01@AEBU?$LocalConvex@VBoxV@Gu@physx@@@01@AEBT__m128@@2_NPEIAE4PEIAT5@5AEAEAEAUGjkOutput@01@@Z 0000000180046ba0 f i GuSweepTests.obj
 0001:00047020       ??$gjkPenetration@U?$RelativeConvex@VBoxV@Gu@physx@@@Gu@physx@@U?$LocalConvex@VBoxV@Gu@physx@@@23@@Gu@physx@@YA?AW4GjkStatus@01@AEBU?$RelativeConvex@VBoxV@Gu@physx@@@01@AEBU?$LocalConvex@VBoxV@Gu@physx@@@01@AEBT__m128@@2_NPEIAE4AEAEAEAUGjkOutput@01@@Z 0000000180048020 f i GuSweepTests.obj
 0001:00047090       ??$gjkPenetration@U?$RelativeConvex@VBoxV@Gu@physx@@@Gu@physx@@U?$LocalConvex@VBoxV@Gu@physx@@@23@@Gu@physx@@YA?AW4GjkStatus@01@AEBU?$RelativeConvex@VBoxV@Gu@physx@@@01@AEBU?$LocalConvex@VBoxV@Gu@physx@@@01@AEBT__m128@@2_NPEIAE4PEIAT5@5AEAEAEAUGjkOutput@01@@Z 0000000180048090 f i GuSweepTests.obj
 0001:00048540       ??$gjkRaycast@U?$LocalConvex@VCapsuleV@Gu@physx@@@Gu@physx@@U?$LocalConvex@VBoxV@Gu@physx@@@23@@Gu@physx@@YA_NAEBU?$LocalConvex@VCapsuleV@Gu@physx@@@01@AEBU?$LocalConvex@VBoxV@Gu@physx@@@01@AEBT__m128@@222AEAT4@33M@Z 0000000180049540 f i GuSweepTests.obj
 0001:00049110       ??$gjkRaycast@U?$LocalConvex@VTriangleV@Gu@physx@@@Gu@physx@@U?$LocalConvex@VBoxV@Gu@physx@@@23@@Gu@physx@@YA_NAEBU?$LocalConvex@VTriangleV@Gu@physx@@@01@AEBU?$LocalConvex@VBoxV@Gu@physx@@@01@AEBT__m128@@222AEAT4@33M@Z 000000018004a110 f i GuSweepTests.obj
 0001:00049d60       ??$gjkRaycast@U?$RelativeConvex@VBoxV@Gu@physx@@@Gu@physx@@U?$LocalConvex@VBoxV@Gu@physx@@@23@@Gu@physx@@YA_NAEBU?$RelativeConvex@VBoxV@Gu@physx@@@01@AEBU?$LocalConvex@VBoxV@Gu@physx@@@01@AEBT__m128@@222AEAT4@33M@Z 000000018004ad60 f i GuSweepTests.obj
 0001:0004a990       ?getSweepFuncTable@Gu@physx@@YAAEBUGeomSweepFuncs@12@XZ 000000018004b990 f   GuSweepTests.obj
 0001:0004a9a0       ?getSweepMargin@?$LocalConvex@VTetrahedronV@Gu@physx@@@Gu@physx@@UEBA?AT__m128@@XZ 000000018004b9a0 f i GuCookingTetrahedronMesh.obj
 0001:0004a9a0       ?getSweepMargin@?$LocalConvex@VTriangleV@Gu@physx@@@Gu@physx@@UEBA?AT__m128@@XZ 000000018004b9a0 f i GuSweepTests.obj
 0001:0004a9a0       ?getSweepMargin@?$RelativeConvex@VTriangleV@Gu@physx@@@Gu@physx@@UEBA?AT__m128@@XZ 000000018004b9a0 f i GuCCDSweepPrimitives.obj
 0001:0004a9b0       ?support@?$LocalConvex@VBoxV@Gu@physx@@@Gu@physx@@UEBA?AT__m128@@AEBT4@@Z 000000018004b9b0 f i GuSweepTests.obj
 0001:0004a9e0       ?support@?$LocalConvex@VBoxV@Gu@physx@@@Gu@physx@@UEBA?AT__m128@@AEBT4@AEAH@Z 000000018004b9e0 f i GuSweepTests.obj
 0001:0004aa20       ?support@?$LocalConvex@VTriangleV@Gu@physx@@@Gu@physx@@UEBA?AT__m128@@AEBT4@@Z 000000018004ba20 f i GuSweepTests.obj
 0001:0004aab0       ?support@?$LocalConvex@VTriangleV@Gu@physx@@@Gu@physx@@UEBA?AT__m128@@AEBT4@AEAH@Z 000000018004bab0 f i GuSweepTests.obj
 0001:0004ab90       ?supportPoint@?$LocalConvex@VBoxV@Gu@physx@@@Gu@physx@@UEBA?AT__m128@@H@Z 000000018004bb90 f i GuSweepTests.obj
 0001:0004abd0       ?supportPoint@?$LocalConvex@VTetrahedronV@Gu@physx@@@Gu@physx@@UEBA?AT__m128@@H@Z 000000018004bbd0 f i GuCookingTetrahedronMesh.obj
 0001:0004abd0       ?supportPoint@?$LocalConvex@VTriangleV@Gu@physx@@@Gu@physx@@UEBA?AT__m128@@H@Z 000000018004bbd0 f i GuSweepTests.obj
 0001:0004abf0       ?sweepBoxTriangles@Gu@physx@@YA_NIPEBVPxTriangle@2@_NAEBVPxBoxGeometry@2@AEBV?$PxTransformT@M@2@AEBV?$PxVec3T@M@2@MAEAUPxGeomSweepHit@2@PEBIMV?$PxFlags@W4Enum@PxHitFlag@physx@@G@2@@Z 000000018004bbf0 f   GuSweepTests.obj
 0001:0004b670       ??$PxSmallSort@H$$CBU?$Comparer@V?$PxVec3T@M@physx@@@MeshAnalyzer@Gu@physx@@@physx@@YAXPEAHHHAEBU?$Comparer@V?$PxVec3T@M@physx@@@MeshAnalyzer@Gu@0@@Z 000000018004c670 f i GuSDF.obj
 0001:0004b890       ??$PxSort@HU?$Comparer@V?$PxVec3T@M@physx@@@MeshAnalyzer@Gu@physx@@V?$PxReflectionAllocator@H@4@@physx@@YAXPEAHIAEBU?$Comparer@V?$PxVec3T@M@physx@@@MeshAnalyzer@Gu@0@AEBV?$PxReflectionAllocator@H@0@I@Z 000000018004c890 f i GuSDF.obj
 0001:0004bd10       ??$PxSort@HU?$PxLess@H@physx@@V?$PxReflectionAllocator@H@2@@physx@@YAXPEAHIAEBU?$PxLess@H@0@AEBV?$PxReflectionAllocator@H@0@I@Z 000000018004cd10 f i GuSDF.obj
 0001:0004c160       ??$mapDuplicatePoints@V?$PxVec3T@M@physx@@M@MeshAnalyzer@Gu@physx@@SAXPEBV?$PxVec3T@M@2@IAEAV?$PxArray@HV?$PxReflectionAllocator@H@physx@@@2@M@Z 000000018004d160 f i GuSDF.obj
 0001:0004c4e0       ??$splitRanges@V?$PxVec3T@M@physx@@M@MeshAnalyzer@Gu@physx@@CAXAEAV?$PxArray@URange@MeshAnalyzer@Gu@physx@@V?$PxReflectionAllocator@URange@MeshAnalyzer@Gu@physx@@@4@@2@AEBV?$PxArray@HV?$PxReflectionAllocator@H@physx@@@2@PEBV?$PxVec3T@M@2@HM@Z 000000018004d4e0 f i GuSDF.obj
 0001:0004c770       ??$traverseBVH@VClosestDistanceToTrimeshTraversalController@Gu@physx@@@Gu@physx@@YAXPEBUBVHNode@01@AEAVClosestDistanceToTrimeshTraversalController@01@H@Z 000000018004d770 f i GuSDF.obj
 0001:0004cb70       ??$traverseBVH@VLineSegmentTrimeshIntersectionTraversalController@Gu@physx@@@Gu@physx@@YAXPEBUBVHNode@01@AEAVLineSegmentTrimeshIntersectionTraversalController@01@H@Z 000000018004db70 f i GuSDF.obj
 0001:0004d070       ??1SDF@Gu@physx@@QEAA@XZ   000000018004e070 f   GuSDF.obj
 0001:0004d100       ??_E?$PxThreadT@V?$PxReflectionAllocator@VPxThreadImpl@physx@@@physx@@@physx@@UEAAPEAXI@Z 000000018004e100 f i GuSDF.obj
 0001:0004d100       ??_G?$PxThreadT@V?$PxReflectionAllocator@VPxThreadImpl@physx@@@physx@@@physx@@UEAAPEAXI@Z 000000018004e100 f i GuSDF.obj
 0001:0004d1b0       ??_EPxRunnable@physx@@UEAAPEAXI@Z 000000018004e1b0 f i GuSDF.obj
 0001:0004d1b0       ??_GPxRunnable@physx@@UEAAPEAXI@Z 000000018004e1b0 f i GuSDF.obj
 0001:0004d1e0       ?PxCreatePointOntoTriangleMeshProjector@Gu@physx@@YAPEAVPxPointOntoTriangleMeshProjector@12@PEBV?$PxVec3T@M@2@PEBII@Z 000000018004e1e0 f   GuSDF.obj
 0001:0004d2e0       ?SDFUsingWindingNumbers@Gu@physx@@YAXAEAV?$PxArray@UBVHNode@Gu@physx@@V?$PxReflectionAllocator@UBVHNode@Gu@physx@@@3@@2@AEAV?$PxHashMap@IU?$ClusterApproximationT@MV?$PxVec3T@M@physx@@@Gu@physx@@U?$PxHash@I@3@VPxAllocator@3@@2@PEBV?$PxVec3T@M@2@PEBIIIIIPEAMAEAUGridQueryPointSampler@12@PEAV52@I_N7@Z 000000018004e2e0 f   GuSDF.obj
 0001:0004d800       ?SDFUsingWindingNumbers@Gu@physx@@YAXPEBV?$PxVec3T@M@2@PEBIIIIIPEAMV32@3PEAV32@_NIPEAVPxSDFBuilder@2@@Z 000000018004e800 f   GuSDF.obj
 0001:0004dce0       ?SDFUsingWindingNumbersSparse@Gu@physx@@YAXPEBV?$PxVec3T@M@2@PEBIIIIIAEBV32@2MIAEAV?$PxArray@MV?$PxReflectionAllocator@M@physx@@@2@AEAV?$PxArray@IV?$PxReflectionAllocator@I@physx@@@2@33AEAM5IPEAVPxSDFBuilder@2@@Z 000000018004ece0 f   GuSDF.obj
 0001:0004e770       ?allocate@?$PxArray@HV?$PxInlineAllocator@$0EAA@V?$PxReflectionAllocator@H@physx@@@physx@@@physx@@IEAAPEAHI@Z 000000018004f770 f i GuSDF.obj
 0001:0004e830       ?allocate@?$PxArray@MV?$PxReflectionAllocator@M@physx@@@physx@@IEAAPEAMI@Z 000000018004f830 f i GuSDF.obj
 0001:0004e8c0       ?allocateSdfs@SDF@Gu@physx@@QEAAPEAMAEBV?$PxVec3T@M@3@AEBMIIIIIIIMMI@Z 000000018004f8c0 f   GuSDF.obj
 0001:0004ead0       ?analyzeAndFixMesh@Gu@physx@@YAXPEBV?$PxVec3T@M@2@PEBIIAEAV?$PxArray@IV?$PxReflectionAllocator@I@physx@@@2@@Z 000000018004fad0 f   GuSDF.obj
 0001:0004f330       ?buildTree@Gu@physx@@YAXPEBIIPEBV?$PxVec3T@M@2@AEAV?$PxArray@UBVHNode@Gu@physx@@V?$PxReflectionAllocator@UBVHNode@Gu@physx@@@3@@2@M@Z 0000000180050330 f   GuSDF.obj
 0001:0004f560       ?computeSDFThreadJob@Gu@physx@@YAPEAXPEAX@Z 0000000180050560 f   GuSDF.obj
 0001:00050020       ?convertSparseSDFTo3DTextureLayout@Gu@physx@@YAXIIIIPEAIPEBMIAEAV?$PxArray@MV?$PxReflectionAllocator@M@physx@@@2@AEAI33@Z 0000000180051020 f   GuSDF.obj
 0001:000503d0       ?create@?$PxHashBase@V?$PxPair@$$CBUSortedTriangle@Gu@physx@@H@physx@@USortedTriangle@Gu@2@UTriangleHash@42@UGetKey@?$PxHashMapBase@USortedTriangle@Gu@physx@@HUTriangleHash@23@VPxAllocator@3@@2@VPxAllocator@2@$00@physx@@QEAAPEAV?$PxPair@$$CBUSortedTriangle@Gu@physx@@H@2@AEBUSortedTriangle@Gu@2@AEA_N@Z 00000001800513d0 f i GuSDF.obj
 0001:00050500       ?create@?$PxHashBase@V?$PxPair@$$CB_KH@physx@@_KU?$PxHash@_K@2@UGetKey@?$PxHashMapBase@_KHU?$PxHash@_K@physx@@VPxAllocator@2@@2@VPxAllocator@2@$00@physx@@QEAAPEAV?$PxPair@$$CB_KH@2@AEB_KAEA_N@Z 0000000180051500 f i GuMeshAnalysis.obj
 0001:00050500       ?create@?$PxHashBase@V?$PxPair@$$CB_KI@physx@@_KU?$PxHash@_K@2@UGetKey@?$PxHashMapBase@_KIU?$PxHash@_K@physx@@VPxAllocator@2@@2@VPxAllocator@2@$00@physx@@QEAAPEAV?$PxPair@$$CB_KI@2@AEB_KAEA_N@Z 0000000180051500 f i GuSDF.obj
 0001:00050690       ?createTriangles@Gu@physx@@YAXHHHMQEAMAEBV?$PxHashMap@_KIU?$PxHash@_K@physx@@VPxAllocator@2@@2@AEBV?$PxArray@V?$PxVec3T@M@physx@@V?$PxReflectionAllocator@V?$PxVec3T@M@physx@@@2@@2@AEAV?$PxArray@IV?$PxReflectionAllocator@I@physx@@@2@@Z 0000000180051690 f   GuSDF.obj
 0001:00050ef0       ?decodeDense@SDF@Gu@physx@@QEBAMHHH@Z 0000000180051ef0 f   GuSDF.obj
 0001:00050f40       ?decodeSparse@SDF@Gu@physx@@QEBAMHHH@Z 0000000180051f40 f   GuSDF.obj
 0001:000511e0       ?extractIsosurfaceFromSDF@Gu@physx@@YAXAEBVSDF@12@AEAV?$PxArray@V?$PxVec3T@M@physx@@V?$PxReflectionAllocator@V?$PxVec3T@M@physx@@@2@@2@AEAV?$PxArray@IV?$PxReflectionAllocator@I@physx@@@2@@Z 00000001800521e0 f   GuSDF.obj
 0001:00051f40       ?fixSdfForNonClosedGeometry@Gu@physx@@YAXIIIPEAMAEBV?$PxVec3T@M@2@@Z 0000000180052f40 f   GuSDF.obj
 0001:00053020       ?generatePointInCell@Gu@physx@@YA_NAEBVSDF@12@HHHAEAV?$PxVec3T@M@2@QEAY111M@Z 0000000180054020 f   GuSDF.obj
 0001:00053470       ?growAndPushBack@?$PxArray@HV?$PxInlineAllocator@$0EAA@V?$PxReflectionAllocator@H@physx@@@physx@@@physx@@IEAAAEAHAEBH@Z 0000000180054470 f i GuSDF.obj
 0001:00053560       ?growAndPushBack@?$PxArray@MV?$PxReflectionAllocator@M@physx@@@physx@@IEAAAEAMAEBM@Z 0000000180054560 f i GuSDF.obj
 0001:00053640       ?growAndPushBack@?$PxArray@PEAV?$PxThreadT@V?$PxReflectionAllocator@VPxThreadImpl@physx@@@physx@@@physx@@V?$PxReflectionAllocator@PEAV?$PxThreadT@V?$PxReflectionAllocator@VPxThreadImpl@physx@@@physx@@@physx@@@2@@physx@@IEAAAEAPEAV?$PxThreadT@V?$PxReflectionAllocator@VPxThreadImpl@physx@@@physx@@@2@AEBQEAV32@@Z 0000000180054640 f i GuSDF.obj
 0001:00053760       ?growAndPushBack@?$PxArray@UMutation@Gu@physx@@V?$PxReflectionAllocator@UMutation@Gu@physx@@@3@@physx@@IEAAAEAUMutation@Gu@2@AEBU342@@Z 0000000180054760 f i GuSDF.obj
 0001:00053880       ?growAndPushBack@?$PxArray@URange@Gu@physx@@V?$PxReflectionAllocator@URange@Gu@physx@@@3@@physx@@IEAAAEAURange@Gu@2@AEBU342@@Z 0000000180054880 f i GuSDF.obj
 0001:000539b0       ?growAndPushBack@?$PxArray@URange@MeshAnalyzer@Gu@physx@@V?$PxReflectionAllocator@URange@MeshAnalyzer@Gu@physx@@@4@@physx@@IEAAAEAURange@MeshAnalyzer@Gu@2@AEBU3452@@Z 00000001800549b0 f i GuSDF.obj
 0001:00053ad0       ?growAndPushBack@?$PxArray@USDFCalculationData@Gu@physx@@V?$PxReflectionAllocator@USDFCalculationData@Gu@physx@@@3@@physx@@IEAAAEAUSDFCalculationData@Gu@2@AEBU342@@Z 0000000180054ad0 f i GuSDF.obj
 0001:00053c50       ?growAndPushBack@?$PxArray@V?$PxVec3T@M@physx@@V?$PxReflectionAllocator@V?$PxVec3T@M@physx@@@2@@physx@@IEAAAEAV?$PxVec3T@M@2@AEBV32@@Z 0000000180054c50 f i GuSDF.obj
 0001:00053e30       ?projectPoint@PointOntoTriangleMeshProjector@Gu@physx@@UEAA?AV?$PxVec3T@M@3@AEBV43@@Z 0000000180054e30 f i GuSDF.obj
 0001:00053ea0       ?projectPoint@PointOntoTriangleMeshProjector@Gu@physx@@UEAA?AV?$PxVec3T@M@3@AEBV43@AEAI@Z 0000000180054ea0 f i GuSDF.obj
 0001:00053f20       ?recreate@?$PxArray@HV?$PxReflectionAllocator@H@physx@@@physx@@IEAAXI@Z 0000000180054f20 f i GuSDF.obj
 0001:00054010       ?recreate@?$PxArray@MV?$PxReflectionAllocator@M@physx@@@physx@@IEAAXI@Z 0000000180055010 f i GuSDF.obj
 0001:000540f0       ?recreate@?$PxArray@UBVHNode@Gu@physx@@V?$PxReflectionAllocator@UBVHNode@Gu@physx@@@3@@physx@@IEAAXI@Z 00000001800550f0 f i GuSDF.obj
 0001:00054330       ?release@PointOntoTriangleMeshProjector@Gu@physx@@UEAAXXZ 0000000180055330 f i GuSDF.obj
 0001:00054380       ?reserveInternal@?$PxHashBase@V?$PxPair@$$CBIU?$ClusterApproximationT@MV?$PxVec3T@M@physx@@@Gu@physx@@@physx@@IU?$PxHash@I@2@UGetKey@?$PxHashMapBase@IU?$ClusterApproximationT@MV?$PxVec3T@M@physx@@@Gu@physx@@U?$PxHash@I@3@VPxAllocator@3@@2@VPxAllocator@2@$00@physx@@AEAAXI@Z 0000000180055380 f i GuSDF.obj
 0001:00054580       ?reserveInternal@?$PxHashBase@V?$PxPair@$$CBUSortedTriangle@Gu@physx@@H@physx@@USortedTriangle@Gu@2@UTriangleHash@42@UGetKey@?$PxHashMapBase@USortedTriangle@Gu@physx@@HUTriangleHash@23@VPxAllocator@3@@2@VPxAllocator@2@$00@physx@@AEAAXI@Z 0000000180055580 f i GuSDF.obj
 0001:00054720       ?reserveInternal@?$PxHashBase@V?$PxPair@$$CB_KH@physx@@_KU?$PxHash@_K@2@UGetKey@?$PxHashMapBase@_KHU?$PxHash@_K@physx@@VPxAllocator@2@@2@VPxAllocator@2@$00@physx@@AEAAXI@Z 0000000180055720 f i GuSDF.obj
 0001:00054720       ?reserveInternal@?$PxHashBase@V?$PxPair@$$CB_KI@physx@@_KU?$PxHash@_K@2@UGetKey@?$PxHashMapBase@_KIU?$PxHash@_K@physx@@VPxAllocator@2@@2@VPxAllocator@2@$00@physx@@AEAAXI@Z 0000000180055720 f i GuSDF.obj
 0001:00054900       ?resize@?$PxArray@IV?$PxReflectionAllocator@I@physx@@@physx@@QEAAXIAEBI@Z 0000000180055900 f i GuSDF.obj
 0001:000549c0       ?resize@?$PxArray@MV?$PxReflectionAllocator@M@physx@@@physx@@QEAAXIAEBM@Z 00000001800559c0 f i GuSDF.obj
 0001:00054ad0       ?resize@?$PxArray@UBVHNode@Gu@physx@@V?$PxReflectionAllocator@UBVHNode@Gu@physx@@@3@@physx@@QEAAXIAEBUBVHNode@Gu@2@@Z 0000000180055ad0 f i GuSDF.obj
 0001:00054c50       ?sampleSDFDirect@DenseSDF@Gu@physx@@QEAAMAEBV?$PxVec3T@M@3@@Z 0000000180055c50 f i GuSDF.obj
 0001:00054df0       ?signedVolume@Gu@physx@@YAMPEBV?$PxVec3T@M@2@PEBII1I@Z 0000000180055df0 f   GuSDF.obj
 0001:00055330       ?windingNumbers@Gu@physx@@YAXPEBV?$PxVec3T@M@2@PEBIIIIIPEAMV32@3PEAV32@@Z 0000000180056330 f   GuSDF.obj
 0001:00055780       ?windingNumbersInsideCheck@Gu@physx@@YAXPEBV?$PxVec3T@M@2@PEBIIIIIPEA_NV32@3PEAV32@@Z 0000000180056780 f   GuSDF.obj
 0001:00056150       ??0MeshData@physx@@QEAA@AEBVPxTriangleMeshDesc@1@@Z 0000000180057150 f i GuCookingSDF.obj
 0001:00056230       ?GetBounds@MeshData@physx@@QEBAXAEAV?$PxVec3T@M@2@0@Z 0000000180057230 f i GuCookingSDF.obj
 0001:000564d0       ?buildSDF@physx@@YA_NAEAVPxTriangleMeshDesc@1@AEAV?$PxArray@MV?$PxReflectionAllocator@M@physx@@@1@AEAV?$PxArray@EV?$PxReflectionAllocator@E@physx@@@1@AEAV?$PxArray@IV?$PxReflectionAllocator@I@physx@@@1@@Z 00000001800574d0 f   GuCookingSDF.obj
 0001:00056510       ?convert16To32Bits@physx@@YAXVPxSimpleTriangleMesh@1@AEAV?$PxArray@IV?$PxReflectionAllocator@I@physx@@@1@@Z 0000000180057510 f   GuCookingSDF.obj
 0001:00057530       ?quantizeSparseSDF@physx@@YAXW4Enum@PxSdfBitsPerSubgridPixel@1@AEBV?$PxArray@MV?$PxReflectionAllocator@M@physx@@@1@AEAV?$PxArray@EV?$PxReflectionAllocator@E@physx@@@1@MM@Z 0000000180058530 f   GuCookingSDF.obj
 0001:00057610       ?recreate@?$PxArray@EV?$PxReflectionAllocator@E@physx@@@physx@@IEAAXI@Z 0000000180058610 f i GuCookingSDF.obj
 0001:00057700       ?recreate@?$PxArray@V?$PxVec3T@M@physx@@V?$PxReflectionAllocator@V?$PxVec3T@M@physx@@@2@@physx@@IEAAXI@Z 0000000180058700 f i GuCookingSDF.obj
 0001:000578a0       ?resize@?$PxArray@EV?$PxReflectionAllocator@E@physx@@@physx@@QEAAXIAEBE@Z 00000001800588a0 f i GuCookingSDF.obj
 0001:00057960       ?resize@?$PxArray@V?$PxVec3T@M@physx@@V?$PxReflectionAllocator@V?$PxVec3T@M@physx@@@2@@physx@@QEAAXIAEBV?$PxVec3T@M@2@@Z 0000000180058960 f i GuCookingSDF.obj
 0001:00057a50       ??$gjk@U?$RelativeConvex@UCustomConvexV@@@Gu@physx@@U?$LocalConvex@UCustomConvexV@@@23@@Gu@physx@@YA?AW4GjkStatus@01@AEBU?$RelativeConvex@UCustomConvexV@@@01@AEBU?$LocalConvex@UCustomConvexV@@@01@AEBT__m128@@2AEAT5@333@Z 0000000180058a50 f i GuGjkQuery.obj
 0001:000587e0       ??$gjkPenetration@U?$RelativeConvex@UCustomConvexV@@@Gu@physx@@U?$LocalConvex@UCustomConvexV@@@23@@Gu@physx@@YA?AW4GjkStatus@01@AEBU?$RelativeConvex@UCustomConvexV@@@01@AEBU?$LocalConvex@UCustomConvexV@@@01@AEBT__m128@@2_NPEIAE4PEIAT5@5AEAEAEAUGjkOutput@01@@Z 00000001800597e0 f i GuGjkQuery.obj
 0001:00059d50       ??$gjkPenetration@U?$RelativeConvex@UCustomConvexV@@@Gu@physx@@U?$LocalConvex@UCustomConvexV@@@23@@Gu@physx@@YA?AW4GjkStatus@01@AEBU?$RelativeConvex@UCustomConvexV@@@01@AEBU?$LocalConvex@UCustomConvexV@@@01@AEBT__m128@@2_NPEIAT5@4AEAEAEAUGjkOutput@01@@Z 000000018005ad50 f i GuGjkQuery.obj
 0001:00059db0       ??$gjkRaycast@U?$RelativeConvex@UCustomConvexV@@@Gu@physx@@U?$LocalConvex@UCustomConvexV@@@23@@Gu@physx@@YA_NAEBU?$RelativeConvex@UCustomConvexV@@@01@AEBU?$LocalConvex@UCustomConvexV@@@01@AEBT__m128@@222AEAT4@33M@Z 000000018005adb0 f i GuGjkQuery.obj
 0001:0005ab10       ??$gjkRaycast@U?$RelativeConvex@UCustomConvexV@@@Gu@physx@@U?$LocalConvex@UPointConvexV@@@23@@Gu@physx@@YA_NAEBU?$RelativeConvex@UCustomConvexV@@@01@AEBU?$LocalConvex@UPointConvexV@@@01@AEBT__m128@@222AEAT4@33M@Z 000000018005bb10 f i GuGjkQuery.obj
 0001:0005b750       ?overlap@PxGjkQuery@physx@@SA_NAEBUSupport@12@0AEBV?$PxTransformT@M@2@1@Z 000000018005c750 f   GuGjkQuery.obj
 0001:0005bae0       ?proximityInfo@PxGjkQuery@physx@@SA_NAEBUSupport@12@0AEBV?$PxTransformT@M@2@1MMAEAV?$PxVec3T@M@2@22AEAM@Z 000000018005cae0 f   GuGjkQuery.obj
 0001:0005c880       ?raycast@PxGjkQuery@physx@@SA_NAEBUSupport@12@AEBV?$PxTransformT@M@2@AEBV?$PxVec3T@M@2@2MAEAMAEAV52@4@Z 000000018005d880 f   GuGjkQuery.obj
 0001:0005cd30       ?support@?$LocalConvex@UCustomConvexV@@@Gu@physx@@UEBA?AT__m128@@AEBT4@@Z 000000018005dd30 f i GuGjkQuery.obj
 0001:0005cdb0       ?support@?$LocalConvex@UCustomConvexV@@@Gu@physx@@UEBA?AT__m128@@AEBT4@AEAH@Z 000000018005ddb0 f i GuGjkQuery.obj
 0001:0005ce30       ?support@?$LocalConvex@UPointConvexV@@@Gu@physx@@UEBA?AT__m128@@AEBT4@@Z 000000018005de30 f i GuGjkQuery.obj
 0001:0005ce30       ?supportPoint@?$LocalConvex@UPointConvexV@@@Gu@physx@@UEBA?AT__m128@@H@Z 000000018005de30 f i GuGjkQuery.obj
 0001:0005ce40       ?support@?$LocalConvex@UPointConvexV@@@Gu@physx@@UEBA?AT__m128@@AEBT4@AEAH@Z 000000018005de40 f i GuGjkQuery.obj
 0001:0005ce60       ?support@?$RelativeConvex@UCustomConvexV@@@Gu@physx@@UEBA?AT__m128@@AEBT4@@Z 000000018005de60 f i GuGjkQuery.obj
 0001:0005cf30       ?support@?$RelativeConvex@UCustomConvexV@@@Gu@physx@@UEBA?AT__m128@@AEBT4@AEAH@Z 000000018005df30 f i GuGjkQuery.obj
 0001:0005d010       ?supportPoint@?$LocalConvex@UCustomConvexV@@@Gu@physx@@UEBA?AT__m128@@H@Z 000000018005e010 f i GuGjkQuery.obj
 0001:0005d080       ?supportPoint@?$RelativeConvex@UCustomConvexV@@@Gu@physx@@UEBA?AT__m128@@H@Z 000000018005e080 f i GuGjkQuery.obj
 0001:0005d120       ?sweep@PxGjkQuery@physx@@SA_NAEBUSupport@12@0AEBV?$PxTransformT@M@2@1AEBV?$PxVec3T@M@2@MAEAMAEAV52@4@Z 000000018005e120 f   GuGjkQuery.obj
 0001:0005d8e0       ??$approximateCluster@MV?$PxVec3T@M@physx@@@Gu@physx@@YAXAEBV?$PxArray@HV?$PxReflectionAllocator@H@physx@@@1@IIPEBIPEBV?$PxVec3T@M@1@AEBV?$PxArray@MV?$PxReflectionAllocator@M@physx@@@1@AEBV?$PxArray@V?$PxVec3T@M@physx@@V?$PxReflectionAllocator@V?$PxVec3T@M@physx@@@2@@1@4AEAU?$ClusterApproximationT@MV?$PxVec3T@M@physx@@@01@@Z 000000018005e8e0 f i GuWindingNumber.obj
 0001:0005df20       ??$copy@V?$PxReflectionAllocator@M@physx@@@?$PxArray@MV?$PxReflectionAllocator@M@physx@@@physx@@IEAAXAEBV01@@Z 000000018005ef20 f i GuWindingNumber.obj
 0001:0005df80       ??$precomputeClusterInformation@MV?$PxVec3T@M@physx@@@Gu@physx@@YAXHPEBUBVHNode@01@PEBIIPEBV?$PxVec3T@M@1@AEAV?$PxHashMap@IU?$ClusterApproximationT@MV?$PxVec3T@M@physx@@@Gu@physx@@U?$PxHash@I@3@VPxAllocator@3@@1@V?$PxArray@MV?$PxReflectionAllocator@M@physx@@@1@AEBV?$PxArray@V?$PxVec3T@M@physx@@V?$PxReflectionAllocator@V?$PxVec3T@M@physx@@@2@@1@5@Z 000000018005ef80 f i GuWindingNumber.obj
 0001:0005e360       ??$precomputeClusterInformation@MV?$PxVec3T@M@physx@@@Gu@physx@@YAXPEBUBVHNode@01@PEBIIPEBV?$PxVec3T@M@1@AEAV?$PxHashMap@IU?$ClusterApproximationT@MV?$PxVec3T@M@physx@@@Gu@physx@@U?$PxHash@I@3@VPxAllocator@3@@1@H@Z 000000018005f360 f i GuWindingNumber.obj
 0001:0005e770       ??$traverseBVH@V?$WindingNumberTraversalController@MV?$PxVec3T@M@physx@@@Gu@physx@@@Gu@physx@@YAXPEBUBVHNode@01@AEAV?$WindingNumberTraversalController@MV?$PxVec3T@M@physx@@@01@H@Z 000000018005f770 f i GuWindingNumber.obj
 0001:0005ecc0       ?allocate@?$PxArray@HV?$PxReflectionAllocator@H@physx@@@physx@@IEAAPEAHI@Z 000000018005fcc0 f i GuWindingNumber.obj
 0001:0005ed50       ?computeWindingNumber@Gu@physx@@YAMAEBV?$PxVec3T@M@2@PEBIIPEBV32@@Z 000000018005fd50 f   GuWindingNumber.obj
 0001:0005f080       ?computeWindingNumber@Gu@physx@@YAMPEBUBVHNode@12@AEBV?$PxVec3T@M@2@AEBV?$PxHashMap@IU?$ClusterApproximationT@MV?$PxVec3T@M@physx@@@Gu@physx@@U?$PxHash@I@3@VPxAllocator@3@@2@PEBIPEBV42@@Z 0000000180060080 f   GuWindingNumber.obj
 0001:0005f0f0       ?computeWindingNumber@Gu@physx@@YAMPEBUBVHNode@12@AEBV?$PxVec3T@M@2@MAEBV?$PxHashMap@IU?$ClusterApproximationT@MV?$PxVec3T@M@physx@@@Gu@physx@@U?$PxHash@I@3@VPxAllocator@3@@2@PEBIPEBV42@@Z 00000001800600f0 f   GuWindingNumber.obj
 0001:0005f160       ?copy@?$PxArray@MV?$PxReflectionAllocator@M@physx@@@physx@@KAXPEAM0PEBM@Z 0000000180060160 f i GuWindingNumber.obj
 0001:0005f1c0       ?create@?$PxHashBase@V?$PxPair@$$CBIU?$ClusterApproximationT@MV?$PxVec3T@M@physx@@@Gu@physx@@@physx@@IU?$PxHash@I@2@UGetKey@?$PxHashMapBase@IU?$ClusterApproximationT@MV?$PxVec3T@M@physx@@@Gu@physx@@U?$PxHash@I@3@VPxAllocator@3@@2@VPxAllocator@2@$00@physx@@QEAAPEAV?$PxPair@$$CBIU?$ClusterApproximationT@MV?$PxVec3T@M@physx@@@Gu@physx@@@2@AEBIAEA_N@Z 00000001800601c0 f i GuWindingNumber.obj
 0001:0005f310       ?growAndPushBack@?$PxArray@HV?$PxReflectionAllocator@H@physx@@@physx@@IEAAAEAHAEBH@Z 0000000180060310 f i GuWindingNumber.obj
 0001:0005f3d0       ?growAndPushBack@?$PxArray@USection@Gu@physx@@V?$PxReflectionAllocator@USection@Gu@physx@@@3@@physx@@IEAAAEAUSection@Gu@2@AEBU342@@Z 00000001800603d0 f i GuWindingNumber.obj
 0001:0005f4f0       ?precomputeClusterInformation@Gu@physx@@YAXPEBUBVHNode@12@PEBIIPEBV?$PxVec3T@M@2@AEAV?$PxHashMap@IU?$ClusterApproximationT@MV?$PxVec3T@M@physx@@@Gu@physx@@U?$PxHash@I@3@VPxAllocator@3@@2@H@Z 00000001800604f0 f   GuWindingNumber.obj
 0001:0005f590       ?SweepAnyShapeHeightfield@Gu@physx@@YAMAEBUCCDShape@12@0AEBUPxTransformPadded@2@111MAEAV?$PxVec3T@M@2@2MAEAIM@Z 0000000180060590 f   GuCCDSweepConvexMesh.obj
 0001:00060b30       ?SweepAnyShapeMesh@Gu@physx@@YAMAEBUCCDShape@12@0AEBUPxTransformPadded@2@111MAEAV?$PxVec3T@M@2@2MAEAIM@Z 0000000180061b30 f   GuCCDSweepConvexMesh.obj
 0001:000620f0       ?SweepEstimateAnyShapeHeightfield@Gu@physx@@YAMAEBUCCDShape@12@0MM@Z 00000001800630f0 f   GuCCDSweepConvexMesh.obj
 0001:00062d60       ?SweepEstimateAnyShapeMesh@Gu@physx@@YAMAEBUCCDShape@12@0MM@Z 0000000180063d60 f   GuCCDSweepConvexMesh.obj
 0001:00063000       ?allocate@?$PxArray@IV?$PxInlineAllocator@$0BAA@V?$PxReflectionAllocator@I@physx@@@physx@@@physx@@IEAAPEAII@Z 0000000180064000 f i GuCCDSweepConvexMesh.obj
 0001:00063ae0       ?growAndPushBack@?$PxArray@IV?$PxInlineAllocator@$0BAA@V?$PxReflectionAllocator@I@physx@@@physx@@@physx@@IEAAAEAIAEBI@Z 0000000180064ae0 f i GuCCDSweepConvexMesh.obj
 0001:00064120       ?recreate@?$PxArray@IV?$PxInlineAllocator@$0BAA@V?$PxReflectionAllocator@I@physx@@@physx@@@physx@@IEAAXI@Z 0000000180065120 f i GuCCDSweepConvexMesh.obj
 0001:00064260       ?resize@?$PxArray@IV?$PxInlineAllocator@$0BAA@V?$PxReflectionAllocator@I@physx@@@physx@@@physx@@QEAAXIAEBI@Z 0000000180065260 f i GuCCDSweepConvexMesh.obj
 0001:00064330       ?transformBoxOrthonormal@physx@@YA?AVBox@Gu@1@AEBV231@AEBV?$PxTransformT@M@1@@Z 0000000180065330 f i GuCCDSweepConvexMesh.obj
 0001:000647c0       ?UnimplementedSweep@Gu@physx@@YAMAEBUCCDShape@12@0AEBUPxTransformPadded@2@111MAEAV?$PxVec3T@M@2@2MAEAIM@Z 00000001800657c0 f   GuCCDSweepPrimitives.obj
 0001:000684d0       ?UnimplementedTriangleSweep@Gu@physx@@YAMAEBVPxGeometry@2@0AEBUPxTransformPadded@2@111MAEAV?$PxVec3T@M@2@2AEBVFastVertex2ShapeScaling@Cm@2@AEAVTriangleV@12@M@Z 00000001800694d0 f   GuCCDSweepPrimitives.obj
 0001:000684e0       ??$SweepGeomTriangles@VCapsuleV@Gu@physx@@@Gu@physx@@YAMAEBVPxGeometry@1@0AEBUPxTransformPadded@1@111MAEAV?$PxVec3T@M@1@2AEBVFastVertex2ShapeScaling@Cm@1@AEAVTriangleV@01@M@Z 00000001800694e0 f i GuCCDSweepPrimitives.obj
 0001:00068c10       ??$SweepGeomTriangles@VBoxV@Gu@physx@@@Gu@physx@@YAMAEBVPxGeometry@1@0AEBUPxTransformPadded@1@111MAEAV?$PxVec3T@M@1@2AEBVFastVertex2ShapeScaling@Cm@1@AEAVTriangleV@01@M@Z 0000000180069c10 f i GuCCDSweepPrimitives.obj
 0001:00069360       ??$SweepGeomTriangles@VConvexHullV@Gu@physx@@@Gu@physx@@YAMAEBVPxGeometry@1@0AEBUPxTransformPadded@1@111MAEAV?$PxVec3T@M@1@2AEBVFastVertex2ShapeScaling@Cm@1@AEAVTriangleV@01@M@Z 000000018006a360 f i GuCCDSweepPrimitives.obj
 0001:00069e40       ?supportPoint@?$RelativeConvex@VCapsuleV@Gu@physx@@@Gu@physx@@UEBA?AT__m128@@H@Z 000000018006ae40 f i GuCCDSweepPrimitives.obj
 0001:00069ea0       ?support@?$RelativeConvex@VCapsuleV@Gu@physx@@@Gu@physx@@UEBA?AT__m128@@AEBT4@@Z 000000018006aea0 f i GuCCDSweepPrimitives.obj
 0001:00069f50       ?support@?$RelativeConvex@VCapsuleV@Gu@physx@@@Gu@physx@@UEBA?AT__m128@@AEBT4@AEAH@Z 000000018006af50 f i GuCCDSweepPrimitives.obj
 0001:0006a010       ?supportPoint@?$RelativeConvex@VTriangleV@Gu@physx@@@Gu@physx@@UEBA?AT__m128@@H@Z 000000018006b010 f i GuCCDSweepPrimitives.obj
 0001:0006a060       ?support@?$RelativeConvex@VTriangleV@Gu@physx@@@Gu@physx@@UEBA?AT__m128@@AEBT4@@Z 000000018006b060 f i GuCCDSweepPrimitives.obj
 0001:0006a160       ?support@?$RelativeConvex@VTriangleV@Gu@physx@@@Gu@physx@@UEBA?AT__m128@@AEBT4@AEAH@Z 000000018006b160 f i GuCCDSweepPrimitives.obj
 0001:0006a2a0       ??$gjkPenetration@U?$RelativeConvex@VCapsuleV@Gu@physx@@@Gu@physx@@U?$LocalConvex@VBoxV@Gu@physx@@@23@@Gu@physx@@YA?AW4GjkStatus@01@AEBU?$RelativeConvex@VCapsuleV@Gu@physx@@@01@AEBU?$LocalConvex@VBoxV@Gu@physx@@@01@AEBT__m128@@2_NPEIAE4AEAEAEAUGjkOutput@01@@Z 000000018006b2a0 f i GuCCDSweepPrimitives.obj
 0001:0006a310       ??$gjkPenetration@U?$RelativeConvex@VCapsuleV@Gu@physx@@@Gu@physx@@U?$LocalConvex@VBoxV@Gu@physx@@@23@@Gu@physx@@YA?AW4GjkStatus@01@AEBU?$RelativeConvex@VCapsuleV@Gu@physx@@@01@AEBU?$LocalConvex@VBoxV@Gu@physx@@@01@AEBT__m128@@2_NPEIAE4PEIAT5@5AEAEAEAUGjkOutput@01@@Z 000000018006b310 f i GuCCDSweepPrimitives.obj
 0001:0006b810       ??$gjkPenetration@U?$RelativeConvex@VCapsuleV@Gu@physx@@@Gu@physx@@U?$LocalConvex@VCapsuleV@Gu@physx@@@23@@Gu@physx@@YA?AW4GjkStatus@01@AEBU?$RelativeConvex@VCapsuleV@Gu@physx@@@01@AEBU?$LocalConvex@VCapsuleV@Gu@physx@@@01@AEBT__m128@@2_NPEIAE4AEAEAEAUGjkOutput@01@@Z 000000018006c810 f i GuCCDSweepPrimitives.obj
 0001:0006b880       ??$gjkPenetration@U?$RelativeConvex@VCapsuleV@Gu@physx@@@Gu@physx@@U?$LocalConvex@VCapsuleV@Gu@physx@@@23@@Gu@physx@@YA?AW4GjkStatus@01@AEBU?$RelativeConvex@VCapsuleV@Gu@physx@@@01@AEBU?$LocalConvex@VCapsuleV@Gu@physx@@@01@AEBT__m128@@2_NPEIAE4PEIAT5@5AEAEAEAUGjkOutput@01@@Z 000000018006c880 f i GuCCDSweepPrimitives.obj
 0001:0006cd70       ??$gjkPenetration@U?$RelativeConvex@VCapsuleV@Gu@physx@@@Gu@physx@@U?$LocalConvex@VConvexHullV@Gu@physx@@@23@@Gu@physx@@YA?AW4GjkStatus@01@AEBU?$RelativeConvex@VCapsuleV@Gu@physx@@@01@AEBU?$LocalConvex@VConvexHullV@Gu@physx@@@01@AEBT__m128@@2_NPEIAE4AEAEAEAUGjkOutput@01@@Z 000000018006dd70 f i GuCCDSweepPrimitives.obj
 0001:0006cde0       ??$gjkPenetration@U?$RelativeConvex@VCapsuleV@Gu@physx@@@Gu@physx@@U?$LocalConvex@VConvexHullV@Gu@physx@@@23@@Gu@physx@@YA?AW4GjkStatus@01@AEBU?$RelativeConvex@VCapsuleV@Gu@physx@@@01@AEBU?$LocalConvex@VConvexHullV@Gu@physx@@@01@AEBT__m128@@2_NPEIAE4PEIAT5@5AEAEAEAUGjkOutput@01@@Z 000000018006dde0 f i GuCCDSweepPrimitives.obj
 0001:0006e390       ??$gjkPenetration@U?$RelativeConvex@VTriangleV@Gu@physx@@@Gu@physx@@U?$LocalConvex@VBoxV@Gu@physx@@@23@@Gu@physx@@YA?AW4GjkStatus@01@AEBU?$RelativeConvex@VTriangleV@Gu@physx@@@01@AEBU?$LocalConvex@VBoxV@Gu@physx@@@01@AEBT__m128@@2_NPEIAE4AEAEAEAUGjkOutput@01@@Z 000000018006f390 f i GuCCDSweepPrimitives.obj
 0001:0006e400       ??$gjkPenetration@U?$RelativeConvex@VTriangleV@Gu@physx@@@Gu@physx@@U?$LocalConvex@VBoxV@Gu@physx@@@23@@Gu@physx@@YA?AW4GjkStatus@01@AEBU?$RelativeConvex@VTriangleV@Gu@physx@@@01@AEBU?$LocalConvex@VBoxV@Gu@physx@@@01@AEBT__m128@@2_NPEIAE4PEIAT5@5AEAEAEAUGjkOutput@01@@Z 000000018006f400 f i GuCCDSweepPrimitives.obj
 0001:0006f920       ??$gjkPenetration@U?$RelativeConvex@VTriangleV@Gu@physx@@@Gu@physx@@U?$LocalConvex@VCapsuleV@Gu@physx@@@23@@Gu@physx@@YA?AW4GjkStatus@01@AEBU?$RelativeConvex@VTriangleV@Gu@physx@@@01@AEBU?$LocalConvex@VCapsuleV@Gu@physx@@@01@AEBT__m128@@2_NPEIAE4AEAEAEAUGjkOutput@01@@Z 0000000180070920 f i GuCCDSweepPrimitives.obj
 0001:0006f990       ??$gjkPenetration@U?$RelativeConvex@VTriangleV@Gu@physx@@@Gu@physx@@U?$LocalConvex@VCapsuleV@Gu@physx@@@23@@Gu@physx@@YA?AW4GjkStatus@01@AEBU?$RelativeConvex@VTriangleV@Gu@physx@@@01@AEBU?$LocalConvex@VCapsuleV@Gu@physx@@@01@AEBT__m128@@2_NPEIAE4PEIAT5@5AEAEAEAUGjkOutput@01@@Z 0000000180070990 f i GuCCDSweepPrimitives.obj
 0001:00070eb0       ??$gjkPenetration@U?$RelativeConvex@VTriangleV@Gu@physx@@@Gu@physx@@U?$LocalConvex@VConvexHullV@Gu@physx@@@23@@Gu@physx@@YA?AW4GjkStatus@01@AEBU?$RelativeConvex@VTriangleV@Gu@physx@@@01@AEBU?$LocalConvex@VConvexHullV@Gu@physx@@@01@AEBT__m128@@2_NPEIAE4AEAEAEAUGjkOutput@01@@Z 0000000180071eb0 f i GuCCDSweepPrimitives.obj
 0001:00070f20       ??$gjkPenetration@U?$RelativeConvex@VTriangleV@Gu@physx@@@Gu@physx@@U?$LocalConvex@VConvexHullV@Gu@physx@@@23@@Gu@physx@@YA?AW4GjkStatus@01@AEBU?$RelativeConvex@VTriangleV@Gu@physx@@@01@AEBU?$LocalConvex@VConvexHullV@Gu@physx@@@01@AEBT__m128@@2_NPEIAE4PEIAT5@5AEAEAEAUGjkOutput@01@@Z 0000000180071f20 f i GuCCDSweepPrimitives.obj
 0001:000724e0       ??$gjkRaycast@U?$RelativeConvex@VCapsuleV@Gu@physx@@@Gu@physx@@U?$LocalConvex@VBoxV@Gu@physx@@@23@@Gu@physx@@YA_NAEBU?$RelativeConvex@VCapsuleV@Gu@physx@@@01@AEBU?$LocalConvex@VBoxV@Gu@physx@@@01@AEBT__m128@@222AEAT4@33M@Z 00000001800734e0 f i GuCCDSweepPrimitives.obj
 0001:00073150       ??$gjkRaycast@U?$RelativeConvex@VCapsuleV@Gu@physx@@@Gu@physx@@U?$LocalConvex@VCapsuleV@Gu@physx@@@23@@Gu@physx@@YA_NAEBU?$RelativeConvex@VCapsuleV@Gu@physx@@@01@AEBU?$LocalConvex@VCapsuleV@Gu@physx@@@01@AEBT__m128@@222AEAT4@33M@Z 0000000180074150 f i GuCCDSweepPrimitives.obj
 0001:00073e40       ??$gjkRaycast@U?$RelativeConvex@VCapsuleV@Gu@physx@@@Gu@physx@@U?$LocalConvex@VConvexHullV@Gu@physx@@@23@@Gu@physx@@YA_NAEBU?$RelativeConvex@VCapsuleV@Gu@physx@@@01@AEBU?$LocalConvex@VConvexHullV@Gu@physx@@@01@AEBT__m128@@222AEAT4@33M@Z 0000000180074e40 f i GuCCDSweepPrimitives.obj
 0001:00074c40       ??$gjkRaycast@U?$RelativeConvex@VTriangleV@Gu@physx@@@Gu@physx@@U?$LocalConvex@VBoxV@Gu@physx@@@23@@Gu@physx@@YA_NAEBU?$RelativeConvex@VTriangleV@Gu@physx@@@01@AEBU?$LocalConvex@VBoxV@Gu@physx@@@01@AEBT__m128@@222AEAT4@33M@Z 0000000180075c40 f i GuCCDSweepPrimitives.obj
 0001:00075950       ??$gjkRaycast@U?$RelativeConvex@VTriangleV@Gu@physx@@@Gu@physx@@U?$LocalConvex@VCapsuleV@Gu@physx@@@23@@Gu@physx@@YA_NAEBU?$RelativeConvex@VTriangleV@Gu@physx@@@01@AEBU?$LocalConvex@VCapsuleV@Gu@physx@@@01@AEBT__m128@@222AEAT4@33M@Z 0000000180076950 f i GuCCDSweepPrimitives.obj
 0001:000766d0       ??$gjkRaycast@U?$RelativeConvex@VTriangleV@Gu@physx@@@Gu@physx@@U?$LocalConvex@VConvexHullV@Gu@physx@@@23@@Gu@physx@@YA_NAEBU?$RelativeConvex@VTriangleV@Gu@physx@@@01@AEBU?$LocalConvex@VConvexHullV@Gu@physx@@@01@AEBT__m128@@222AEAT4@33M@Z 00000001800776d0 f i GuCCDSweepPrimitives.obj
 0001:00077590       ?SweepShapeShape@Gu@physx@@YAMAEBUCCDShape@12@0AEBUPxTransformPadded@2@111MAEAV?$PxVec3T@M@2@2MAEAIM@Z 0000000180078590 f   GuCCDSweepPrimitives.obj
 0001:000775b0       ?SweepShapeTriangle@Gu@physx@@YAMAEBVPxGeometry@2@0AEBUPxTransformPadded@2@111MAEAV?$PxVec3T@M@2@2AEBVFastVertex2ShapeScaling@Cm@2@AEAVTriangleV@12@M@Z 00000001800785b0 f   GuCCDSweepPrimitives.obj
 0001:000775d0       ?barycentricCoordinates@Gu@physx@@YAXAEBT__m128@@000AEAT3@1@Z 00000001800785d0 f   GuBarycentricCoordinates.obj
 0001:00077710       ?barycentricCoordinates@Gu@physx@@YAXAEBT__m128@@00AEAT3@@Z 0000000180078710 f   GuBarycentricCoordinates.obj
 0001:00077780       ??$?_UV?$PxReflectionAllocator@VAdjTriangle@Gu@physx@@@physx@@@PxUserAllocated@physx@@SAPEAX_KV?$PxReflectionAllocator@VAdjTriangle@Gu@physx@@@1@PEBDH@Z 0000000180078780 f i GuAdjacencies.obj
 0001:00077860       ??0AdjacenciesBuilder@Gu@physx@@QEAA@XZ 0000000180078860 f   GuAdjacencies.obj
 0001:00077870       ??1AdjacenciesBuilder@Gu@physx@@QEAA@XZ 0000000180078870 f   GuAdjacencies.obj
 0001:000779c0       ?ComputeNbBoundaryEdges@Adjacencies@Gu@physx@@QEBAIXZ 00000001800789c0 f   GuAdjacencies.obj
 0001:00077c50       ?Init@AdjacenciesBuilder@Gu@physx@@QEAA_NAEBUADJACENCIESCREATE@23@@Z 0000000180078c50 f   GuAdjacencies.obj
 0001:000781b0       ??0EdgeList@Gu@physx@@QEAA@XZ 00000001800791b0 f   GuEdgeList.obj
 0001:000781d0       ??1EdgeList@Gu@physx@@QEAA@XZ 00000001800791d0 f   GuEdgeList.obj
 0001:00078280       ?computeActiveEdges@EdgeList@Gu@physx@@AEAA_NIPEBIPEBGPEBV?$PxVec3T@M@3@M@Z 0000000180079280 f   GuEdgeList.obj
 0001:00079600       ?createEdgesToFaces@EdgeList@Gu@physx@@AEAA_NIPEBIPEBG@Z 000000018007a600 f   GuEdgeList.obj
 0001:00079860       ?createFacesToEdges@EdgeList@Gu@physx@@AEAA_NIPEBIPEBG@Z 000000018007a860 f   GuEdgeList.obj
 0001:00079c30       ?init@EdgeList@Gu@physx@@QEAA_NAEBUEDGELISTCREATE@23@@Z 000000018007ac30 f   GuEdgeList.obj
 0001:00079d60       ?addAxis@SeparatingAxes@Gu@physx@@QEAA_NAEBV?$PxVec3T@M@3@@Z 000000018007ad60 f   GuSeparatingAxes.obj
 0001:00079e20       ??$kmeans_cluster@V?$PxVec3T@M@physx@@M@@YAIPEBV?$PxVec3T@M@physx@@IIPEAV01@PEAIMM@Z 000000018007ae20 f i GuQuantizer.obj
 0001:0007a7e0       ??_EQuantizer@Gu@physx@@MEAAPEAXI@Z 000000018007b7e0 f i GuQuantizer.obj
 0001:0007a7e0       ??_GQuantizer@Gu@physx@@MEAAPEAXI@Z 000000018007b7e0 f i GuQuantizer.obj
 0001:0007a810       ??_EQuantizerImpl@@EEAAPEAXI@Z 000000018007b810 f i GuQuantizer.obj
 0001:0007a810       ??_GQuantizerImpl@@EEAAPEAXI@Z 000000018007b810 f i GuQuantizer.obj
 0001:0007a8e0       ?createQuantizer@Gu@physx@@YAPEAVQuantizer@12@XZ 000000018007b8e0 f   GuQuantizer.obj
 0001:0007a990       ?getDenormalizeCenter@QuantizerImpl@@UEBAAEBV?$PxVec3T@M@physx@@XZ 000000018007b990 f i GuQuantizer.obj
 0001:0007a9a0       ?getCurrentAABBTreeBounds@PruningPool@Gu@physx@@QEBAAEBVAABBTreeBounds@23@XZ 000000018007b9a0 f i GuIncrementalAABBPrunerCore.obj
 0001:0007a9a0       ?getDenormalizeScale@QuantizerImpl@@UEBAAEBV?$PxVec3T@M@physx@@XZ 000000018007b9a0 f i GuQuantizer.obj
 0001:0007a9b0       ?kmeansQuantize3D@QuantizerImpl@@UEAAPEBV?$PxVec3T@M@physx@@IPEBV23@I_NIAEAI@Z 000000018007b9b0 f i GuQuantizer.obj
 0001:0007ac20       ?normalizeInput@QuantizerImpl@@AEAAXIPEBV?$PxVec3T@M@physx@@I@Z 000000018007bc20 f i GuQuantizer.obj
 0001:0007b070       ?release@QuantizerImpl@@UEAAXXZ 000000018007c070 f i GuQuantizer.obj
 0001:0007b090       ??0MeshCleaner@Gu@physx@@QEAA@IPEBV?$PxVec3T@M@2@IPEBIMM@Z 000000018007c090 f   GuMeshCleaner.obj
 0001:0007ba60       ??1MeshCleaner@Gu@physx@@QEAA@XZ 000000018007ca60 f   GuMeshCleaner.obj
 0001:0007baf0       ??0ReducedVertexCloud@Gu@physx@@QEAA@PEBV?$PxVec3T@M@2@I@Z 000000018007caf0 f   GuVertexReducer.obj
 0001:0007bb10       ??1ReducedVertexCloud@Gu@physx@@QEAA@XZ 000000018007cb10 f   GuVertexReducer.obj
 0001:0007bb20       ?clean@ReducedVertexCloud@Gu@physx@@QEAAAEAV123@XZ 000000018007cb20 f   GuVertexReducer.obj
 0001:0007bb90       ?reduce@ReducedVertexCloud@Gu@physx@@QEAA_NPEAUREDUCEDCLOUD@23@@Z 000000018007cb90 f   GuVertexReducer.obj
 0001:0007be30       ??$copy@V?$PxReflectionAllocator@I@physx@@@?$PxArray@IV?$PxReflectionAllocator@I@physx@@@physx@@IEAAXAEBV01@@Z 000000018007ce30 f i GuMeshAnalysis.obj
 0001:0007bea0       ?buildConsistentTriangleOrientationMap@MeshAnalyzer@Gu@physx@@SA_NPEBU?$IndexedTriangleT@H@23@IAEAV?$PxArray@_NV?$PxReflectionAllocator@_N@physx@@@3@AEAV?$PxHashMap@_KHU?$PxHash@_K@physx@@VPxAllocator@2@@3@AEAV?$PxArray@V?$PxArray@IV?$PxReflectionAllocator@I@physx@@@physx@@V?$PxReflectionAllocator@V?$PxArray@IV?$PxReflectionAllocator@I@physx@@@physx@@@2@@3@@Z 000000018007cea0 f   GuMeshAnalysis.obj
 0001:0007c250       ?buildTriangleAdjacency@MeshAnalyzer@Gu@physx@@SA_NPEBU?$IndexedTriangleT@H@23@IAEAV?$PxArray@HV?$PxReflectionAllocator@H@physx@@@3@AEAV?$PxHashMap@_KHU?$PxHash@_K@physx@@VPxAllocator@2@@3@@Z 000000018007d250 f   GuMeshAnalysis.obj
 0001:0007c550       ?checkConsistentTriangleOrientation@MeshAnalyzer@Gu@physx@@SA_NPEBU?$IndexedTriangleT@H@23@I@Z 000000018007d550 f   GuMeshAnalysis.obj
 0001:0007c6a0       ?checkMeshWatertightness@MeshAnalyzer@Gu@physx@@SA_NPEBU?$IndexedTriangleT@H@23@I_N@Z 000000018007d6a0 f   GuMeshAnalysis.obj
 0001:0007c880       ?destroy@?$PxArray@V?$PxArray@IV?$PxReflectionAllocator@I@physx@@@physx@@V?$PxReflectionAllocator@V?$PxArray@IV?$PxReflectionAllocator@I@physx@@@physx@@@2@@physx@@KAXPEAV?$PxArray@IV?$PxReflectionAllocator@I@physx@@@2@0@Z 000000018007d880 f i GuMeshAnalysis.obj
 0001:0007c8f0       ?erase@?$PxHashBase@V?$PxPair@$$CB_KH@physx@@_KU?$PxHash@_K@2@UGetKey@?$PxHashMapBase@_KHU?$PxHash@_K@physx@@VPxAllocator@2@@2@VPxAllocator@2@$00@physx@@QEAA_NAEB_K@Z 000000018007d8f0 f i GuMeshAnalysis.obj
 0001:0007caa0       ?growAndPushBack@?$PxArray@V?$PxArray@IV?$PxReflectionAllocator@I@physx@@@physx@@V?$PxReflectionAllocator@V?$PxArray@IV?$PxReflectionAllocator@I@physx@@@physx@@@2@@physx@@IEAAAEAV?$PxArray@IV?$PxReflectionAllocator@I@physx@@@2@AEBV32@@Z 000000018007daa0 f i GuMeshAnalysis.obj
 0001:0007cbf0       ?makeTriOrientationConsistent@MeshAnalyzer@Gu@physx@@SA_NPEAU?$IndexedTriangleT@H@23@I_N@Z 000000018007dbf0 f   GuMeshAnalysis.obj
 0001:0007cd70       ?recreate@?$PxArray@_NV?$PxReflectionAllocator@_N@physx@@@physx@@IEAAXI@Z 000000018007dd70 f i GuMeshAnalysis.obj
 0001:0007ce60       ?resize@?$PxArray@HV?$PxReflectionAllocator@H@physx@@@physx@@QEAAXIAEBH@Z 000000018007de60 f i GuMeshAnalysis.obj
 0001:0007cf20       ?resize@?$PxArray@_NV?$PxReflectionAllocator@_N@physx@@@physx@@QEAAXIAEB_N@Z 000000018007df20 f i GuMeshAnalysis.obj
 0001:0007cfe0       ?contactBoxBox@Gu@physx@@YA_NAEBVPxGeometry@2@0AEBUPxTransformPadded@2@1AEBUNarrowPhaseParams@12@AEAUCache@12@AEAVPxContactBuffer@2@PEAVPxRenderOutput@2@@Z 000000018007dfe0 f   GuContactBoxBox.obj
 0001:00080e20       ?contactCapsuleBox@Gu@physx@@YA_NAEBVPxGeometry@2@0AEBUPxTransformPadded@2@1AEBUNarrowPhaseParams@12@AEAUCache@12@AEAVPxContactBuffer@2@PEAVPxRenderOutput@2@@Z 0000000180081e20 f   GuContactCapsuleBox.obj
 0001:00081630       ?contactCapsuleCapsule@Gu@physx@@YA_NAEBVPxGeometry@2@0AEBUPxTransformPadded@2@1AEBUNarrowPhaseParams@12@AEAUCache@12@AEAVPxContactBuffer@2@PEAVPxRenderOutput@2@@Z 0000000180082630 f   GuContactCapsuleCapsule.obj
 0001:00084020       ?contactCapsuleConvex@Gu@physx@@YA_NAEBVPxGeometry@2@0AEBUPxTransformPadded@2@1AEBUNarrowPhaseParams@12@AEAUCache@12@AEAVPxContactBuffer@2@PEAVPxRenderOutput@2@@Z 0000000180085020 f   GuContactCapsuleConvex.obj
 0001:00086550       ?contactCapsuleHeightfield@Gu@physx@@YA_NAEBVPxGeometry@2@0AEBUPxTransformPadded@2@1AEBUNarrowPhaseParams@12@AEAUCache@12@AEAVPxContactBuffer@2@PEAVPxRenderOutput@2@@Z 0000000180087550 f   GuContactCapsuleMesh.obj
 0001:00086d90       ?contactCapsuleMesh@Gu@physx@@YA_NAEBVPxGeometry@2@0AEBUPxTransformPadded@2@1AEBUNarrowPhaseParams@12@AEAUCache@12@AEAVPxContactBuffer@2@PEAVPxRenderOutput@2@@Z 0000000180087d90 f   GuContactCapsuleMesh.obj
 0001:00087f10       ?transformQueryBounds@FastVertex2ShapeScaling@Cm@physx@@QEBAXAEAV?$PxVec3T@M@3@0AEAV?$PxMat33T@M@3@@Z 0000000180088f10 f i GuContactCapsuleMesh.obj
 0001:0008c470       ?contactBoxConvex@Gu@physx@@YA_NAEBVPxGeometry@2@0AEBUPxTransformPadded@2@1AEBUNarrowPhaseParams@12@AEAUCache@12@AEAVPxContactBuffer@2@PEAVPxRenderOutput@2@@Z 000000018008d470 f   GuContactConvexConvex.obj
 0001:0008c640       ?contactConvexConvex@Gu@physx@@YA_NAEBVPxGeometry@2@0AEBUPxTransformPadded@2@1AEBUNarrowPhaseParams@12@AEAUCache@12@AEAVPxContactBuffer@2@PEAVPxRenderOutput@2@@Z 000000018008d640 f   GuContactConvexConvex.obj
 0001:0008cac0       ?transformPlaneToShapeSpace@FastVertex2ShapeScaling@Cm@physx@@QEBAXAEBV?$PxVec3T@M@3@MAEAV43@AEAM@Z 000000018008dac0 f i GuContactConvexConvex.obj
 0001:0008cf70       ??_EConvexMeshContactGenerationCallback@@UEAAPEAXI@Z 000000018008df70 f i GuContactConvexMesh.obj
 0001:0008cf70       ??_GConvexMeshContactGenerationCallback@@UEAAPEAXI@Z 000000018008df70 f i GuContactConvexMesh.obj
 0001:0008cfd0       ?addData@?$CacheMap@UCachedEdge@Gu@physx@@$0IA@@Gu@physx@@QEAA_NAEBUCachedEdge@23@@Z 000000018008dfd0 f i GuContactConvexMesh.obj
 0001:0008d0b0       ?addData@?$CacheMap@UCachedVertex@Gu@physx@@$0IA@@Gu@physx@@QEAA_NAEBUCachedVertex@23@@Z 000000018008e0b0 f i GuContactConvexMesh.obj
 0001:0008d140       ?allocate@?$PxArray@IV?$PxInlineAllocator@$0BBAA@V?$PxReflectionAllocator@I@physx@@@physx@@@physx@@IEAAPEAII@Z 000000018008e140 f i GuContactConvexMesh.obj
 0001:0008d540       ?contactBoxHeightfield@Gu@physx@@YA_NAEBVPxGeometry@2@0AEBUPxTransformPadded@2@1AEBUNarrowPhaseParams@12@AEAUCache@12@AEAVPxContactBuffer@2@PEAVPxRenderOutput@2@@Z 000000018008e540 f   GuContactConvexMesh.obj
 0001:0008d6c0       ?contactBoxMesh@Gu@physx@@YA_NAEBVPxGeometry@2@0AEBUPxTransformPadded@2@1AEBUNarrowPhaseParams@12@AEAUCache@12@AEAVPxContactBuffer@2@PEAVPxRenderOutput@2@@Z 000000018008e6c0 f   GuContactConvexMesh.obj
 0001:0008d890       ?contactConvexHeightfield@Gu@physx@@YA_NAEBVPxGeometry@2@0AEBUPxTransformPadded@2@1AEBUNarrowPhaseParams@12@AEAUCache@12@AEAVPxContactBuffer@2@PEAVPxRenderOutput@2@@Z 000000018008e890 f   GuContactConvexMesh.obj
 0001:0008d9e0       ?contactConvexMesh@Gu@physx@@YA_NAEBVPxGeometry@2@0AEBUPxTransformPadded@2@1AEBUNarrowPhaseParams@12@AEAUCache@12@AEAVPxContactBuffer@2@PEAVPxRenderOutput@2@@Z 000000018008e9e0 f   GuContactConvexMesh.obj
 0001:00091100       ?processHit@ConvexMeshContactGenerationCallback@@UEAA_NAEBUPxGeomRaycastHit@physx@@AEBV?$PxVec3T@M@3@11AEAMPEBI@Z 0000000180092100 f i GuContactConvexMesh.obj
 0001:00091ac0       ?recreate@?$PxArray@IV?$PxInlineAllocator@$0BBAA@V?$PxReflectionAllocator@I@physx@@@physx@@@physx@@IEAAXI@Z 0000000180092ac0 f i GuContactConvexMesh.obj
 0001:00092f60       ?contactPlaneBox@Gu@physx@@YA_NAEBVPxGeometry@2@0AEBUPxTransformPadded@2@1AEBUNarrowPhaseParams@12@AEAUCache@12@AEAVPxContactBuffer@2@PEAVPxRenderOutput@2@@Z 0000000180093f60 f   GuContactPlaneBox.obj
 0001:00093c00       ?contactPlaneCapsule@Gu@physx@@YA_NAEBVPxGeometry@2@0AEBUPxTransformPadded@2@1AEBUNarrowPhaseParams@12@AEAUCache@12@AEAVPxContactBuffer@2@PEAVPxRenderOutput@2@@Z 0000000180094c00 f   GuContactPlaneCapsule.obj
 0001:000942d0       ?contactPlaneConvex@Gu@physx@@YA_NAEBVPxGeometry@2@0AEBUPxTransformPadded@2@1AEBUNarrowPhaseParams@12@AEAUCache@12@AEAVPxContactBuffer@2@PEAVPxRenderOutput@2@@Z 00000001800952d0 f   GuContactPlaneConvex.obj
 0001:00096000       ?contactPolygonPolygonExt@Gu@physx@@YA_NIPEBV?$PxVec3T@M@2@PEBEAEBV?$PxMat34T@M@2@AEBVPxPlane@2@AEBV?$PxMat33T@M@2@I01234AEBV32@22IIAEAVPxContactBuffer@2@_N5M@Z 0000000180097000 f   GuContactPolygonPolygon.obj
 0001:00097770       ?findRotationMatrixFromZ@Gu@physx@@YA?AV?$PxMat33T@M@2@AEBV?$PxVec3T@M@2@@Z 0000000180098770 f   GuContactPolygonPolygon.obj
 0001:00098190       ?contactSphereBox@Gu@physx@@YA_NAEBVPxGeometry@2@0AEBUPxTransformPadded@2@1AEBUNarrowPhaseParams@12@AEAUCache@12@AEAVPxContactBuffer@2@PEAVPxRenderOutput@2@@Z 0000000180099190 f   GuContactSphereBox.obj
 0001:00098750       ?contactSphereCapsule@Gu@physx@@YA_NAEBVPxGeometry@2@0AEBUPxTransformPadded@2@1AEBUNarrowPhaseParams@12@AEAUCache@12@AEAVPxContactBuffer@2@PEAVPxRenderOutput@2@@Z 0000000180099750 f   GuContactSphereCapsule.obj
 0001:00099530       ?contactSphereHeightfield@Gu@physx@@YA_NAEBVPxGeometry@2@0AEBUPxTransformPadded@2@1AEBUNarrowPhaseParams@12@AEAUCache@12@AEAVPxContactBuffer@2@PEAVPxRenderOutput@2@@Z 000000018009a530 f   GuContactSphereMesh.obj
 0001:00099f20       ?contactSphereMesh@Gu@physx@@YA_NAEBVPxGeometry@2@0AEBUPxTransformPadded@2@1AEBUNarrowPhaseParams@12@AEAUCache@12@AEAVPxContactBuffer@2@PEAVPxRenderOutput@2@@Z 000000018009af20 f   GuContactSphereMesh.obj
 0001:0009c240       ?contactSpherePlane@Gu@physx@@YA_NAEBVPxGeometry@2@0AEBUPxTransformPadded@2@1AEBUNarrowPhaseParams@12@AEAUCache@12@AEAVPxContactBuffer@2@PEAVPxRenderOutput@2@@Z 000000018009d240 f   GuContactSpherePlane.obj
 0001:0009c450       ?contactSphereSphere@Gu@physx@@YA_NAEBVPxGeometry@2@0AEBUPxTransformPadded@2@1AEBUNarrowPhaseParams@12@AEAUCache@12@AEAVPxContactBuffer@2@PEAVPxRenderOutput@2@@Z 000000018009d450 f   GuContactSphereSphere.obj
 0001:0009c5d0       ?contactCustomGeometryGeometry@Gu@physx@@YA_NAEBVPxGeometry@2@0AEBUPxTransformPadded@2@1AEBUNarrowPhaseParams@12@AEAUCache@12@AEAVPxContactBuffer@2@PEAVPxRenderOutput@2@@Z 000000018009d5d0 f   GuContactCustomGeometry.obj
 0001:0009c630       ?contactGeometryCustomGeometry@Gu@physx@@YA_NAEBVPxGeometry@2@0AEBUPxTransformPadded@2@1AEBUNarrowPhaseParams@12@AEAUCache@12@AEAVPxContactBuffer@2@PEAVPxRenderOutput@2@@Z 000000018009d630 f   GuContactCustomGeometry.obj
 0001:0009c6f0       ?selectNormal@Gu@physx@@YA_NEMM@Z 000000018009d6f0 f   GuFeatureCode.obj
 0001:0009c770       ??0BigConvexData@physx@@QEAA@XZ 000000018009d770 f   GuBigConvexData.obj
 0001:0009c790       ??1BigConvexData@physx@@QEAA@XZ 000000018009d790 f   GuBigConvexData.obj
 0001:0009c850       ?ComputeNearestOffset@BigConvexData@physx@@QEBAIAEBV?$PxVec3T@M@2@@Z 000000018009d850 f   GuBigConvexData.obj
 0001:0009c950       ?ComputeOffset@BigConvexData@physx@@QEBAIAEBV?$PxVec3T@M@2@@Z 000000018009d950 f   GuBigConvexData.obj
 0001:0009ca50       ?CreateOffsets@BigConvexData@physx@@IEAAXXZ 000000018009da50 f   GuBigConvexData.obj
 0001:0009caa0       ?Load@BigConvexData@physx@@QEAA_NAEAVPxInputStream@2@@Z 000000018009daa0 f   GuBigConvexData.obj
 0001:0009cbb0       ?VLoad@BigConvexData@physx@@IEAA_NAEAVPxInputStream@2@@Z 000000018009dbb0 f   GuBigConvexData.obj
 0001:0009cd50       ?exportExtraData@BigConvexData@physx@@QEAAXAEAVPxSerializationContext@2@@Z 000000018009dd50 f   GuBigConvexData.obj
 0001:0009cdd0       ?importExtraData@BigConvexData@physx@@QEAAXAEAVPxDeserializationContext@2@@Z 000000018009ddd0 f   GuBigConvexData.obj
 0001:0009ce40       ?findUniqueConvexEdges@Gu@physx@@YAIIPEIAUConvexEdge@12@IPEIBUHullPolygonData@12@PEIBE@Z 000000018009de40 f   GuConvexHelper.obj
 0001:0009cf80       ?getConvexData@Gu@physx@@YA_NAEBVPxConvexMeshGeometry@2@AEAVFastVertex2ShapeScaling@Cm@2@AEAVPxBounds3@2@AEAUPolygonalData@12@@Z 000000018009df80 f   GuConvexHelper.obj
 0001:0009d210       ?getScaledConvex@Gu@physx@@YAXAEAPEAV?$PxVec3T@M@2@AEAPEAEPEAV32@PEAE_NPEBV32@PEBEIAEBVFastVertex2ShapeScaling@Cm@2@@Z 000000018009e210 f   GuConvexHelper.obj
 0001:0009d340       ??0ConvexMesh@Gu@physx@@QEAA@PEAVMeshFactory@12@@Z 000000018009e340 f   GuConvexMesh.obj
 0001:0009d3d0       ??0ConvexMesh@Gu@physx@@QEAA@PEAVMeshFactory@12@AEAUConvexHullInitData@12@@Z 000000018009e3d0 f   GuConvexMesh.obj
 0001:0009d4f0       ??_EConvexMesh@Gu@physx@@UEAAPEAXI@Z 000000018009e4f0 f i GuConvexMesh.obj
 0001:0009d4f0       ??_GConvexMesh@Gu@physx@@UEAAPEAXI@Z 000000018009e4f0 f i GuConvexMesh.obj
 0001:0009d600       ??_EPxBVH@physx@@MEAAPEAXI@Z 000000018009e600 f i GuBVH.obj
 0001:0009d600       ??_EPxBase@physx@@MEAAPEAXI@Z 000000018009e600 f i GuConvexMesh.obj
 0001:0009d600       ??_GPxBVH@physx@@MEAAPEAXI@Z 000000018009e600 f i GuBVH.obj
 0001:0009d600       ??_GPxBase@physx@@MEAAPEAXI@Z 000000018009e600 f i GuConvexMesh.obj
 0001:0009d630       ?acquireReference@ConvexMesh@Gu@physx@@UEAAXXZ 000000018009e630 f   GuConvexMesh.obj
 0001:0009d630       ?acquireReference@HeightField@Gu@physx@@UEAAXXZ 000000018009e630 f   GuHeightField.obj
 0001:0009d630       ?acquireReference@SoftBodyAuxData@Gu@physx@@UEAAXXZ 000000018009e630 f   GuTetrahedronMesh.obj
 0001:0009d630       ?acquireReference@SoftBodyMesh@Gu@physx@@UEAAXXZ 000000018009e630 f   GuTetrahedronMesh.obj
 0001:0009d630       ?acquireReference@TetrahedronMesh@Gu@physx@@UEAAXXZ 000000018009e630 f   GuTetrahedronMesh.obj
 0001:0009d630       ?acquireReference@TriangleMesh@Gu@physx@@UEAAXXZ 000000018009e630 f   GuTriangleMesh.obj
 0001:0009db00       ?createObject@ConvexMesh@Gu@physx@@SAPEAV123@AEAPEAEAEAVPxDeserializationContext@3@@Z 000000018009eb00 f   GuConvexMesh.obj
 0001:0009dbf0       ?exportExtraData@ConvexMesh@Gu@physx@@UEAAXAEAVPxSerializationContext@3@@Z 000000018009ebf0 f   GuConvexMesh.obj
 0001:0009dcc0       ?getConcreteTypeName@PxConvexMesh@physx@@UEBAPEBDXZ 000000018009ecc0 f i GuConvexMesh.obj
 0001:0009dcd0       ?getIndexBuffer@ConvexMesh@Gu@physx@@UEBAPEBEXZ 000000018009ecd0 f i GuConvexMesh.obj
 0001:0009dd10       ?getLocalBounds@ConvexMesh@Gu@physx@@UEBA?AVPxBounds3@3@XZ 000000018009ed10 f   GuConvexMesh.obj
 0001:0009dda0       ?getMassInformation@ConvexMesh@Gu@physx@@UEBAXAEAMAEAV?$PxMat33T@M@3@AEAV?$PxVec3T@M@3@@Z 000000018009eda0 f   GuConvexMesh.obj
 0001:0009de10       ?getNbPolygons@ConvexMesh@Gu@physx@@UEBAIXZ 000000018009ee10 f i GuConvexMesh.obj
 0001:0009de20       ?getNbVertices@ConvexMesh@Gu@physx@@UEBAIXZ 000000018009ee20 f i GuConvexMesh.obj
 0001:0009de30       ?getPolygonData@ConvexMesh@Gu@physx@@UEBA_NIAEAUPxHullPolygon@3@@Z 000000018009ee30 f   GuConvexMesh.obj
 0001:0009de80       ?getReferenceCount@ConvexMesh@Gu@physx@@UEBAIXZ 000000018009ee80 f   GuConvexMesh.obj
 0001:0009de80       ?getReferenceCount@HeightField@Gu@physx@@UEBAIXZ 000000018009ee80 f   GuHeightField.obj
 0001:0009de80       ?getReferenceCount@SoftBodyAuxData@Gu@physx@@UEBAIXZ 000000018009ee80 f   GuTetrahedronMesh.obj
 0001:0009de80       ?getReferenceCount@SoftBodyMesh@Gu@physx@@UEBAIXZ 000000018009ee80 f   GuTetrahedronMesh.obj
 0001:0009de80       ?getReferenceCount@TetrahedronMesh@Gu@physx@@UEBAIXZ 000000018009ee80 f   GuTetrahedronMesh.obj
 0001:0009de80       ?getReferenceCount@TriangleMesh@Gu@physx@@UEBAIXZ 000000018009ee80 f   GuTriangleMesh.obj
 0001:0009de80       ?length@DNameStatusNode@@UEBAHXZ 000000018009ee80 f   libvcruntime:undname.obj
 0001:0009de80       ?raw_length@DNameStatusNode@@UEBAHXZ 000000018009ee80 f   libvcruntime:undname.obj
 0001:0009de90       ?getSDF@ConvexMesh@Gu@physx@@UEBAPEBMXZ 000000018009ee90 f   GuConvexMesh.obj
 0001:0009dea0       ?getVertices@ConvexMesh@Gu@physx@@UEBAPEBV?$PxVec3T@M@3@XZ 000000018009eea0 f i GuConvexMesh.obj
 0001:0009dec0       ?isGpuCompatible@ConvexMesh@Gu@physx@@UEBA_NXZ 000000018009eec0 f   GuConvexMesh.obj
 0001:0009df00       ?isKindOf@PxBase@physx@@MEBA_NPEBD@Z 000000018009ef00 f i GuConvexMesh.obj
 0001:0009df20       ?isKindOf@PxConvexMesh@physx@@MEBA_NPEBD@Z 000000018009ef20 f i GuConvexMesh.obj
 0001:0009dfb0       ?isReleasable@PxBase@physx@@UEBA_NXZ 000000018009efb0 f i GuConvexMesh.obj
 0001:0009dfc0       ?load@ConvexMesh@Gu@physx@@QEAA_NAEAVPxInputStream@3@@Z 000000018009efc0 f   GuConvexMesh.obj
 0001:0009e510       ?onRefCountZero@ConvexMesh@Gu@physx@@UEAAXXZ 000000018009f510 f   GuConvexMesh.obj
 0001:0009e640       ?release@ConvexMesh@Gu@physx@@UEAAXXZ 000000018009f640 f   GuConvexMesh.obj
 0001:0009e640       ?release@HeightField@Gu@physx@@UEAAXXZ 000000018009f640 f   GuHeightField.obj
 0001:0009e640       ?release@SoftBodyAuxData@Gu@physx@@UEAAXXZ 000000018009f640 f   GuTetrahedronMesh.obj
 0001:0009e640       ?release@SoftBodyMesh@Gu@physx@@UEAAXXZ 000000018009f640 f   GuTetrahedronMesh.obj
 0001:0009e640       ?release@TetrahedronMesh@Gu@physx@@UEAAXXZ 000000018009f640 f   GuTetrahedronMesh.obj
 0001:0009e640       ?release@TriangleMesh@Gu@physx@@UEAAXXZ 000000018009f640 f   GuTriangleMesh.obj
 0001:0009e670       ??Dphysx@@YA?AV?$PxMat34T@M@0@AEBVPxMeshScale@0@AEBV10@@Z 000000018009f670 f i GuConvexUtilsInternal.obj
 0001:0009ec10       ?computeHullOBB@Gu@physx@@YAXAEAVBox@12@AEBVPxBounds3@2@MAEBV?$PxMat34T@M@2@2AEBVFastVertex2ShapeScaling@Cm@2@_N@Z 000000018009fc10 f   GuConvexUtilsInternal.obj
 0001:0009f0c0       ?computeOBBAroundConvex@Gu@physx@@YAXAEAVBox@12@AEBVPxConvexMeshGeometry@2@PEBVPxConvexMesh@2@AEBV?$PxTransformT@M@2@@Z 00000001800a00c0 f   GuConvexUtilsInternal.obj
 0001:0009f930       ?computeVertexSpaceOBB@Gu@physx@@YAXAEAVBox@12@AEBV312@AEBV?$PxTransformT@M@2@AEBVPxMeshScale@2@@Z 00000001800a0930 f   GuConvexUtilsInternal.obj
 0001:0009fc60       ?transform@physx@@YA?AVBox@Gu@1@AEBV?$PxMat34T@M@1@AEBV231@@Z 00000001800a0c60 f i GuConvexUtilsInternal.obj
 0001:0009feb0       ?localSearch@physx@@YAXAEAIAEBV?$PxVec3T@M@1@PEBV21@PEBUBigConvexRawData@Gu@1@@Z 00000001800a0eb0 f   GuHillClimbing.obj
 0001:0009ffe0       ??0PCMPolygonalBox@Gu@physx@@QEAA@AEBV?$PxVec3T@M@2@@Z 00000001800a0fe0 f   GuPCMShapeConvex.obj
 0001:0009ffe0       ??0PolygonalBox@Gu@physx@@QEAA@AEBV?$PxVec3T@M@2@@Z 00000001800a0fe0 f   GuShapeConvex.obj
 0001:000a14a0       ?getPolygonalData@PolygonalBox@Gu@physx@@QEBAXPEIAUPolygonalData@23@@Z 00000001800a24a0 f   GuShapeConvex.obj
 0001:000a1510       ?getPolygonalData_Convex@Gu@physx@@YAXPEIAUPolygonalData@12@PEIBUConvexHullData@12@AEBVFastVertex2ShapeScaling@Cm@2@@Z 00000001800a2510 f   GuShapeConvex.obj
 0001:000a1670       ?distancePointBoxSquared@Gu@physx@@YAMAEBV?$PxVec3T@M@2@00AEBV?$PxMat33T@M@2@PEAV32@@Z 00000001800a2670 f   GuDistancePointBox.obj
 0001:000a17c0       ?closestPtPointTriangle@Gu@physx@@YA?AV?$PxVec3T@M@2@AEBV32@000AEAM1@Z 00000001800a27c0 f   GuDistancePointTriangle.obj
 0001:000a1ce0       ?distancePointTriangleSquared2UnitBox@Gu@physx@@YA?AT__m128@@AEBT3@000AEAT3@11@Z 00000001800a2ce0 f   GuDistancePointTriangle.obj
 0001:000a1e00       ?distancePointTriangleSquared@Gu@physx@@YA?AT__m128@@AEBT3@000AEAT3@11@Z 00000001800a2e00 f   GuDistancePointTriangle.obj
 0001:000a2b50       ?distanceSegmentBoxSquared@Gu@physx@@YAMAEBV?$PxVec3T@M@2@000AEBV?$PxMat33T@M@2@PEAMPEAV32@@Z 00000001800a3b50 f   GuDistanceSegmentBox.obj
 0001:000a33d0       ?distanceSegmentSegmentSquared4@Gu@physx@@YA?AT__m128@@AEBT3@000000000AEAT3@1@Z 00000001800a43d0 f   GuDistanceSegmentSegment.obj
 0001:000a36e0       ?distanceSegmentSegmentSquared@Gu@physx@@YA?AT__m128@@AEBT3@000AEAT3@1@Z 00000001800a46e0 f   GuDistanceSegmentSegment.obj
 0001:000a38a0       ?distanceSegmentSegmentSquared@Gu@physx@@YAMAEBV?$PxVec3T@M@2@000PEAM1@Z 00000001800a48a0 f   GuDistanceSegmentSegment.obj
 0001:000a3b30       ?distanceSegmentSegmentSquared@Gu@physx@@YAMAEBV?$PxVec3T@M@2@0M00MPEAM1@Z 00000001800a4b30 f   GuDistanceSegmentSegment.obj
 0001:000a4270       ?distanceSegmentTriangleSquared@Gu@physx@@YA?AT__m128@@AEBT3@0000AEAT3@1@Z 00000001800a5270 f   GuDistanceSegmentTriangle.obj
 0001:000a49b0       ?distanceSegmentTriangleSquared@Gu@physx@@YAMAEBV?$PxVec3T@M@2@0000PEAM11@Z 00000001800a59b0 f   GuDistanceSegmentTriangle.obj
 0001:000a6020       ?distanceTriangleTriangleSquared@Gu@physx@@YAMAEAV?$PxVec3T@M@2@0QEBVPxVec3Padded@2@1@Z 00000001800a7020 f   GuDistanceTriangleTriangle.obj
 0001:000a6b40       ?PointOutsideOfPlane4@Gu@physx@@YA?AV?$PxVec4T@M@2@AEBV?$PxVec3T@M@2@0000@Z 00000001800a7b40 f   GuDistancePointTetrahedron.obj
 0001:000a6fb0       ?closestPtPointTetrahedron@Gu@physx@@YA?AV?$PxVec3T@M@2@AEBV32@0000AEBV?$PxVec4T@M@2@@Z 00000001800a7fb0 f   GuDistancePointTetrahedron.obj
 0001:000a80a0       ?PenetrationDepth@EPA@Gu@physx@@QEAA?AW4GjkStatus@23@AEBUGjkConvex@23@0PEIBT__m128@@1E_NT6@AEAUGjkOutput@23@@Z 00000001800a90a0 f   GuEPA.obj
 0001:000a8bc0       ?addFacet@EPA@Gu@physx@@QEAAPEAVFacet@23@IIIAEBT__m128@@@Z 00000001800a9bc0 f   GuEPA.obj
 0001:000a8ff0       ?epaPenetration@Gu@physx@@YA?AW4GjkStatus@12@AEBUGjkConvex@12@0PEIBE1E_NT__m128@@AEAUGjkOutput@12@@Z 00000001800a9ff0 f   GuEPA.obj
 0001:000a9160       ?epaPenetration@Gu@physx@@YA?AW4GjkStatus@12@AEBUGjkConvex@12@0PEIBT__m128@@1E_NT5@AEAUGjkOutput@12@@Z 00000001800aa160 f   GuEPA.obj
 0001:000a9210       ?silhouette@Facet@Gu@physx@@QEAAXAEBT__m128@@PEIBT4@1AEAVEdgeBuffer@23@AEAV?$InlineDeferredIDPool@$0EA@@Cm@3@@Z 00000001800aa210 f   GuEPA.obj
 0001:000a93e0       ?closestPtPointTetrahedron@Gu@physx@@YA?AT__m128@@PEIAT3@00AEAI@Z 00000001800aa3e0 f   GuGJKSimplex.obj
 0001:000a9b50       ?closestPtPointTetrahedron@Gu@physx@@YA?AT__m128@@PEIAT3@00PEIAH1AEAI@Z 00000001800aab50 f   GuGJKSimplex.obj
 0001:000ab5d0       ??$gjk@UGjkConvex@Gu@physx@@U123@@Gu@physx@@YA?AW4GjkStatus@01@AEBUGjkConvex@01@0AEBT__m128@@1AEAT4@222@Z 00000001800ac5d0 f i GuGJKTest.obj
 0001:000ac1f0       ??$gjkPenetration@UGjkConvex@Gu@physx@@U123@@Gu@physx@@YA?AW4GjkStatus@01@AEBUGjkConvex@01@0AEBT__m128@@1_NPEIAE3AEAEAEAUGjkOutput@01@@Z 00000001800ad1f0 f i GuGJKTest.obj
 0001:000ac260       ??$gjkPenetration@UGjkConvex@Gu@physx@@U123@@Gu@physx@@YA?AW4GjkStatus@01@AEBUGjkConvex@01@0AEBT__m128@@1_NPEIAE3PEIAT4@4AEAEAEAUGjkOutput@01@@Z 00000001800ad260 f i GuGJKTest.obj
 0001:000ad6c0       ?testEpaPenetration@Gu@physx@@YA?AW4GjkStatus@12@AEBUGjkConvex@12@0PEBE1EAEAUGjkOutput@12@@Z 00000001800ae6c0 f   GuGJKTest.obj
 0001:000ad710       ?testGjk@Gu@physx@@YA?AW4GjkStatus@12@AEBUGjkConvex@12@0AEBT__m128@@1AEAT5@222@Z 00000001800ae710 f   GuGJKTest.obj
 0001:000ad720       ?testGjkPenetration@Gu@physx@@YA?AW4GjkStatus@12@AEBUGjkConvex@12@0AEBT__m128@@1PEAE2AEAEAEAUGjkOutput@12@@Z 00000001800ae720 f   GuGJKTest.obj
 0001:000ad770       ??0HeightField@Gu@physx@@QEAA@PEAVMeshFactory@12@@Z 00000001800ae770 f   GuHeightField.obj
 0001:000ad7c0       ??0HeightField@Gu@physx@@QEAA@PEAVMeshFactory@12@AEAUHeightFieldData@12@@Z 00000001800ae7c0 f   GuHeightField.obj
 0001:000ad870       ??1HeightField@Gu@physx@@UEAA@XZ 00000001800ae870 f   GuHeightField.obj
 0001:000ad8f0       ??_EHeightField@Gu@physx@@UEAAPEAXI@Z 00000001800ae8f0 f i GuHeightField.obj
 0001:000ad8f0       ??_GHeightField@Gu@physx@@UEAAPEAXI@Z 00000001800ae8f0 f i GuHeightField.obj
 0001:000ad9a0       ?computeCellCoordinates@HeightField@Gu@physx@@QEBAIMMAEAM0@Z 00000001800ae9a0 f   GuHeightField.obj
 0001:000adac0       ?createObject@HeightField@Gu@physx@@SAPEAV123@AEAPEAEAEAVPxDeserializationContext@3@@Z 00000001800aeac0 f   GuHeightField.obj
 0001:000adb10       ?exportExtraData@HeightField@Gu@physx@@UEAAXAEAVPxSerializationContext@3@@Z 00000001800aeb10 f   GuHeightField.obj
 0001:000adb60       ?getConcreteTypeName@PxHeightField@physx@@UEBAPEBDXZ 00000001800aeb60 f i GuHeightField.obj
 0001:000adb70       ?getConvexEdgeThreshold@HeightField@Gu@physx@@UEBAMXZ 00000001800aeb70 f i GuHeightField.obj
 0001:000adb80       ?getFlags@HeightField@Gu@physx@@UEBA?AV?$PxFlags@W4Enum@PxHeightFieldFlag@physx@@G@3@XZ 00000001800aeb80 f i GuHeightField.obj
 0001:000adb90       ?getFormat@HeightField@Gu@physx@@UEBA?AW4Enum@PxHeightFieldFormat@3@XZ 00000001800aeb90 f i GuHeightField.obj
 0001:000adba0       ?getHeight@HeightField@Gu@physx@@UEBAMMM@Z 00000001800aeba0 f i GuHeightField.obj
 0001:000adcc0       ?getNbColumns@HeightField@Gu@physx@@UEBAIXZ 00000001800aecc0 f i GuHeightField.obj
 0001:000adcd0       ?getNbBounds@BVH@Gu@physx@@UEBAIXZ 00000001800aecd0 f i GuBVH.obj
 0001:000adcd0       ?getNbPrimitives@SourceMesh@Gu@physx@@UEBAIXZ 00000001800aecd0 f i GuBV4.obj
 0001:000adcd0       ?getNbPrimitives@TetrahedronSourceMesh@Gu@physx@@UEBAIXZ 00000001800aecd0 f i GuBV4.obj
 0001:000adcd0       ?getNbRows@HeightField@Gu@physx@@UEBAIXZ 00000001800aecd0 f i GuHeightField.obj
 0001:000adce0       ?getSample@HeightField@Gu@physx@@UEBAAEBUPxHeightFieldSample@3@II@Z 00000001800aece0 f i GuHeightField.obj
 0001:000adcf0       ?getSampleStride@HeightField@Gu@physx@@UEBAIXZ 00000001800aecf0 f i GuHeightField.obj
 0001:000add00       ?getTimestamp@HeightField@Gu@physx@@UEBAIXZ 00000001800aed00 f i GuHeightField.obj
 0001:000add10       ?getTriangleMaterialIndex@HeightField@Gu@physx@@UEBAGI@Z 00000001800aed10 f i GuHeightField.obj
 0001:000add40       ?getTriangleNormal@HeightField@Gu@physx@@UEBA?AV?$PxVec3T@M@3@I@Z 00000001800aed40 f i GuHeightField.obj
 0001:000add60       ?getTriangleNormalInternal@HeightField@Gu@physx@@QEBA?AV?$PxVec3T@M@3@I@Z 00000001800aed60 f i GuHeightField.obj
 0001:000ae090       ?isCollisionVertexPreca@HeightField@Gu@physx@@QEBA_NIIIG@Z 00000001800af090 f   GuHeightField.obj
 0001:000ae130       ?isConvexVertex@HeightField@Gu@physx@@QEBA_NIII@Z 00000001800af130 f i GuHeightField.obj
 0001:000ae200       ?isKindOf@PxHeightField@physx@@MEBA_NPEBD@Z 00000001800af200 f i GuHeightField.obj
 0001:000ae290       ?isSolidVertex@HeightField@Gu@physx@@QEBA_NIIIGAEA_N@Z 00000001800af290 f   GuHeightField.obj
 0001:000ae520       ?load@HeightField@Gu@physx@@QEAA_NAEAVPxInputStream@3@@Z 00000001800af520 f   GuHeightField.obj
 0001:000ae880       ?loadFromDesc@HeightField@Gu@physx@@QEAA_NAEBVPxHeightFieldDesc@3@@Z 00000001800af880 f   GuHeightField.obj
 0001:000aea80       ?modifySamples@HeightField@Gu@physx@@UEAA_NHHAEBVPxHeightFieldDesc@3@_N@Z 00000001800afa80 f   GuHeightField.obj
 0001:000aedf0       ?onRefCountZero@HeightField@Gu@physx@@UEAAXXZ 00000001800afdf0 f   GuHeightField.obj
 0001:000aeec0       ?parseTrianglesForCollisionVertices@HeightField@Gu@physx@@QEAAXG@Z 00000001800afec0 f   GuHeightField.obj
 0001:000af3d0       ?releaseMemory@HeightField@Gu@physx@@QEAAXXZ 00000001800b03d0 f   GuHeightField.obj
 0001:000af420       ?resizeAndClear@?$PxBitMapBase@VPxAllocator@physx@@@physx@@QEAAXI@Z 00000001800b0420 f i GuHeightField.obj
 0001:000af4d0       ?save@HeightField@Gu@physx@@QEAA_NAEAVPxOutputStream@3@_N@Z 00000001800b04d0 f   GuHeightField.obj
 0001:000af710       ?saveCells@HeightField@Gu@physx@@UEBAIPEAXI@Z 00000001800b0710 f   GuHeightField.obj
 0001:000af750       ?computeLocalBounds@HeightFieldUtil@Gu@physx@@QEBAXAEAVPxBounds3@3@@Z 00000001800b0750 f   GuHeightFieldUtil.obj
 0001:000afc20       ?getTriangle@HeightFieldUtil@Gu@physx@@QEBAIAEBV?$PxTransformT@M@3@AEAVPxTriangle@3@PEAI2I_N3@Z 00000001800b0c20 f   GuHeightFieldUtil.obj
 0001:000b0720       ?getTriangleAdjacencyIndices@HeightField@Gu@physx@@QEBAXIIIIAEAI00@Z 00000001800b1720 f i GuHeightFieldUtil.obj
 0001:000b08d0       ?getTriangleVertexIndices@HeightField@Gu@physx@@QEBAXIAEAI00@Z 00000001800b18d0 f i GuHeightFieldUtil.obj
 0001:000b0990       ?overlapAABBTriangles@HeightFieldUtil@Gu@physx@@QEBAXAEBVPxBounds3@3@AEAVOverlapReport@23@I@Z 00000001800b1990 f   GuHeightFieldUtil.obj
 0001:000b0df0       ??$gjk@U?$RelativeConvex@VTriangleV@Gu@physx@@@Gu@physx@@U?$LocalConvex@VConvexHullV@Gu@physx@@@23@@Gu@physx@@YA?AW4GjkStatus@01@AEBU?$RelativeConvex@VTriangleV@Gu@physx@@@01@AEBU?$LocalConvex@VConvexHullV@Gu@physx@@@01@AEBT__m128@@2AEAT5@333@Z 00000001800b1df0 f i GuOverlapTestsHF.obj
 0001:000b1d30       ?GeomOverlapCallback_BoxHeightfield@@YA_NAEBVPxGeometry@physx@@AEBV?$PxTransformT@M@2@01PEAUTriggerCache@Gu@2@PEAUPxQueryThreadContext@2@@Z 00000001800b2d30 f   GuOverlapTestsHF.obj
 0001:000b2290       ?GeomOverlapCallback_CapsuleHeightfield@@YA_NAEBVPxGeometry@physx@@AEBV?$PxTransformT@M@2@01PEAUTriggerCache@Gu@2@PEAUPxQueryThreadContext@2@@Z 00000001800b3290 f   GuOverlapTestsHF.obj
 0001:000b2890       ?GeomOverlapCallback_ConvexHeightfield@@YA_NAEBVPxGeometry@physx@@AEBV?$PxTransformT@M@2@01PEAUTriggerCache@Gu@2@PEAUPxQueryThreadContext@2@@Z 00000001800b3890 f   GuOverlapTestsHF.obj
 0001:000b32d0       ?GeomOverlapCallback_SphereHeightfield@@YA_NAEBVPxGeometry@physx@@AEBV?$PxTransformT@M@2@01PEAUTriggerCache@Gu@2@PEAUPxQueryThreadContext@2@@Z 00000001800b42d0 f   GuOverlapTestsHF.obj
 0001:000b3e90       ??$gjkRaycast@U?$LocalConvex@VTriangleV@Gu@physx@@@Gu@physx@@U?$LocalConvex@VConvexHullV@Gu@physx@@@23@@Gu@physx@@YA_NAEBU?$LocalConvex@VTriangleV@Gu@physx@@@01@AEBU?$LocalConvex@VConvexHullV@Gu@physx@@@01@AEBT__m128@@222AEAT4@33M@Z 00000001800b4e90 f i GuSweepsHF.obj
 0001:000b4c90       ??$traceSegment@VBoxTraceSegmentReport@@$0A@$00@HeightFieldTraceUtil@Gu@physx@@QEBAXAEBV?$PxVec3T@M@2@0MPEAVBoxTraceSegmentReport@@AEBVPxBounds3@2@_NPEBV32@@Z 00000001800b5c90 f i GuSweepsHF.obj
 0001:000b4c90       ??$traceSegment@VCapsuleTraceSegmentReport@@$0A@$00@HeightFieldTraceUtil@Gu@physx@@QEBAXAEBV?$PxVec3T@M@2@0MPEAVCapsuleTraceSegmentReport@@AEBVPxBounds3@2@_NPEBV32@@Z 00000001800b5c90 f i GuSweepsHF.obj
 0001:000b4c90       ??$traceSegment@VConvexTraceSegmentReport@@$0A@$00@HeightFieldTraceUtil@Gu@physx@@QEBAXAEBV?$PxVec3T@M@2@0MPEAVConvexTraceSegmentReport@@AEBVPxBounds3@2@_NPEBV32@@Z 00000001800b5c90 f i GuSweepsHF.obj
 0001:000b5460       ??0ConvexTraceSegmentReport@@QEAA@AEBVHeightFieldUtil@Gu@physx@@AEBUConvexHullData@23@AEBVPxMeshScale@3@AEBV?$PxTransformT@M@3@3AEBV?$PxVec3T@M@3@MV?$PxFlags@W4Enum@PxHitFlag@physx@@G@3@M@Z 00000001800b6460 f i GuSweepsHF.obj
 0001:000b5de0       ??_EBoxTraceSegmentReport@@UEAAPEAXI@Z 00000001800b6de0 f i GuSweepsHF.obj
 0001:000b5de0       ??_GBoxTraceSegmentReport@@UEAAPEAXI@Z 00000001800b6de0 f i GuSweepsHF.obj
 0001:000b5e10       ??_ECapsuleTraceSegmentReport@@UEAAPEAXI@Z 00000001800b6e10 f i GuSweepsHF.obj
 0001:000b5e10       ??_GCapsuleTraceSegmentReport@@UEAAPEAXI@Z 00000001800b6e10 f i GuSweepsHF.obj
 0001:000b5e40       ??_EConvexTraceSegmentReport@@UEAAPEAXI@Z 00000001800b6e40 f i GuSweepsHF.obj
 0001:000b5e40       ??_GConvexTraceSegmentReport@@UEAAPEAXI@Z 00000001800b6e40 f i GuSweepsHF.obj
 0001:000b5e70       ??_EHeightFieldTraceSegmentReport@@UEAAPEAXI@Z 00000001800b6e70 f i GuSweepsHF.obj
 0001:000b5e70       ??_GHeightFieldTraceSegmentReport@@UEAAPEAXI@Z 00000001800b6e70 f i GuSweepsHF.obj
 0001:000b5ea0       ?finalizeHit@ConvexTraceSegmentReport@@QEAA_NAEAUPxGeomSweepHit@physx@@AEBVPxHeightFieldGeometry@3@AEBV?$PxTransformT@M@3@AEBVPxConvexMeshGeometry@3@2AEBV?$PxVec3T@M@3@M@Z 00000001800b6ea0 f i GuSweepsHF.obj
 0001:000b60d0       ?onEvent@BoxTraceSegmentReport@@UEAA_NIPEBI@Z 00000001800b70d0 f i GuSweepsHF.obj
 0001:000b6520       ?onEvent@CapsuleTraceSegmentReport@@UEAA_NIPEBI@Z 00000001800b7520 f i GuSweepsHF.obj
 0001:000b6750       ?onEvent@ConvexTraceSegmentReport@@UEAA_NIPEBI@Z 00000001800b7750 f i GuSweepsHF.obj
 0001:000b6d10       ?prepare@?$OverlapTraceSegment@VBoxTraceSegmentReport@@@HeightFieldTraceUtil@Gu@physx@@QEAAXAEBV?$PxVec3T@M@4@00AEAM1@Z 00000001800b7d10 f i GuSweepsHF.obj
 0001:000b6d10       ?prepare@?$OverlapTraceSegment@VCapsuleTraceSegmentReport@@@HeightFieldTraceUtil@Gu@physx@@QEAAXAEBV?$PxVec3T@M@4@00AEAM1@Z 00000001800b7d10 f i GuSweepsHF.obj
 0001:000b6d10       ?prepare@?$OverlapTraceSegment@VConvexTraceSegmentReport@@@HeightFieldTraceUtil@Gu@physx@@QEAAXAEBV?$PxVec3T@M@4@00AEAM1@Z 00000001800b7d10 f i GuSweepsHF.obj
 0001:000b6fd0       ?sweepBox_HeightFieldGeom@@YA_NAEBVPxGeometry@physx@@AEBV?$PxTransformT@M@2@AEBVPxBoxGeometry@2@1AEBVBox@Gu@2@AEBV?$PxVec3T@M@2@MAEAUPxGeomSweepHit@2@V?$PxFlags@W4Enum@PxHitFlag@physx@@G@2@MPEAUPxQueryThreadContext@2@@Z 00000001800b7fd0 f   GuSweepsHF.obj
 0001:000b7e20       ?sweepCapsule_HeightFieldGeom@@YA_NAEBVPxGeometry@physx@@AEBV?$PxTransformT@M@2@AEBVPxCapsuleGeometry@2@1AEBVCapsule@Gu@2@AEBV?$PxVec3T@M@2@MAEAUPxGeomSweepHit@2@V?$PxFlags@W4Enum@PxHitFlag@physx@@G@2@MPEAUPxQueryThreadContext@2@@Z 00000001800b8e20 f   GuSweepsHF.obj
 0001:000b8770       ?sweepConvex_HeightFieldGeom@@YA_NAEBVPxGeometry@physx@@AEBV?$PxTransformT@M@2@AEBVPxConvexMeshGeometry@2@1AEBV?$PxVec3T@M@2@MAEAUPxGeomSweepHit@2@V?$PxFlags@W4Enum@PxHitFlag@physx@@G@2@MPEAUPxQueryThreadContext@2@@Z 00000001800b9770 f   GuSweepsHF.obj
 0001:000b9140       ?testVertexIndex@?$OverlapTraceSegment@VBoxTraceSegmentReport@@@HeightFieldTraceUtil@Gu@physx@@QEAA_NI@Z 00000001800ba140 f i GuSweepsHF.obj
 0001:000b9140       ?testVertexIndex@?$OverlapTraceSegment@VCapsuleTraceSegmentReport@@@HeightFieldTraceUtil@Gu@physx@@QEAA_NI@Z 00000001800ba140 f i GuSweepsHF.obj
 0001:000b9140       ?testVertexIndex@?$OverlapTraceSegment@VConvexTraceSegmentReport@@@HeightFieldTraceUtil@Gu@physx@@QEAA_NI@Z 00000001800ba140 f i GuSweepsHF.obj
 0001:000b92a0       ?transformFast@PxBounds3@physx@@SA?AV12@AEBV?$PxTransformT@M@2@AEBV12@@Z 00000001800ba2a0 f i GuSweepsHF.obj
 0001:000b9680       ?visitCells@?$OverlapTraceSegment@VBoxTraceSegmentReport@@@HeightFieldTraceUtil@Gu@physx@@QEAA_NAEBUOverlapRectangle@1234@@Z 00000001800ba680 f i GuSweepsHF.obj
 0001:000b9680       ?visitCells@?$OverlapTraceSegment@VCapsuleTraceSegmentReport@@@HeightFieldTraceUtil@Gu@physx@@QEAA_NAEBUOverlapRectangle@1234@@Z 00000001800ba680 f i GuSweepsHF.obj
 0001:000b9680       ?visitCells@?$OverlapTraceSegment@VConvexTraceSegmentReport@@@HeightFieldTraceUtil@Gu@physx@@QEAA_NAEBUOverlapRectangle@1234@@Z 00000001800ba680 f i GuSweepsHF.obj
 0001:000b9870       ?intersectOBBOBB@Gu@physx@@YA_NAEBV?$PxVec3T@M@2@0AEBV?$PxMat33T@M@2@001_N@Z 00000001800ba870 f   GuIntersectionBoxBox.obj
 0001:000b9ec0       ?intersectCapsuleTriangle@Gu@physx@@YA_NAEBV?$PxVec3T@M@2@000AEBVCapsule@12@AEBUCapsuleTriangleOverlapData@12@@Z 00000001800baec0 f   GuIntersectionCapsuleTriangle.obj
 0001:000baab0       ?intersectEdgeEdge@Gu@physx@@YA_NAEBV?$PxVec3T@M@2@0000AEAMAEAV32@@Z 00000001800bbab0 f   GuIntersectionEdgeEdge.obj
 0001:000badd0       ?intersectRayAABB2@Gu@physx@@YA_NAEBT__m128@@0000AEAT3@1@Z 00000001800bbdd0 f   GuIntersectionRayBox.obj
 0001:000bae90       ?intersectRayAABB2@Gu@physx@@YA_NAEBV?$PxVec3T@M@2@000MAEAM1@Z 00000001800bbe90 f   GuIntersectionRayBox.obj
 0001:000bb040       ?intersectRayAABB@Gu@physx@@YAHAEBV?$PxVec3T@M@2@000AEAM1@Z 00000001800bc040 f   GuIntersectionRayBox.obj
 0001:000bb150       ?rayAABBIntersect2@Gu@physx@@YAIAEBV?$PxVec3T@M@2@000AEAV32@AEAM@Z 00000001800bc150 f   GuIntersectionRayBox.obj
 0001:000bb350       ?intersectRayCapsuleInternal@Gu@physx@@YAIAEBV?$PxVec3T@M@2@000MQEAM@Z 00000001800bc350 f   GuIntersectionRayCapsule.obj
 0001:000bb810       ?intersectRaySphere@Gu@physx@@YA_NAEBV?$PxVec3T@M@2@0M0MAEAMPEAV32@@Z 00000001800bc810 f   GuIntersectionRaySphere.obj
 0001:000bb900       ?intersectRaySphereBasic@Gu@physx@@YA_NAEBV?$PxVec3T@M@2@0M0MAEAMPEAV32@@Z 00000001800bc900 f   GuIntersectionRaySphere.obj
 0001:000bba60       ?intersectSphereBox@Gu@physx@@YA_NAEBVSphere@12@AEBVBox@12@@Z 00000001800bca60 f   GuIntersectionSphereBox.obj
 0001:000bbc90       ?intersectTetrahedronBox@Gu@physx@@YA_NAEBV?$PxVec3T@M@2@000AEBVPxBounds3@2@@Z 00000001800bcc90 f   GuIntersectionTetrahedronBox.obj
 0001:000bc060       ?intersectTriangleBox@Gu@physx@@YAHAEBVBoxPadded@12@AEBV?$PxVec3T@M@2@11@Z 00000001800bd060 f   GuIntersectionTriangleBox.obj
 0001:000bc630       ?intersectTriangleBoxBV4@@YAHAEBV?$PxVec3T@M@physx@@00AEBV?$PxMat33T@M@2@00@Z 00000001800bd630 f   GuIntersectionTriangleBox.obj
 0001:000bca70       ?intersectTriangleBox_ReferenceCode@Gu@physx@@YAHAEBV?$PxVec3T@M@2@0000@Z 00000001800bda70 f   GuIntersectionTriangleBox.obj
 0001:000bd240       ?intersectTriangleBox_Unsafe@Gu@physx@@YAHAEBV?$PxVec3T@M@2@0000@Z 00000001800be240 f   GuIntersectionTriangleBox.obj
 0001:000bd600       ?trianglesIntersect@Gu@physx@@YA_NAEBV?$PxVec3T@M@2@00000_N@Z 00000001800be600 f   GuIntersectionTriangleTriangle.obj
 0001:000bea10       ??0BV4Tree@Gu@physx@@QEAA@W4PxEMPTY@2@@Z 00000001800bfa10 f   GuBV4.obj
 0001:000bea20       ??0BV4Tree@Gu@physx@@QEAA@XZ 00000001800bfa20 f   GuBV4.obj
 0001:000bea50       ??0SourceMesh@Gu@physx@@QEAA@XZ 00000001800bfa50 f   GuBV4.obj
 0001:000bea80       ??0TetrahedronSourceMesh@Gu@physx@@QEAA@XZ 00000001800bfa80 f   GuBV4.obj
 0001:000beab0       ??1BV4Tree@Gu@physx@@QEAA@XZ 00000001800bfab0 f   GuBV4.obj
 0001:000beb10       ??1SourceMesh@Gu@physx@@UEAA@XZ 00000001800bfb10 f   GuBV4.obj
 0001:000beb10       ??1TetrahedronSourceMesh@Gu@physx@@UEAA@XZ 00000001800bfb10 f   GuBV4.obj
 0001:000beb60       ??4BV4Tree@Gu@physx@@QEAAXAEAV012@@Z 00000001800bfb60 f   GuBV4.obj
 0001:000bebf0       ??4SourceMesh@Gu@physx@@QEAAXAEAV012@@Z 00000001800bfbf0 f   GuBV4.obj
 0001:000bec40       ??_ESourceMesh@Gu@physx@@UEAAPEAXI@Z 00000001800bfc40 f i GuBV4.obj
 0001:000bec40       ??_ETetrahedronSourceMesh@Gu@physx@@UEAAPEAXI@Z 00000001800bfc40 f i GuBV4.obj
 0001:000bec40       ??_GSourceMesh@Gu@physx@@UEAAPEAXI@Z 00000001800bfc40 f i GuBV4.obj
 0001:000bec40       ??_GTetrahedronSourceMesh@Gu@physx@@UEAAPEAXI@Z 00000001800bfc40 f i GuBV4.obj
 0001:000bece0       ??_ESourceMeshBase@Gu@physx@@UEAAPEAXI@Z 00000001800bfce0 f i GuBV4.obj
 0001:000bece0       ??_GSourceMeshBase@Gu@physx@@UEAAPEAXI@Z 00000001800bfce0 f i GuBV4.obj
 0001:000bed80       ?exportExtraData@BV4Tree@Gu@physx@@QEAAXAEAVPxSerializationContext@3@@Z 00000001800bfd80 f   GuBV4.obj
 0001:000bede0       ?getPrimitiveBox@SourceMesh@Gu@physx@@UEAAXIAEAT__m128@@0@Z 00000001800bfde0 f   GuBV4.obj
 0001:000bee80       ?getPrimitiveBox@TetrahedronSourceMesh@Gu@physx@@UEAAXIAEAT__m128@@0@Z 00000001800bfe80 f   GuBV4.obj
 0001:000bef40       ?importExtraData@BV4Tree@Gu@physx@@QEAAXAEAVPxDeserializationContext@3@@Z 00000001800bff40 f   GuBV4.obj
 0001:000bef90       ?init@BV32Tree@Gu@physx@@QEAA_NPEAVSourceMeshBase@23@AEBVPxBounds3@3@@Z 00000001800bff90 f   GuBV32.obj
 0001:000bef90       ?init@BV4Tree@Gu@physx@@QEAA_NPEAVSourceMeshBase@23@AEBVPxBounds3@3@@Z 00000001800bff90 f   GuBV4.obj
 0001:000bf030       ?load@BV4Tree@Gu@physx@@QEAA_NAEAVPxInputStream@3@_N@Z 00000001800c0030 f   GuBV4.obj
 0001:000bf270       ?refit@BV4Tree@Gu@physx@@QEAA_NAEAVPxBounds3@3@M@Z 00000001800c0270 f   GuBV4.obj
 0001:000bf8e0       ?refit@SourceMesh@Gu@physx@@UEAAXIAEAVPxBounds3@3@@Z 00000001800c08e0 f   GuBV4.obj
 0001:000bfa80       ?refit@TetrahedronSourceMesh@Gu@physx@@UEAAXIAEAVPxBounds3@3@@Z 00000001800c0a80 f   GuBV4.obj
 0001:000bfca0       ?remapTopology@SourceMesh@Gu@physx@@UEAAXPEBI@Z 00000001800c0ca0 f   GuBV4.obj
 0001:000bff30       ?remapTopology@TetrahedronSourceMesh@Gu@physx@@UEAAXPEBI@Z 00000001800c0f30 f   GuBV4.obj
 0001:000c01b0       ??0BV4_AABBTree@Gu@physx@@QEAA@XZ 00000001800c11b0 f   GuBV4Build.obj
 0001:000c01c0       ??0BVData@@QEAA@XZ         00000001800c11c0 f   GuBV4Build.obj
 0001:000c01f0       ??0BuildStats@Gu@physx@@QEAA@XZ 00000001800c11f0 f i GuBV4Build.obj
 0001:000c0200       ??1BV4_AABBTree@Gu@physx@@QEAA@XZ 00000001800c1200 f   GuBV4Build.obj
 0001:000c0210       ??4BuildStats@Gu@physx@@QEAAAEAU012@$$QEAU012@@Z 00000001800c1210 f i GuBV4Build.obj
 0001:000c0220       ??4BuildStats@Gu@physx@@QEAAAEAU012@AEBU012@@Z 00000001800c1220 f i GuBV4Build.obj
 0001:000c0230       ?BuildBV4Ex@Gu@physx@@YA_NAEAVBV4Tree@12@AEAVSourceMeshBase@12@MI_NW4BV4_BuildStrategy@12@@Z 00000001800c1230 f   GuBV4Build.obj
 0001:000c1100       ?allocateNode@BV4BuildParams@@QEAAPEAUBV4Node@@XZ 00000001800c2100 f   GuBV4Build.obj
 0001:000c1570       ?buildFromMesh@BV4_AABBTree@Gu@physx@@QEAA_NAEAVSourceMeshBase@23@IW4BV4_BuildStrategy@23@@Z 00000001800c2570 f   GuBV4Build.obj
 0001:000c24a0       ?increaseCount@BuildStats@Gu@physx@@QEAAXI@Z 00000001800c34a0 f i GuBV4Build.obj
 0001:000c2f00       ?release@BV4_AABBTree@Gu@physx@@QEAAXXZ 00000001800c3f00 f   GuBV4Build.obj
 0001:000c2fb0       ?releaseNodes@BV4BuildParams@@QEAAXXZ 00000001800c3fb0 f   GuBV4Build.obj
 0001:000c3020       ?reset@BuildStats@Gu@physx@@QEAAXXZ 00000001800c4020 f i GuBV4Build.obj
 0001:000c3030       ?setCount@BuildStats@Gu@physx@@QEAAXI@Z 00000001800c4030 f i GuBV4Build.obj
 0001:000c3690       ?walk@BV4_AABBTree@Gu@physx@@QEBAIP6A_NPEBVAABBTreeNode@23@IPEAX@Z1@Z 00000001800c4690 f   GuBV4Build.obj
 0001:000c3750       ?walkDistance@BV4_AABBTree@Gu@physx@@QEBAIP6A_NPEBVAABBTreeNode@23@IPEAX@ZP6A_N01@Z1@Z 00000001800c4750 f   GuBV4Build.obj
 0001:000c7770       ?GenericSweep_AABB_CB@@YAXAEBVBox@Gu@physx@@AEBV?$PxVec3T@M@3@MAEBVBV4Tree@23@P6A_NPEAX111IAEAM@Z3I@Z 00000001800c8770 f   GuBV4_AABBSweep.obj
 0001:000c78d0       ?Sweep_AABB_BV4@@YAHAEBVBox@Gu@physx@@AEBV?$PxVec3T@M@3@MAEBVBV4Tree@23@PEIAVSweepHit@23@I@Z 00000001800c88d0 f   GuBV4_AABBSweep.obj
 0001:000d0610       ?BV4_OverlapBoxAll@@YAIAEBVBox@Gu@physx@@AEBVBV4Tree@23@PEIBV?$PxMat44T@M@3@PEAIIAEA_N@Z 00000001800d1610 f   GuBV4_BoxOverlap.obj
 0001:000d0e20       ?BV4_OverlapBoxAny@@YAHAEBVBox@Gu@physx@@AEBVBV4Tree@23@PEIBV?$PxMat44T@M@3@@Z 00000001800d1e20 f   GuBV4_BoxOverlap.obj
 0001:000d1620       ?BV4_OverlapBoxCB@@YAXAEBVBox@Gu@physx@@AEBVBV4Tree@23@P6A_NPEAXAEBV?$PxVec3T@M@3@333IPEBI@Z2@Z 00000001800d2620 f   GuBV4_BoxOverlap.obj
 0001:000d1ce0       ?BV4_OverlapBoxCB@@YAXAEBVBox@Gu@physx@@AEBVBV4Tree@23@P6A_NPEAXAEBV?$PxVec3T@M@3@33IPEBI@Z2@Z 00000001800d2ce0 f   GuBV4_BoxOverlap.obj
 0001:000d2190       ?BV4_OverlapCapsuleAll@@YAIAEBVCapsule@Gu@physx@@AEBVBV4Tree@23@PEIBV?$PxMat44T@M@3@PEAIIAEA_N@Z 00000001800d3190 f   GuBV4_BoxOverlap.obj
 0001:000d28b0       ?BV4_OverlapCapsuleAny@@YAHAEBVCapsule@Gu@physx@@AEBVBV4Tree@23@PEIBV?$PxMat44T@M@3@@Z 00000001800d38b0 f   GuBV4_BoxOverlap.obj
 0001:000d5760       ?BV4_CapsuleSweepSingle@@YAHAEBVCapsule@Gu@physx@@AEBV?$PxVec3T@M@3@MAEBVBV4Tree@23@PEIAVSweepHit@23@I@Z 00000001800d6760 f   GuBV4_CapsuleSweep.obj
 0001:000d9830       ?BV4_CapsuleSweepSingleAA@@YAHAEBVCapsule@Gu@physx@@AEBV?$PxVec3T@M@3@MAEBVBV4Tree@23@PEIAVSweepHit@23@I@Z 00000001800da830 f   GuBV4_CapsuleSweepAA.obj
 0001:000e9e60       ?BV4_OverlapMeshVsMesh@@YA_NAEAV?$PxReportCallback@UPxGeomIndexPair@physx@@@physx@@AEBVBV4Tree@Gu@2@1PEBV?$PxMat44T@M@2@2AEBV?$PxTransformT@M@2@3AEBVPxMeshScale@2@4V?$PxFlags@W4Enum@PxMeshMeshQueryFlag@physx@@I@2@M@Z 00000001800eae60 f   GuBV4_MeshMeshOverlap.obj
 0001:000ea0a0       ?BV4_OverlapMeshVsMesh@@YA_NAEAV?$PxReportCallback@UPxGeomIndexPair@physx@@@physx@@AEBVBV4Tree@Gu@2@1PEBV?$PxMat44T@M@2@2V?$PxFlags@W4Enum@PxMeshMeshQueryFlag@physx@@I@2@M@Z 00000001800eb0a0 f   GuBV4_MeshMeshOverlap.obj
 0001:000f3870       ??D?$PxMat33T@M@physx@@QEBA?BV?$PxVec3T@M@1@AEBV21@@Z 00000001800f4870 f i GuBV4_OBBSweep.obj
 0001:000f3900       ?BV4_BoxSweepSingle@@YAHAEBVBox@Gu@physx@@AEBV?$PxVec3T@M@3@MAEBVBV4Tree@23@PEIBV?$PxMat44T@M@3@PEIAVSweepHit@23@I@Z 00000001800f4900 f   GuBV4_OBBSweep.obj
 0001:000f4030       ?BV4_GenericSweepCB@@YAXAEBVBox@Gu@physx@@AEBV?$PxVec3T@M@3@MAEBVBV4Tree@23@P6A_NPEAX111IAEAM@Z3_N@Z 00000001800f5030 f   GuBV4_OBBSweep.obj
 0001:000f4260       ?Sweep_OBB_BV4@@YAHAEBVBox@Gu@physx@@AEBV?$PxVec3T@M@3@MAEBVBV4Tree@23@PEIAVSweepHit@23@I@Z 00000001800f5260 f   GuBV4_OBBSweep.obj
 0001:000f6da0       ?BV4_RaycastCB@@YAXAEBV?$PxVec3T@M@physx@@0AEBVBV4Tree@Gu@2@PEIBV?$PxMat44T@M@2@MMIP6A?AW4HitCode@42@PEAX000IMMM@Z3@Z 00000001800f7da0 f   GuBV4_Raycast.obj
 0001:000f71e0       ?BV4_RaycastSingle@@YAHAEBV?$PxVec3T@M@physx@@0AEBVBV4Tree@Gu@2@PEIBV?$PxMat44T@M@2@PEIAUPxGeomRaycastHit@2@MMIV?$PxFlags@W4Enum@PxHitFlag@physx@@G@2@@Z 00000001800f81e0 f   GuBV4_Raycast.obj
 0001:000f9710       ?BV4_OverlapSphereAll@@YAIAEBVSphere@Gu@physx@@AEBVBV4Tree@23@PEIBV?$PxMat44T@M@3@PEAIIAEA_N@Z 00000001800fa710 f   GuBV4_SphereOverlap.obj
 0001:000f9a30       ?BV4_OverlapSphereAny@@YAHAEBVSphere@Gu@physx@@AEBVBV4Tree@23@PEIBV?$PxMat44T@M@3@@Z 00000001800faa30 f   GuBV4_SphereOverlap.obj
 0001:000f9d10       ?BV4_PointDistance@@YAXAEBV?$PxVec3T@M@physx@@AEBVBV4Tree@Gu@2@MAEAIAEAMAEAV12@@Z 00000001800fad10 f   GuBV4_SphereOverlap.obj
 0001:001006e0       ?BV4_GenericSweepCB_Old@@YAXAEBV?$PxVec3T@M@physx@@00MAEBVBV4Tree@Gu@2@PEIBV?$PxMat44T@M@2@P6A_NPEAX000IAEAM@Z3@Z 00000001801016e0 f   GuBV4_SphereSweep.obj
 0001:00100af0       ?BV4_SphereSweepSingle@@YAHAEBVSphere@Gu@physx@@AEBV?$PxVec3T@M@3@MAEBVBV4Tree@23@PEIBV?$PxMat44T@M@3@PEIAVSweepHit@23@I@Z 0000000180101af0 f   GuBV4_SphereSweep.obj
 0001:00101e00       ?computeSweepData@physx@@YAMAEBVPxTriangleMeshGeometry@1@AEAV?$PxVec3T@M@1@11M@Z 0000000180102e00 f i GuMidphaseBV4.obj
 0001:00103240       ?intersectBoxVsMesh_BV4@Gu@physx@@YA_NAEBVBox@12@AEBVTriangleMesh@12@AEBV?$PxTransformT@M@2@AEBVPxMeshScale@2@PEAULimitedResults@12@@Z 0000000180104240 f   GuMidphaseBV4.obj
 0001:00103d20       ?intersectCapsuleVsMesh_BV4@Gu@physx@@YA_NAEBVCapsule@12@AEBVTriangleMesh@12@AEBV?$PxTransformT@M@2@AEBVPxMeshScale@2@PEAULimitedResults@12@@Z 0000000180104d20 f   GuMidphaseBV4.obj
 0001:00104530       ?intersectMeshVsMesh_BV4@Gu@physx@@YA_NAEAV?$PxReportCallback@UPxGeomIndexPair@physx@@@2@AEBVTriangleMesh@12@AEBV?$PxTransformT@M@2@AEBVPxMeshScale@2@123V?$PxFlags@W4Enum@PxMeshMeshQueryFlag@physx@@I@2@M@Z 0000000180105530 f   GuMidphaseBV4.obj
 0001:00104e50       ?intersectOBB_BV4@Gu@physx@@YAXPEBVTetrahedronMesh@12@AEBVBox@12@AEAU?$TetMeshHitCallback@UPxGeomRaycastHit@physx@@@12@@Z 0000000180105e50 f   GuMidphaseBV4.obj
 0001:00104e70       ?intersectOBB_BV4@Gu@physx@@YAXPEBVTriangleMesh@12@AEBVBox@12@AEAU?$MeshHitCallback@UPxGeomRaycastHit@physx@@@12@_N3@Z 0000000180105e70 f   GuMidphaseBV4.obj
 0001:00104e90       ?intersectSphereVsMesh_BV4@Gu@physx@@YA_NAEBVSphere@12@AEBVTriangleMesh@12@AEBV?$PxTransformT@M@2@AEBVPxMeshScale@2@PEAULimitedResults@12@@Z 0000000180105e90 f   GuMidphaseBV4.obj
 0001:00105590       ?pointMeshDistance_BV4@Gu@physx@@YAXPEBVTriangleMesh@12@AEBVPxTriangleMeshGeometry@2@AEBV?$PxTransformT@M@2@AEBV?$PxVec3T@M@2@MAEAIAEAMAEAV62@@Z 0000000180106590 f   GuMidphaseBV4.obj
 0001:00105c40       ?raycast_triangleMesh_BV4@Gu@physx@@YAIPEBVTriangleMesh@12@AEBVPxTriangleMeshGeometry@2@AEBV?$PxTransformT@M@2@AEBV?$PxVec3T@M@2@3MV?$PxFlags@W4Enum@PxHitFlag@physx@@G@2@IPEIAUPxGeomRaycastHit@2@I@Z 0000000180106c40 f   GuMidphaseBV4.obj
 0001:00106a50       ?sweepBox_MeshGeom_BV4@Gu@physx@@YA_NPEBVTriangleMesh@12@AEBVPxTriangleMeshGeometry@2@AEBV?$PxTransformT@M@2@AEBVBox@12@AEBV?$PxVec3T@M@2@MAEAUPxGeomSweepHit@2@V?$PxFlags@W4Enum@PxHitFlag@physx@@G@2@M@Z 0000000180107a50 f   GuMidphaseBV4.obj
 0001:00108150       ?sweepCapsule_MeshGeom_BV4@Gu@physx@@YA_NPEBVTriangleMesh@12@AEBVPxTriangleMeshGeometry@2@AEBV?$PxTransformT@M@2@AEBVCapsule@12@AEBV?$PxVec3T@M@2@MAEAUPxGeomSweepHit@2@V?$PxFlags@W4Enum@PxHitFlag@physx@@G@2@M@Z 0000000180109150 f   GuMidphaseBV4.obj
 0001:00108c70       ?sweepConvex_MeshGeom_BV4@Gu@physx@@YAXPEBVTriangleMesh@12@AEBVBox@12@AEBV?$PxVec3T@M@2@MAEAUSweepConvexMeshHitCallback@12@_N@Z 0000000180109c70 f   GuMidphaseBV4.obj
 0001:00108cb0       ?transform@PxMeshScale@physx@@QEBA?AV?$PxVec3T@M@2@AEBV32@@Z 0000000180109cb0 f i GuMidphaseBV4.obj
 0001:00108ef0       ?findOverlapHeightField@PxMeshQuery@physx@@SAIAEBVPxGeometry@2@AEBV?$PxTransformT@M@2@AEBVPxHeightFieldGeometry@2@1PEAIIIAEA_NV?$PxFlags@W4Enum@PxGeometryQueryFlag@physx@@I@2@@Z 0000000180109ef0 f   GuMeshQuery.obj
 0001:00109660       ?findOverlapTriangleMesh@PxMeshQuery@physx@@SAIAEBVPxGeometry@2@AEBV?$PxTransformT@M@2@AEBVPxTriangleMeshGeometry@2@1PEAIIIAEA_NV?$PxFlags@W4Enum@PxGeometryQueryFlag@physx@@I@2@@Z 000000018010a660 f   GuMeshQuery.obj
 0001:00109980       ?findOverlapTriangleMesh@PxMeshQuery@physx@@SA_NAEAV?$PxReportCallback@UPxGeomIndexPair@physx@@@2@AEBVPxTriangleMeshGeometry@2@AEBV?$PxTransformT@M@2@12V?$PxFlags@W4Enum@PxGeometryQueryFlag@physx@@I@2@V?$PxFlags@W4Enum@PxMeshMeshQueryFlag@physx@@I@2@M@Z 000000018010a980 f   GuMeshQuery.obj
 0001:00109ab0       ?getTriangle@PxMeshQuery@physx@@SAXAEBVPxHeightFieldGeometry@2@AEBV?$PxTransformT@M@2@IAEAVPxTriangle@2@PEAI3@Z 000000018010aab0 f   GuMeshQuery.obj
 0001:00109b30       ?getTriangle@PxMeshQuery@physx@@SAXAEBVPxTriangleMeshGeometry@2@AEBV?$PxTransformT@M@2@IAEAVPxTriangle@2@PEAI3@Z 000000018010ab30 f   GuMeshQuery.obj
 0001:0010a030       ?sweep@PxMeshQuery@physx@@SA_NAEBV?$PxVec3T@M@2@MAEBVPxGeometry@2@AEBV?$PxTransformT@M@2@IPEBVPxTriangle@2@AEAUPxGeomSweepHit@2@V?$PxFlags@W4Enum@PxHitFlag@physx@@G@2@PEBIM_NV?$PxFlags@W4Enum@PxGeometryQueryFlag@physx@@I@2@@Z 000000018010b030 f   GuMeshQuery.obj
 0001:0010a2b0       ??$collide@$00$00@MeshRayCollider@@SAXAEBV?$PxVec3T@M@physx@@0M_NPEBVRTreeTriangleMesh@Gu@2@AEAU?$MeshHitCallback@UPxGeomRaycastHit@physx@@@42@PEBV12@@Z 000000018010b2b0 f i GuMidphaseRTree.obj
 0001:0010a620       ??$collide@$00$0A@@MeshRayCollider@@SAXAEBV?$PxVec3T@M@physx@@0M_NPEBVRTreeTriangleMesh@Gu@2@AEAU?$MeshHitCallback@UPxGeomRaycastHit@physx@@@42@PEBV12@@Z 000000018010b620 f i GuMidphaseRTree.obj
 0001:0010a860       ??$collide@$0A@$00@MeshRayCollider@@SAXAEBV?$PxVec3T@M@physx@@0M_NPEBVRTreeTriangleMesh@Gu@2@AEAU?$MeshHitCallback@UPxGeomRaycastHit@physx@@@42@PEBV12@@Z 000000018010b860 f i GuMidphaseRTree.obj
 0001:0010cba0       ??0?$RayRTreeCallback@$00$0A@@@QEAA@MAEAU?$MeshHitCallback@UPxGeomRaycastHit@physx@@@Gu@physx@@HPEBXPEBV?$PxVec3T@M@3@AEBV43@3M_N2@Z 000000018010dba0 f i GuMidphaseRTree.obj
 0001:0010ccc0       ??1?$RayRTreeCallback@$00$00@@UEAA@XZ 000000018010dcc0 f i GuMidphaseRTree.obj
 0001:0010cd50       ??1?$RayRTreeCallback@$00$0A@@@UEAA@XZ 000000018010dd50 f i GuMidphaseRTree.obj
 0001:0010cd50       ??1?$RayRTreeCallback@$0A@$0A@@@UEAA@XZ 000000018010dd50 f i GuMidphaseRTree.obj
 0001:0010cde0       ??1?$RayRTreeCallback@$0A@$00@@UEAA@XZ 000000018010dde0 f i GuMidphaseRTree.obj
 0001:0010ce68       ??_E?$RayRTreeCallback@$00$00@@W7EAAPEAXI@Z 000000018010de68 f i GuMidphaseRTree.obj
 0001:0010ce74       ??_E?$RayRTreeCallback@$00$0A@@@W7EAAPEAXI@Z 000000018010de74 f i GuMidphaseRTree.obj
 0001:0010ce74       ??_E?$RayRTreeCallback@$0A@$0A@@@W7EAAPEAXI@Z 000000018010de74 f i GuMidphaseRTree.obj
 0001:0010ce80       ??_E?$RayRTreeCallback@$0A@$00@@W7EAAPEAXI@Z 000000018010de80 f i GuMidphaseRTree.obj
 0001:0010cef0       ??_E?$RayRTreeCallback@$00$00@@UEAAPEAXI@Z 000000018010def0 f i GuMidphaseRTree.obj
 0001:0010cef0       ??_G?$RayRTreeCallback@$00$00@@UEAAPEAXI@Z 000000018010def0 f i GuMidphaseRTree.obj
 0001:0010cf30       ??_E?$RayRTreeCallback@$00$0A@@@UEAAPEAXI@Z 000000018010df30 f i GuMidphaseRTree.obj
 0001:0010cf30       ??_E?$RayRTreeCallback@$0A@$0A@@@UEAAPEAXI@Z 000000018010df30 f i GuMidphaseRTree.obj
 0001:0010cf30       ??_G?$RayRTreeCallback@$00$0A@@@UEAAPEAXI@Z 000000018010df30 f i GuMidphaseRTree.obj
 0001:0010cf30       ??_G?$RayRTreeCallback@$0A@$0A@@@UEAAPEAXI@Z 000000018010df30 f i GuMidphaseRTree.obj
 0001:0010cf70       ??_E?$RayRTreeCallback@$0A@$00@@UEAAPEAXI@Z 000000018010df70 f i GuMidphaseRTree.obj
 0001:0010cf70       ??_G?$RayRTreeCallback@$0A@$00@@UEAAPEAXI@Z 000000018010df70 f i GuMidphaseRTree.obj
 0001:0010cfb0       ??_ECallback@RTree@Gu@physx@@UEAAPEAXI@Z 000000018010dfb0 f i GuMidphaseRTree.obj
 0001:0010cfb0       ??_GCallback@RTree@Gu@physx@@UEAAPEAXI@Z 000000018010dfb0 f i GuMidphaseRTree.obj
 0001:0010cfe0       ??_ERayMeshColliderCallback@@UEAAPEAXI@Z 000000018010dfe0 f i GuMidphaseRTree.obj
 0001:0010cfe0       ??_ESweepCapsuleMeshHitCallback@Gu@physx@@UEAAPEAXI@Z 000000018010dfe0 f i GuSweepsMesh.obj
 0001:0010cfe0       ??_GRayMeshColliderCallback@@UEAAPEAXI@Z 000000018010dfe0 f i GuMidphaseRTree.obj
 0001:0010cfe0       ??_GSweepCapsuleMeshHitCallback@Gu@physx@@UEAAPEAXI@Z 000000018010dfe0 f i GuSweepsMesh.obj
 0001:0010d010       ?collideOBB@MeshRayCollider@@SAXAEBVBox@Gu@physx@@_NPEBVRTreeTriangleMesh@34@AEAU?$MeshHitCallback@UPxGeomRaycastHit@physx@@@34@1@Z 000000018010e010 f   GuMidphaseRTree.obj
 0001:0010d4e0       ?intersectBoxVsMesh_RTREE@Gu@physx@@YA_NAEBVBox@12@AEBVTriangleMesh@12@AEBV?$PxTransformT@M@2@AEBVPxMeshScale@2@PEAULimitedResults@12@@Z 000000018010e4e0 f   GuMidphaseRTree.obj
 0001:0010d550       ?intersectCapsuleVsMesh_RTREE@Gu@physx@@YA_NAEBVCapsule@12@AEBVTriangleMesh@12@AEBV?$PxTransformT@M@2@AEBVPxMeshScale@2@PEAULimitedResults@12@@Z 000000018010e550 f   GuMidphaseRTree.obj
 0001:0010d5d0       ?intersectOBB_RTREE@Gu@physx@@YAXPEBVTriangleMesh@12@AEBVBox@12@AEAU?$MeshHitCallback@UPxGeomRaycastHit@physx@@@12@_N3@Z 000000018010e5d0 f   GuMidphaseRTree.obj
 0001:0010d600       ?intersectSphereVsMesh_RTREE@Gu@physx@@YA_NAEBVSphere@12@AEBVTriangleMesh@12@AEBV?$PxTransformT@M@2@AEBVPxMeshScale@2@PEAULimitedResults@12@@Z 000000018010e600 f   GuMidphaseRTree.obj
 0001:0010d630       ?pointMeshDistance_RTREE@Gu@physx@@YAXPEBVTriangleMesh@12@AEBVPxTriangleMeshGeometry@2@AEBV?$PxTransformT@M@2@AEBV?$PxVec3T@M@2@MAEAIAEAMAEAV62@@Z 000000018010e630 f   GuMidphaseRTree.obj
 0001:0010e420       ?processHit@RayMeshColliderCallback@@UEAA_NAEBUPxGeomRaycastHit@physx@@AEBV?$PxVec3T@M@3@11AEAMPEBI@Z 000000018010f420 f i GuMidphaseRTree.obj
 0001:0010ebc0       ?processResults@?$RayRTreeCallback@$00$00@@UEAA_NIPEAI@Z 000000018010fbc0 f i GuMidphaseRTree.obj
 0001:0010ef30       ?processResults@?$RayRTreeCallback@$00$00@@UEAA_NIPEAIAEAM@Z 000000018010ff30 f i GuMidphaseRTree.obj
 0001:0010f2b0       ?processResults@?$RayRTreeCallback@$00$0A@@@UEAA_NIPEAI@Z 00000001801102b0 f i GuMidphaseRTree.obj
 0001:0010f2b0       ?processResults@?$RayRTreeCallback@$0A@$0A@@@UEAA_NIPEAI@Z 00000001801102b0 f i GuMidphaseRTree.obj
 0001:0010f510       ?processResults@?$RayRTreeCallback@$00$0A@@@UEAA_NIPEAIAEAM@Z 0000000180110510 f i GuMidphaseRTree.obj
 0001:0010f510       ?processResults@?$RayRTreeCallback@$0A@$0A@@@UEAA_NIPEAIAEAM@Z 0000000180110510 f i GuMidphaseRTree.obj
 0001:0010f7a0       ?processResults@?$RayRTreeCallback@$0A@$00@@UEAA_NIPEAI@Z 00000001801107a0 f i GuMidphaseRTree.obj
 0001:0010fde0       ?processResults@?$RayRTreeCallback@$0A@$00@@UEAA_NIPEAIAEAM@Z 0000000180110de0 f i GuMidphaseRTree.obj
 0001:00110430       ?raycast_triangleMesh_RTREE@Gu@physx@@YAIPEBVTriangleMesh@12@AEBVPxTriangleMeshGeometry@2@AEBV?$PxTransformT@M@2@AEBV?$PxVec3T@M@2@3MV?$PxFlags@W4Enum@PxHitFlag@physx@@G@2@IPEIAUPxGeomRaycastHit@2@I@Z 0000000180111430 f   GuMidphaseRTree.obj
 0001:00110bb0       ?sweepBox_MeshGeom_RTREE@Gu@physx@@YA_NPEBVTriangleMesh@12@AEBVPxTriangleMeshGeometry@2@AEBV?$PxTransformT@M@2@AEBVBox@12@AEBV?$PxVec3T@M@2@MAEAUPxGeomSweepHit@2@V?$PxFlags@W4Enum@PxHitFlag@physx@@G@2@M@Z 0000000180111bb0 f   GuMidphaseRTree.obj
 0001:001120d0       ?sweepCapsule_MeshGeom_RTREE@Gu@physx@@YA_NPEBVTriangleMesh@12@AEBVPxTriangleMeshGeometry@2@AEBV?$PxTransformT@M@2@AEBVCapsule@12@AEBV?$PxVec3T@M@2@MAEAUPxGeomSweepHit@2@V?$PxFlags@W4Enum@PxHitFlag@physx@@G@2@M@Z 00000001801130d0 f   GuMidphaseRTree.obj
 0001:00112880       ?sweepConvex_MeshGeom_RTREE@Gu@physx@@YAXPEBVTriangleMesh@12@AEBVBox@12@AEBV?$PxVec3T@M@2@MAEAUSweepConvexMeshHitCallback@12@_N@Z 0000000180113880 f   GuMidphaseRTree.obj
 0001:00113230       ??_E?$PxReportCallback@UPxGeomIndexPair@physx@@@physx@@UEAAPEAXI@Z 0000000180114230 f i GuOverlapTestsMesh.obj
 0001:00113230       ??_G?$PxReportCallback@UPxGeomIndexPair@physx@@@physx@@UEAAPEAXI@Z 0000000180114230 f i GuOverlapTestsMesh.obj
 0001:001132c0       ?GeomOverlapCallback_BoxMesh@@YA_NAEBVPxGeometry@physx@@AEBV?$PxTransformT@M@2@01PEAUTriggerCache@Gu@2@PEAUPxQueryThreadContext@2@@Z 00000001801142c0 f   GuOverlapTestsMesh.obj
 0001:001133d0       ?GeomOverlapCallback_CapsuleMesh@@YA_NAEBVPxGeometry@physx@@AEBV?$PxTransformT@M@2@01PEAUTriggerCache@Gu@2@PEAUPxQueryThreadContext@2@@Z 00000001801143d0 f   GuOverlapTestsMesh.obj
 0001:001134e0       ?GeomOverlapCallback_ConvexMesh@@YA_NAEBVPxGeometry@physx@@AEBV?$PxTransformT@M@2@01PEAUTriggerCache@Gu@2@PEAUPxQueryThreadContext@2@@Z 00000001801144e0 f   GuOverlapTestsMesh.obj
 0001:001139e0       ?GeomOverlapCallback_MeshMesh@@YA_NAEBVPxGeometry@physx@@AEBV?$PxTransformT@M@2@01PEAUTriggerCache@Gu@2@PEAUPxQueryThreadContext@2@@Z 00000001801149e0 f   GuOverlapTestsMesh.obj
 0001:00113ab0       ?GeomOverlapCallback_SphereMesh@@YA_NAEBVPxGeometry@physx@@AEBV?$PxTransformT@M@2@01PEAUTriggerCache@Gu@2@PEAUPxQueryThreadContext@2@@Z 0000000180114ab0 f   GuOverlapTestsMesh.obj
 0001:00113ea0       ??0RTree@Gu@physx@@QEAA@W4PxEMPTY@2@@Z 0000000180114ea0 f   GuRTree.obj
 0001:00113eb0       ?exportExtraData@RTree@Gu@physx@@QEAAXAEAVPxSerializationContext@3@@Z 0000000180114eb0 f   GuRTree.obj
 0001:00113ef0       ?importExtraData@RTree@Gu@physx@@QEAAXAEAVPxDeserializationContext@3@@Z 0000000180114ef0 f   GuRTree.obj
 0001:00113f20       ?load@RTree@Gu@physx@@QEAA_NAEAVPxInputStream@3@I_N@Z 0000000180114f20 f   GuRTree.obj
 0001:00114220       ?refitAllStaticTree@RTree@Gu@physx@@QEAAXAEAUCallbackRefit@123@PEAVPxBounds3@3@@Z 0000000180115220 f   GuRTree.obj
 0001:00114780       ?validate@RTree@Gu@physx@@QEAAXPEAUCallbackRefit@123@@Z 0000000180115780 f   GuRTree.obj
 0001:001149c0       ?validateRecursive@RTree@Gu@physx@@IEAAXIURTreeNodeQ@23@PEAURTreePage@23@PEAUCallbackRefit@123@@Z 00000001801159c0 f   GuRTree.obj
 0001:00114b80       ??$traverseRay@$00@RTree@Gu@physx@@QEBAXAEBV?$PxVec3T@M@2@0IPEAIPEAUCallbackRaycast@012@PEBV32@M@Z 0000000180115b80 f i GuRTreeQueries.obj
 0001:00114f20       ??$traverseRay@$0A@@RTree@Gu@physx@@QEBAXAEBV?$PxVec3T@M@2@0IPEAIPEAUCallbackRaycast@012@PEBV32@M@Z 0000000180115f20 f i GuRTreeQueries.obj
 0001:00115270       ?traverseAABB@RTree@Gu@physx@@QEBAXAEBV?$PxVec3T@M@3@0IPEAIPEAUCallback@123@@Z 0000000180116270 f   GuRTreeQueries.obj
 0001:00115430       ?traverseOBB@RTree@Gu@physx@@QEBAXAEBVBox@23@IPEAIPEAUCallback@123@@Z 0000000180116430 f   GuRTreeQueries.obj
 0001:00115d10       ??0SweepBoxMeshHitCallback@Gu@physx@@QEAA@W4Enum@CallbackMode@12@AEBVPxMat34Padded@2@M_NAEBVBox@12@AEBV?$PxVec3T@M@2@44AEBV?$PxFlags@W4Enum@PxHitFlag@physx@@G@2@M2M@Z 0000000180116d10 f   GuSweepsMesh.obj
 0001:00115e20       ??0SweepCapsuleMeshHitCallback@Gu@physx@@QEAA@AEAUPxGeomSweepHit@2@AEBV?$PxMat34T@M@2@M_NAEBVCapsule@12@AEBV?$PxVec3T@M@2@AEBV?$PxFlags@W4Enum@PxHitFlag@physx@@G@2@2M@Z 0000000180116e20 f   GuSweepsMesh.obj
 0001:00115ef0       ??0SweepConvexMeshHitCallback@Gu@physx@@QEAA@AEBUConvexHullData@12@AEBVPxMeshScale@2@AEBVFastVertex2ShapeScaling@Cm@2@AEBV?$PxTransformT@M@2@3AEBV?$PxVec3T@M@2@MV?$PxFlags@W4Enum@PxHitFlag@physx@@G@2@_NM6M@Z 0000000180116ef0 f   GuSweepsMesh.obj
 0001:00116850       ??_ESweepBoxMeshHitCallback@Gu@physx@@UEAAPEAXI@Z 0000000180117850 f i GuSweepsMesh.obj
 0001:00116850       ??_GSweepBoxMeshHitCallback@Gu@physx@@UEAAPEAXI@Z 0000000180117850 f i GuSweepsMesh.obj
 0001:00116880       ??_ESweepConvexMeshHitCallback@Gu@physx@@UEAAPEAXI@Z 0000000180117880 f i GuSweepsMesh.obj
 0001:00116880       ??_GSweepConvexMeshHitCallback@Gu@physx@@UEAAPEAXI@Z 0000000180117880 f i GuSweepsMesh.obj
 0001:001168b0       ??_ESweepShapeMeshHitCallback@Gu@physx@@UEAAPEAXI@Z 00000001801178b0 f i GuSweepsMesh.obj
 0001:001168b0       ??_GSweepShapeMeshHitCallback@Gu@physx@@UEAAPEAXI@Z 00000001801178b0 f i GuSweepsMesh.obj
 0001:001168e0       ?finalizeHit@SweepBoxMeshHitCallback@Gu@physx@@QEBA_NAEAUPxGeomSweepHit@3@AEBVPxTriangleMeshGeometry@3@AEBV?$PxTransformT@M@3@2AEBV?$PxVec3T@M@3@_N4@Z 00000001801178e0 f   GuSweepsMesh.obj
 0001:00116fa0       ?finalizeHit@SweepCapsuleMeshHitCallback@Gu@physx@@QEBA_NAEAUPxGeomSweepHit@3@AEBVCapsule@23@AEBVPxTriangleMeshGeometry@3@AEBV?$PxTransformT@M@3@_N@Z 0000000180117fa0 f   GuSweepsMesh.obj
 0001:00117150       ?finalizeHit@SweepConvexMeshHitCallback@Gu@physx@@QEAA_NAEAUPxGeomSweepHit@3@AEBVPxTriangleMeshGeometry@3@AEBV?$PxTransformT@M@3@AEBVPxConvexMeshGeometry@3@2AEBV?$PxVec3T@M@3@M_N555@Z 0000000180118150 f   GuSweepsMesh.obj
 0001:00117620       ?processHit@SweepBoxMeshHitCallback@Gu@physx@@UEAA_NAEBUPxGeomRaycastHit@3@AEBV?$PxVec3T@M@3@11AEAMPEBI@Z 0000000180118620 f   GuSweepsMesh.obj
 0001:00117e10       ?processHit@SweepCapsuleMeshHitCallback@Gu@physx@@UEAA_NAEBUPxGeomRaycastHit@3@AEBV?$PxVec3T@M@3@11AEAMPEBI@Z 0000000180118e10 f   GuSweepsMesh.obj
 0001:00118370       ?processHit@SweepConvexMeshHitCallback@Gu@physx@@UEAA_NAEBUPxGeomRaycastHit@3@AEBV?$PxVec3T@M@3@11AEAMPEBI@Z 0000000180119370 f   GuSweepsMesh.obj
 0001:00118ab0       ?sweepBox_MeshGeom@@YA_NAEBVPxGeometry@physx@@AEBV?$PxTransformT@M@2@AEBVPxBoxGeometry@2@1AEBVBox@Gu@2@AEBV?$PxVec3T@M@2@MAEAUPxGeomSweepHit@2@V?$PxFlags@W4Enum@PxHitFlag@physx@@G@2@MPEAUPxQueryThreadContext@2@@Z 0000000180119ab0 f   GuSweepsMesh.obj
 0001:00118b40       ?sweepCapsule_MeshGeom@@YA_NAEBVPxGeometry@physx@@AEBV?$PxTransformT@M@2@AEBVPxCapsuleGeometry@2@1AEBVCapsule@Gu@2@AEBV?$PxVec3T@M@2@MAEAUPxGeomSweepHit@2@V?$PxFlags@W4Enum@PxHitFlag@physx@@G@2@MPEAUPxQueryThreadContext@2@@Z 0000000180119b40 f   GuSweepsMesh.obj
 0001:00118bd0       ?sweepConvex_MeshGeom@@YA_NAEBVPxGeometry@physx@@AEBV?$PxTransformT@M@2@AEBVPxConvexMeshGeometry@2@1AEBV?$PxVec3T@M@2@MAEAUPxGeomSweepHit@2@V?$PxFlags@W4Enum@PxHitFlag@physx@@G@2@MPEAUPxQueryThreadContext@2@@Z 0000000180119bd0 f   GuSweepsMesh.obj
 0001:00119710       ??0TriangleMesh@Gu@physx@@QEAA@AEBUPxTriangleMeshInternalData@2@@Z 000000018011a710 f   GuTriangleMesh.obj
 0001:001197f0       ??0TriangleMesh@Gu@physx@@QEAA@PEAVMeshFactory@12@AEAVTriangleMeshData@12@@Z 000000018011a7f0 f   GuTriangleMesh.obj
 0001:00119b70       ??1TriangleMesh@Gu@physx@@UEAA@XZ 000000018011ab70 f   GuTriangleMesh.obj
 0001:00119de0       ??_ETriangleMesh@Gu@physx@@UEAAPEAXI@Z 000000018011ade0 f i GuTriangleMesh.obj
 0001:00119de0       ??_GTriangleMesh@Gu@physx@@UEAAPEAXI@Z 000000018011ade0 f i GuTriangleMesh.obj
 0001:00119e50       ?exportExtraData@TriangleMesh@Gu@physx@@UEAAXAEAVPxSerializationContext@3@@Z 000000018011ae50 f   GuTriangleMesh.obj
 0001:0011a020       ?getLocalBounds@TriangleMesh@Gu@physx@@UEBA?AVPxBounds3@3@XZ 000000018011b020 f i GuTriangleMesh.obj
 0001:0011a0b0       ?getMassInformation@TriangleMesh@Gu@physx@@UEBAXAEAMAEAV?$PxMat33T@M@3@AEAV?$PxVec3T@M@3@@Z 000000018011b0b0 f i GuTriangleMesh.obj
 0001:0011a130       ?getNbTriangles@TriangleMesh@Gu@physx@@UEBAIXZ 000000018011b130 f i GuTriangleMesh.obj
 0001:0011a140       ?getPreferSDFProjection@TriangleMesh@Gu@physx@@UEBA_NXZ 000000018011b140 f i GuTriangleMesh.obj
 0001:0011a150       ?getSDF@TriangleMesh@Gu@physx@@UEBAPEBMXZ 000000018011b150 f i GuTriangleMesh.obj
 0001:0011a160       ?getSDFDimensions@TriangleMesh@Gu@physx@@UEBAXAEAI00@Z 000000018011b160 f i GuTriangleMesh.obj
 0001:0011a190       ?getTriangleMaterialIndex@TriangleMesh@Gu@physx@@UEBAGI@Z 000000018011b190 f i GuTriangleMesh.obj
 0001:0011a1b0       ?getTriangleMeshFlags@TriangleMesh@Gu@physx@@UEBA?AV?$PxFlags@W4Enum@PxTriangleMeshFlag@physx@@E@3@XZ 000000018011b1b0 f i GuTriangleMesh.obj
 0001:0011a1c0       ?getTrianglesRemap@TriangleMesh@Gu@physx@@UEBAPEBIXZ 000000018011b1c0 f i GuTriangleMesh.obj
 0001:0011a1d0       ?getVerticesForModification@TriangleMesh@Gu@physx@@UEAAPEAV?$PxVec3T@M@3@XZ 000000018011b1d0 f   GuTriangleMesh.obj
 0001:0011a210       ?importExtraData@TriangleMesh@Gu@physx@@QEAAXAEAVPxDeserializationContext@3@@Z 000000018011b210 f   GuTriangleMesh.obj
 0001:0011a3a0       ?isKindOf@PxTriangleMesh@physx@@MEBA_NPEBD@Z 000000018011b3a0 f i GuTriangleMesh.obj
 0001:0011a430       ?onRefCountZero@TriangleMesh@Gu@physx@@UEAAXXZ 000000018011b430 f   GuTriangleMesh.obj
 0001:0011a500       ?refitBVH@TriangleMesh@Gu@physx@@UEAA?AVPxBounds3@3@XZ 000000018011b500 f   GuTriangleMesh.obj
 0001:0011a5d0       ?requestEdgeList@TriangleMesh@Gu@physx@@QEBAPEBVEdgeList@23@XZ 000000018011b5d0 f   GuTriangleMesh.obj
 0001:0011a6c0       ?setAllEdgesActive@TriangleMesh@Gu@physx@@QEAAXXZ 000000018011b6c0 f   GuTriangleMesh.obj
 0001:0011a7b0       ?setPreferSDFProjection@TriangleMesh@Gu@physx@@UEAAX_N@Z 000000018011b7b0 f i GuTriangleMesh.obj
 0001:0011a7e0       ??0BV4TriangleMesh@Gu@physx@@QEAA@AEBUPxTriangleMeshInternalData@2@@Z 000000018011b7e0 f   GuTriangleMeshBV4.obj
 0001:0011a940       ??0BV4TriangleMesh@Gu@physx@@QEAA@PEAVMeshFactory@12@AEAVTriangleMeshData@12@@Z 000000018011b940 f   GuTriangleMeshBV4.obj
 0001:0011a9d0       ??_EBV4TriangleMesh@Gu@physx@@UEAAPEAXI@Z 000000018011b9d0 f i GuTriangleMeshBV4.obj
 0001:0011a9d0       ??_GBV4TriangleMesh@Gu@physx@@UEAAPEAXI@Z 000000018011b9d0 f i GuTriangleMeshBV4.obj
 0001:0011aa60       ?createObject@BV4TriangleMesh@Gu@physx@@SAPEAVTriangleMesh@23@AEAPEAEAEAVPxDeserializationContext@3@@Z 000000018011ba60 f   GuTriangleMeshBV4.obj
 0001:0011ab40       ?exportExtraData@BV4TriangleMesh@Gu@physx@@UEAAXAEAVPxSerializationContext@3@@Z 000000018011bb40 f   GuTriangleMeshBV4.obj
 0001:0011ab80       ?getConcreteTypeName@BV4TriangleMesh@Gu@physx@@UEBAPEBDXZ 000000018011bb80 f i GuTriangleMeshBV4.obj
 0001:0011ab90       ?getInternalData@BV4TriangleMesh@Gu@physx@@UEBA_NAEAUPxTriangleMeshInternalData@3@_N@Z 000000018011bb90 f   GuTriangleMeshBV4.obj
 0001:0011ac80       ?getMidphaseID@BV4TriangleMesh@Gu@physx@@UEBA?AW4Enum@PxMeshMidPhase@3@XZ 000000018011bc80 f i GuTriangleMeshBV4.obj
 0001:0011ac80       ?getMidphaseID@BV4TriangleMeshBuilder@physx@@UEBA?AW4Enum@PxMeshMidPhase@2@XZ 000000018011bc80 f i GuCookingTriangleMesh.obj
 0001:0011ac80       ?length@charNode@@UEBAHXZ  000000018011bc80 f i libvcruntime:undname.obj
 0001:0011ac80       ?raw_length@charNode@@UEBAHXZ 000000018011bc80 f i libvcruntime:undname.obj
 0001:0011ac80       DllMain                    000000018011bc80 f i LIBCMT:dll_dllmain_stub.obj
 0001:0011ac80       _get_startup_argv_mode     000000018011bc80 f i LIBCMT:argv_mode.obj
 0001:0011ac90       ?getVerticesForModification@BV4TriangleMesh@Gu@physx@@UEAAPEAV?$PxVec3T@M@3@XZ 000000018011bc90 f   GuTriangleMeshBV4.obj
 0001:0011ac90       ?getVerticesForModification@RTreeTriangleMesh@Gu@physx@@UEAAPEAV?$PxVec3T@M@3@XZ 000000018011bc90 f   GuTriangleMeshRTree.obj
 0001:0011aca0       ?refitBVH@BV4TriangleMesh@Gu@physx@@UEAA?AVPxBounds3@3@XZ 000000018011bca0 f   GuTriangleMeshBV4.obj
 0001:0011ae10       PxGetTriangleMeshInternalData 000000018011be10 f   GuTriangleMeshBV4.obj
 0001:0011ae30       ??0RTreeTriangleMesh@Gu@physx@@QEAA@PEAVMeshFactory@12@AEAVTriangleMeshData@12@@Z 000000018011be30 f   GuTriangleMeshRTree.obj
 0001:0011afa0       ??_E?$RefitCallback@G@physx@@UEAAPEAXI@Z 000000018011bfa0 f i GuTriangleMeshRTree.obj
 0001:0011afa0       ??_E?$RefitCallback@I@physx@@UEAAPEAXI@Z 000000018011bfa0 f i GuTriangleMeshRTree.obj
 0001:0011afa0       ??_G?$RefitCallback@G@physx@@UEAAPEAXI@Z 000000018011bfa0 f i GuTriangleMeshRTree.obj
 0001:0011afa0       ??_G?$RefitCallback@I@physx@@UEAAPEAXI@Z 000000018011bfa0 f i GuTriangleMeshRTree.obj
 0001:0011afd0       ??_ERTreeTriangleMesh@Gu@physx@@UEAAPEAXI@Z 000000018011bfd0 f i GuTriangleMeshRTree.obj
 0001:0011afd0       ??_GRTreeTriangleMesh@Gu@physx@@UEAAPEAXI@Z 000000018011bfd0 f i GuTriangleMeshRTree.obj
 0001:0011b080       ?createObject@RTreeTriangleMesh@Gu@physx@@SAPEAVTriangleMesh@23@AEAPEAEAEAVPxDeserializationContext@3@@Z 000000018011c080 f   GuTriangleMeshRTree.obj
 0001:0011b110       ?exportExtraData@RTreeTriangleMesh@Gu@physx@@UEAAXAEAVPxSerializationContext@3@@Z 000000018011c110 f   GuTriangleMeshRTree.obj
 0001:0011b150       ?getConcreteTypeName@RTreeTriangleMesh@Gu@physx@@UEBAPEBDXZ 000000018011c150 f i GuTriangleMeshRTree.obj
 0001:0011b160       ?recomputeBounds@?$RefitCallback@G@physx@@UEAAXIAEAT__m128@@0@Z 000000018011c160 f i GuTriangleMeshRTree.obj
 0001:0011b490       ?recomputeBounds@?$RefitCallback@I@physx@@UEAAXIAEAT__m128@@0@Z 000000018011c490 f i GuTriangleMeshRTree.obj
 0001:0011b7b0       ?refitBVH@RTreeTriangleMesh@Gu@physx@@UEAA?AVPxBounds3@3@XZ 000000018011c7b0 f   GuTriangleMeshRTree.obj
 0001:0011b8d0       ??0BV32Tree@Gu@physx@@QEAA@XZ 000000018011c8d0 f   GuBV32.obj
 0001:0011b900       ??1BV32Tree@Gu@physx@@QEAA@XZ 000000018011c900 f   GuBV32.obj
 0001:0011b910       ?createSOAformatNode@BV32Tree@Gu@physx@@QEAAXAEAUBV32DataPacked@23@AEBUBV32Data@23@IAEAI2@Z 000000018011c910 f   GuBV32.obj
 0001:0011bd70       ?load@BV32Tree@Gu@physx@@QEAA_NAEAVPxInputStream@3@_N@Z 000000018011cd70 f   GuBV32.obj
 0001:0011c0b0       ?release@BV32Tree@Gu@physx@@QEAAXXZ 000000018011d0b0 f   GuBV32.obj
 0001:0011c170       ??0BV32Node@@QEAA@XZ       000000018011d170 f i GuBV32Build.obj
 0001:0011c5f0       ?BuildBV32Ex@Gu@physx@@YA_NAEAVBV32Tree@12@AEAVSourceMeshBase@12@MI@Z 000000018011d5f0 f   GuBV32Build.obj
 0001:0011d610       ??0BVTetrahedronMesh@Gu@physx@@QEAA@AEAVTetrahedronMeshData@12@AEAVSoftBodyCollisionData@12@PEAVMeshFactory@12@@Z 000000018011e610 f   GuTetrahedronMesh.obj
 0001:0011d870       ??0SoftBodyMesh@Gu@physx@@QEAA@PEAVMeshFactory@12@AEAVSoftBodyMeshData@12@@Z 000000018011e870 f   GuTetrahedronMesh.obj
 0001:0011dc10       ??0TetrahedronMesh@Gu@physx@@QEAA@PEAVMeshFactory@12@AEAVTetrahedronMeshData@12@@Z 000000018011ec10 f   GuTetrahedronMesh.obj
 0001:0011dd00       ??1SoftBodyAuxData@Gu@physx@@UEAA@XZ 000000018011ed00 f   GuTetrahedronMesh.obj
 0001:0011df80       ??1TetrahedronMesh@Gu@physx@@UEAA@XZ 000000018011ef80 f   GuTetrahedronMesh.obj
 0001:0011e020       ??_EBVTetrahedronMesh@Gu@physx@@UEAAPEAXI@Z 000000018011f020 f i GuTetrahedronMesh.obj
 0001:0011e020       ??_GBVTetrahedronMesh@Gu@physx@@UEAAPEAXI@Z 000000018011f020 f i GuTetrahedronMesh.obj
 0001:0011e1a0       ??_ESoftBodyAuxData@Gu@physx@@UEAAPEAXI@Z 000000018011f1a0 f i GuTetrahedronMesh.obj
 0001:0011e1a0       ??_GSoftBodyAuxData@Gu@physx@@UEAAPEAXI@Z 000000018011f1a0 f i GuTetrahedronMesh.obj
 0001:0011e210       ??_ESoftBodyMesh@Gu@physx@@UEAAPEAXI@Z 000000018011f210 f i GuTetrahedronMesh.obj
 0001:0011e210       ??_GSoftBodyMesh@Gu@physx@@UEAAPEAXI@Z 000000018011f210 f i GuTetrahedronMesh.obj
 0001:0011e2e0       ??_ETetrahedronMesh@Gu@physx@@UEAAPEAXI@Z 000000018011f2e0 f i GuTetrahedronMesh.obj
 0001:0011e2e0       ??_GTetrahedronMesh@Gu@physx@@UEAAPEAXI@Z 000000018011f2e0 f i GuTetrahedronMesh.obj
 0001:0011e350       ?exportExtraData@SoftBodyMesh@Gu@physx@@UEAAXAEAVPxSerializationContext@3@@Z 000000018011f350 f   GuTetrahedronMesh.obj
 0001:0011e440       ?getConcreteTypeName@SoftBodyAuxData@Gu@physx@@UEBAPEBDXZ 000000018011f440 f i GuTetrahedronMesh.obj
 0001:0011e450       ?getConcreteTypeName@SoftBodyMesh@Gu@physx@@UEBAPEBDXZ 000000018011f450 f i GuTetrahedronMesh.obj
 0001:0011e460       ?getConcreteTypeName@TetrahedronMesh@Gu@physx@@UEBAPEBDXZ 000000018011f460 f i GuTetrahedronMesh.obj
 0001:0011e470       ?getLocalBounds@TetrahedronMesh@Gu@physx@@UEBA?AVPxBounds3@3@XZ 000000018011f470 f i GuTetrahedronMesh.obj
 0001:0011e500       ?getNbTetrahedrons@TetrahedronMesh@Gu@physx@@UEBAIXZ 000000018011f500 f i GuTetrahedronMesh.obj
 0001:0011e510       ?getBounds@BVH@Gu@physx@@UEBAPEBVPxBounds3@3@XZ 000000018011f510 f i GuBVH.obj
 0001:0011e510       ?getTetrahedraRemap@BVTetrahedronMesh@Gu@physx@@UEBAPEBIXZ 000000018011f510 f i GuTetrahedronMesh.obj
 0001:0011e520       ?getTetrahedronMeshFlags@TetrahedronMesh@Gu@physx@@UEBA?AV?$PxFlags@W4Enum@PxTetrahedronMeshFlag@physx@@E@3@XZ 000000018011f520 f i GuTetrahedronMesh.obj
 0001:0011e530       ?getTetrahedrons@TetrahedronMesh@Gu@physx@@UEBAPEBXXZ 000000018011f530 f i GuTetrahedronMesh.obj
 0001:0011e540       ?isKindOf@PxSoftBodyAuxData@physx@@MEBA_NPEBD@Z 000000018011f540 f i GuTetrahedronMesh.obj
 0001:0011e5d0       ?isKindOf@PxSoftBodyMesh@physx@@MEBA_NPEBD@Z 000000018011f5d0 f i GuTetrahedronMesh.obj
 0001:0011e660       ?isKindOf@PxTetrahedronMesh@physx@@MEBA_NPEBD@Z 000000018011f660 f i GuTetrahedronMesh.obj
 0001:0011e6f0       ?onRefCountZero@SoftBodyAuxData@Gu@physx@@UEAAXXZ 000000018011f6f0 f i GuTetrahedronMesh.obj
 0001:0011e6f0       ?release@SimulationTetrahedronMeshData@Gu@physx@@UEAAXXZ 000000018011f6f0 f i GuCookingTetrahedronMesh.obj
 0001:0011e710       ?onRefCountZero@SoftBodyMesh@Gu@physx@@UEAAXXZ 000000018011f710 f   GuTetrahedronMesh.obj
 0001:0011e7b0       ?onRefCountZero@TetrahedronMesh@Gu@physx@@UEAAXXZ 000000018011f7b0 f   GuTetrahedronMesh.obj
 0001:0011e850       ?addAxisToSimMeshBarycentric@Gu@physx@@YA?AV?$PxVec4T@M@2@AEBVPxTetrahedronMesh@2@IAEBV32@AEBV?$PxVec3T@M@2@@Z 000000018011f850 f   GuTetrahedronMeshUtils.obj
 0001:0011eb10       ?closestPtPointTetrahedron@Gu@physx@@YA?AV?$PxVec3T@M@2@AEBV32@0000@Z 000000018011fb10 f i GuTetrahedronMeshUtils.obj
 0001:0011fc50       ?computeBarycentric@physx@@YAXAEBV?$PxVec3T@M@1@0000AEAV?$PxVec4T@M@1@@Z 0000000180120c50 f i GuTetrahedronMeshUtils.obj
 0001:0011ff00       ?convertSoftbodyCollisionToSimMeshTets@Gu@physx@@YAXAEBVPxTetrahedronMesh@2@AEBVSoftBodyAuxData@12@AEBVBVTetrahedronMesh@12@IAEBV?$PxVec4T@M@2@AEAIAEAV62@@Z 0000000180120f00 f   GuTetrahedronMeshUtils.obj
 0001:00122ad0       ?pcmContactBoxBox@Gu@physx@@YA_NAEBVPxGeometry@2@0AEBUPxTransformPadded@2@1AEBUNarrowPhaseParams@12@AEAUCache@12@AEAVPxContactBuffer@2@PEAVPxRenderOutput@2@@Z 0000000180123ad0 f   GuPCMContactBoxBox.obj
 0001:00123970       ??$gjkPenetration@U?$RelativeConvex@VBoxV@Gu@physx@@@Gu@physx@@U?$LocalConvex@VConvexHullNoScaleV@Gu@physx@@@23@@Gu@physx@@YA?AW4GjkStatus@01@AEBU?$RelativeConvex@VBoxV@Gu@physx@@@01@AEBU?$LocalConvex@VConvexHullNoScaleV@Gu@physx@@@01@AEBT__m128@@2_NPEIAE4AEAEAEAUGjkOutput@01@@Z 0000000180124970 f i GuPCMContactBoxConvex.obj
 0001:001239e0       ??$gjkPenetration@U?$RelativeConvex@VBoxV@Gu@physx@@@Gu@physx@@U?$LocalConvex@VConvexHullNoScaleV@Gu@physx@@@23@@Gu@physx@@YA?AW4GjkStatus@01@AEBU?$RelativeConvex@VBoxV@Gu@physx@@@01@AEBU?$LocalConvex@VConvexHullNoScaleV@Gu@physx@@@01@AEBT__m128@@2_NPEIAE4PEIAT5@5AEAEAEAUGjkOutput@01@@Z 00000001801249e0 f i GuPCMContactBoxConvex.obj
 0001:001255c0       ?pcmContactBoxConvex@Gu@physx@@YA_NAEBVPxGeometry@2@0AEBUPxTransformPadded@2@1AEBUNarrowPhaseParams@12@AEAUCache@12@AEAVPxContactBuffer@2@PEAVPxRenderOutput@2@@Z 00000001801265c0 f   GuPCMContactBoxConvex.obj
 0001:001263c0       ?support@?$LocalConvex@VConvexHullNoScaleV@Gu@physx@@@Gu@physx@@UEBA?AT__m128@@AEBT4@@Z 00000001801273c0 f i GuPCMContactBoxConvex.obj
 0001:00126410       ?support@?$LocalConvex@VConvexHullNoScaleV@Gu@physx@@@Gu@physx@@UEBA?AT__m128@@AEBT4@AEAH@Z 0000000180127410 f i GuPCMContactBoxConvex.obj
 0001:00126470       ?supportPoint@?$LocalConvex@VConvexHullNoScaleV@Gu@physx@@@Gu@physx@@UEBA?AT__m128@@H@Z 0000000180127470 f i GuPCMContactBoxConvex.obj
 0001:001264a0       ?pcmContactCapsuleBox@Gu@physx@@YA_NAEBVPxGeometry@2@0AEBUPxTransformPadded@2@1AEBUNarrowPhaseParams@12@AEAUCache@12@AEAVPxContactBuffer@2@PEAVPxRenderOutput@2@@Z 00000001801274a0 f   GuPCMContactCapsuleBox.obj
 0001:00127410       ?pcmContactCapsuleCapsule@Gu@physx@@YA_NAEBVPxGeometry@2@0AEBUPxTransformPadded@2@1AEBUNarrowPhaseParams@12@AEAUCache@12@AEAVPxContactBuffer@2@PEAVPxRenderOutput@2@@Z 0000000180128410 f   GuPCMContactCapsuleCapsule.obj
 0001:00127bb0       ??$gjkPenetration@U?$LocalConvex@VCapsuleV@Gu@physx@@@Gu@physx@@U?$LocalConvex@VConvexHullNoScaleV@Gu@physx@@@23@@Gu@physx@@YA?AW4GjkStatus@01@AEBU?$LocalConvex@VCapsuleV@Gu@physx@@@01@AEBU?$LocalConvex@VConvexHullNoScaleV@Gu@physx@@@01@AEBT__m128@@2_NPEIAE4AEAEAEAUGjkOutput@01@@Z 0000000180128bb0 f i GuPCMContactCapsuleConvex.obj
 0001:00127c20       ??$gjkPenetration@U?$LocalConvex@VCapsuleV@Gu@physx@@@Gu@physx@@U?$LocalConvex@VConvexHullNoScaleV@Gu@physx@@@23@@Gu@physx@@YA?AW4GjkStatus@01@AEBU?$LocalConvex@VCapsuleV@Gu@physx@@@01@AEBU?$LocalConvex@VConvexHullNoScaleV@Gu@physx@@@01@AEBT__m128@@2_NPEIAE4PEIAT5@5AEAEAEAUGjkOutput@01@@Z 0000000180128c20 f i GuPCMContactCapsuleConvex.obj
 0001:001292e0       ?pcmContactCapsuleConvex@Gu@physx@@YA_NAEBVPxGeometry@2@0AEBUPxTransformPadded@2@1AEBUNarrowPhaseParams@12@AEAUCache@12@AEAVPxContactBuffer@2@PEAVPxRenderOutput@2@@Z 000000018012a2e0 f   GuPCMContactCapsuleConvex.obj
 0001:0012a4d0       ??_EPCMCapsuleVsHeightfieldContactGenerationCallback@@UEAAPEAXI@Z 000000018012b4d0 f i GuPCMContactCapsuleHeightField.obj
 0001:0012a4d0       ??_GPCMCapsuleVsHeightfieldContactGenerationCallback@@UEAAPEAXI@Z 000000018012b4d0 f i GuPCMContactCapsuleHeightField.obj
 0001:0012a500       ?pcmContactCapsuleHeightField@Gu@physx@@YA_NAEBVPxGeometry@2@0AEBUPxTransformPadded@2@1AEBUNarrowPhaseParams@12@AEAUCache@12@AEAVPxContactBuffer@2@PEAVPxRenderOutput@2@@Z 000000018012b500 f   GuPCMContactCapsuleHeightField.obj
 0001:0012b420       ?reportTouchedTris@?$PCMHeightfieldContactGenerationCallback@UPCMCapsuleVsHeightfieldContactGenerationCallback@@@Gu@physx@@UEAA_NIPEBI@Z 000000018012c420 f i GuPCMContactCapsuleHeightField.obj
 0001:0012ba90       ?generateContacts@PCMCapsuleVsMeshContactGeneration@Gu@physx@@SAXAEBT__m128@@0000I000PEAVMeshPersistentContact@23@AEAI@Z 000000018012ca90 f   GuPCMContactCapsuleMesh.obj
 0001:0012beb0       ?generateEE@PCMCapsuleVsMeshContactGeneration@Gu@physx@@QEAAXAEBT__m128@@000I00PEAVMeshPersistentContact@23@AEAI@Z 000000018012ceb0 f   GuPCMContactCapsuleMesh.obj
 0001:0012c120       ?generateEEMTD@PCMCapsuleVsMeshContactGeneration@Gu@physx@@SAXAEBT__m128@@000I00PEAVMeshPersistentContact@23@AEAI@Z 000000018012d120 f   GuPCMContactCapsuleMesh.obj
 0001:0012c350       ?pcmContactCapsuleMesh@Gu@physx@@YA_NAEBVPxGeometry@2@0AEBUPxTransformPadded@2@1AEBUNarrowPhaseParams@12@AEAUCache@12@AEAVPxContactBuffer@2@PEAVPxRenderOutput@2@@Z 000000018012d350 f   GuPCMContactCapsuleMesh.obj
 0001:0012dbc0       ?pcmDistanceSegmentTriangleSquaredExported@@YA?AT__m128@@AEBT1@0000AEAT1@11@Z 000000018012ebc0 f   GuPCMContactCapsuleMesh.obj
 0001:0012e020       ?processTriangle@PCMCapsuleVsMeshContactGeneration@Gu@physx@@QEAA_NPEBV?$PxVec3T@M@3@IEPEBI@Z 000000018012f020 f   GuPCMContactCapsuleMesh.obj
 0001:0012ec20       ?processTriangle@PCMCapsuleVsMeshContactGeneration@Gu@physx@@SA_NAEBVTriangleV@23@IAEBVCapsuleV@23@AEBT__m128@@EPEAVMeshPersistentContact@23@AEAI@Z 000000018012fc20 f   GuPCMContactCapsuleMesh.obj
 0001:0012ef50       ?addContactsToPatch@PCMConvexVsMeshContactGeneration@Gu@physx@@QEAAXAEBT__m128@@I@Z 000000018012ff50 f   GuPCMContactConvexCommon.obj
 0001:0012f890       ?doSupport@?$SupportLocalImpl@VTriangleV@Gu@physx@@@Gu@physx@@UEBA?AT__m128@@AEBT4@@Z 0000000180130890 f i GuPCMContactConvexCommon.obj
 0001:0012f920       ?doSupport@?$SupportLocalImpl@VTriangleV@Gu@physx@@@Gu@physx@@UEBAXAEBT__m128@@AEAT4@1@Z 0000000180130920 f i GuPCMContactConvexCommon.obj
 0001:0012f990       ?generateLastContacts@PCMConvexVsMeshContactGeneration@Gu@physx@@QEAAXXZ 0000000180130990 f   GuPCMContactConvexCommon.obj
 0001:0012fef0       ?populateVerts@?$SupportLocalImpl@VTriangleV@Gu@physx@@@Gu@physx@@UEBAXPEBEIPEBV?$PxVec3T@M@3@PEAT__m128@@@Z 0000000180130ef0 f i GuPCMContactConvexCommon.obj
 0001:00130030       ?processTriangle@PCMConvexVsMeshContactGeneration@Gu@physx@@QEAA_NPEBV?$PxVec3T@M@3@IEPEBI@Z 0000000180131030 f   GuPCMContactConvexCommon.obj
 0001:00130580       ?processTriangle@PCMConvexVsMeshContactGeneration@Gu@physx@@SA_NAEBUPolygonalData@23@PEBVSupportLocal@23@PEBV?$PxVec3T@M@3@IEAEBT__m128@@_NAEBVPxTransformV@aos@3@AEBVPxMatTransformV@93@PEAVMeshPersistentContact@23@AEAI@Z 0000000180131580 f   GuPCMContactConvexCommon.obj
 0001:00130800       ??$gjkPenetration@U?$RelativeConvex@VConvexHullNoScaleV@Gu@physx@@@Gu@physx@@U?$LocalConvex@VConvexHullNoScaleV@Gu@physx@@@23@@Gu@physx@@YA?AW4GjkStatus@01@AEBU?$RelativeConvex@VConvexHullNoScaleV@Gu@physx@@@01@AEBU?$LocalConvex@VConvexHullNoScaleV@Gu@physx@@@01@AEBT__m128@@2_NPEIAE4AEAEAEAUGjkOutput@01@@Z 0000000180131800 f i GuPCMContactConvexConvex.obj
 0001:00130870       ??$gjkPenetration@U?$RelativeConvex@VConvexHullNoScaleV@Gu@physx@@@Gu@physx@@U?$LocalConvex@VConvexHullNoScaleV@Gu@physx@@@23@@Gu@physx@@YA?AW4GjkStatus@01@AEBU?$RelativeConvex@VConvexHullNoScaleV@Gu@physx@@@01@AEBU?$LocalConvex@VConvexHullNoScaleV@Gu@physx@@@01@AEBT__m128@@2_NPEIAE4PEIAT5@5AEAEAEAUGjkOutput@01@@Z 0000000180131870 f i GuPCMContactConvexConvex.obj
 0001:00131d80       ??$gjkPenetration@U?$RelativeConvex@VConvexHullNoScaleV@Gu@physx@@@Gu@physx@@U?$LocalConvex@VConvexHullV@Gu@physx@@@23@@Gu@physx@@YA?AW4GjkStatus@01@AEBU?$RelativeConvex@VConvexHullNoScaleV@Gu@physx@@@01@AEBU?$LocalConvex@VConvexHullV@Gu@physx@@@01@AEBT__m128@@2_NPEIAE4AEAEAEAUGjkOutput@01@@Z 0000000180132d80 f i GuPCMContactConvexConvex.obj
 0001:00131df0       ??$gjkPenetration@U?$RelativeConvex@VConvexHullNoScaleV@Gu@physx@@@Gu@physx@@U?$LocalConvex@VConvexHullV@Gu@physx@@@23@@Gu@physx@@YA?AW4GjkStatus@01@AEBU?$RelativeConvex@VConvexHullNoScaleV@Gu@physx@@@01@AEBU?$LocalConvex@VConvexHullV@Gu@physx@@@01@AEBT__m128@@2_NPEIAE4PEIAT5@5AEAEAEAUGjkOutput@01@@Z 0000000180132df0 f i GuPCMContactConvexConvex.obj
 0001:00133390       ??$gjkPenetration@U?$RelativeConvex@VConvexHullV@Gu@physx@@@Gu@physx@@U?$LocalConvex@VConvexHullNoScaleV@Gu@physx@@@23@@Gu@physx@@YA?AW4GjkStatus@01@AEBU?$RelativeConvex@VConvexHullV@Gu@physx@@@01@AEBU?$LocalConvex@VConvexHullNoScaleV@Gu@physx@@@01@AEBT__m128@@2_NPEIAE4AEAEAEAUGjkOutput@01@@Z 0000000180134390 f i GuPCMContactConvexConvex.obj
 0001:00133400       ??$gjkPenetration@U?$RelativeConvex@VConvexHullV@Gu@physx@@@Gu@physx@@U?$LocalConvex@VConvexHullNoScaleV@Gu@physx@@@23@@Gu@physx@@YA?AW4GjkStatus@01@AEBU?$RelativeConvex@VConvexHullV@Gu@physx@@@01@AEBU?$LocalConvex@VConvexHullNoScaleV@Gu@physx@@@01@AEBT__m128@@2_NPEIAE4PEIAT5@5AEAEAEAUGjkOutput@01@@Z 0000000180134400 f i GuPCMContactConvexConvex.obj
 0001:00135420       ?pcmContactConvexConvex@Gu@physx@@YA_NAEBVPxGeometry@2@0AEBUPxTransformPadded@2@1AEBUNarrowPhaseParams@12@AEAUCache@12@AEAVPxContactBuffer@2@PEAVPxRenderOutput@2@@Z 0000000180136420 f   GuPCMContactConvexConvex.obj
 0001:00136520       ?support@?$RelativeConvex@VConvexHullNoScaleV@Gu@physx@@@Gu@physx@@UEBA?AT__m128@@AEBT4@@Z 0000000180137520 f i GuPCMContactConvexConvex.obj
 0001:001365d0       ?support@?$RelativeConvex@VConvexHullNoScaleV@Gu@physx@@@Gu@physx@@UEBA?AT__m128@@AEBT4@AEAH@Z 00000001801375d0 f i GuPCMContactConvexConvex.obj
 0001:00136690       ?supportPoint@?$RelativeConvex@VConvexHullNoScaleV@Gu@physx@@@Gu@physx@@UEBA?AT__m128@@H@Z 0000000180137690 f i GuPCMContactConvexConvex.obj
 0001:00136720       ?PCMContactConvexHeightfield@Gu@physx@@YA_NAEBUPolygonalData@12@PEBVSupportLocal@12@AEBT__m128@@AEBVPxBounds3@2@AEBVPxHeightFieldGeometry@2@AEBV?$PxTransformT@M@2@5MAEAVPxContactBuffer@2@AEBVFastVertex2ShapeScaling@Cm@2@_NAEAVMultiplePersistentContactManifold@12@PEAVPxRenderOutput@2@@Z 0000000180137720 f   GuPCMContactConvexHeightField.obj
 0001:001375c0       ?pcmContactBoxHeightField@Gu@physx@@YA_NAEBVPxGeometry@2@0AEBUPxTransformPadded@2@1AEBUNarrowPhaseParams@12@AEAUCache@12@AEAVPxContactBuffer@2@PEAVPxRenderOutput@2@@Z 00000001801385c0 f   GuPCMContactConvexHeightField.obj
 0001:00137860       ?pcmContactConvexHeightField@Gu@physx@@YA_NAEBVPxGeometry@2@0AEBUPxTransformPadded@2@1AEBUNarrowPhaseParams@12@AEAUCache@12@AEAVPxContactBuffer@2@PEAVPxRenderOutput@2@@Z 0000000180138860 f   GuPCMContactConvexHeightField.obj
 0001:00138590       ?PCMContactConvexMesh@Gu@physx@@YA_NAEBUPolygonalData@12@PEBVSupportLocal@12@AEBT__m128@@AEBVPxBounds3@2@AEBVPxTriangleMeshGeometry@2@AEBV?$PxTransformT@M@2@5MAEAVPxContactBuffer@2@AEBVFastVertex2ShapeScaling@Cm@2@7_N8AEAVMultiplePersistentContactManifold@12@PEAVPxRenderOutput@2@@Z 0000000180139590 f   GuPCMContactConvexMesh.obj
 0001:00139090       ?pcmContactBoxMesh@Gu@physx@@YA_NAEBVPxGeometry@2@0AEBUPxTransformPadded@2@1AEBUNarrowPhaseParams@12@AEAUCache@12@AEAVPxContactBuffer@2@PEAVPxRenderOutput@2@@Z 000000018013a090 f   GuPCMContactConvexMesh.obj
 0001:001393d0       ?pcmContactConvexMesh@Gu@physx@@YA_NAEBVPxGeometry@2@0AEBUPxTransformPadded@2@1AEBUNarrowPhaseParams@12@AEAUCache@12@AEAVPxContactBuffer@2@PEAVPxRenderOutput@2@@Z 000000018013a3d0 f   GuPCMContactConvexMesh.obj
 0001:0013a060       ?addGJKEPAContacts@Gu@physx@@YA_NPEBUGjkConvex@12@0AEBVPxMatTransformV@aos@2@W4GjkStatus@12@PEAVPersistentContact@12@T__m128@@4AEAUGjkOutput@12@AEAVPersistentContactManifold@12@@Z 000000018013b060 f   GuPCMContactGenBoxConvex.obj
 0001:0013a540       ?computeMTD@Gu@physx@@YA_NAEBUPolygonalData@12@0PEBVSupportLocal@12@1AEAT__m128@@2@Z 000000018013b540 f   GuPCMContactGenBoxConvex.obj
 0001:0013ab70       ?generateFullContactManifold@Gu@physx@@YA_NAEBUPolygonalData@12@0PEBVSupportLocal@12@1PEAVPersistentContact@12@AEAIAEBT__m128@@444MM_NPEAVPxRenderOutput@2@M@Z 000000018013bb70 f   GuPCMContactGenBoxConvex.obj
 0001:0013cae0       ?computeMTD@Gu@physx@@YA_NAEBVCapsuleV@12@AEBUPolygonalData@12@PEBVSupportLocal@12@AEAT__m128@@3@Z 000000018013dae0 f   GuPCMContactGenSphereCapsule.obj
 0001:0013cbd0       ?generateCapsuleBoxFullContactManifold@Gu@physx@@YA_NAEBVCapsuleV@12@AEBUPolygonalData@12@PEBVSupportLocal@12@AEBVPxMatTransformV@aos@2@PEAVPersistentContact@12@AEAIAEBT__m128@@AEAT9@6M_NMPEAVPxRenderOutput@2@@Z 000000018013dbd0 f   GuPCMContactGenSphereCapsule.obj
 0001:0013cd70       ?generateFullContactManifold@Gu@physx@@YA_NAEBVCapsuleV@12@AEBUPolygonalData@12@PEBVSupportLocal@12@AEBVPxMatTransformV@aos@2@PEAVPersistentContact@12@AEAIAEBT__m128@@AEAT9@6M_NM@Z 000000018013dd70 f   GuPCMContactGenSphereCapsule.obj
 0001:0013cf60       ?generateSphereFullContactManifold@Gu@physx@@YA_NAEBVCapsuleV@12@AEBUPolygonalData@12@PEBVSupportLocal@12@PEAVPersistentContact@12@AEAIAEBT__m128@@AEAT7@_N@Z 000000018013df60 f   GuPCMContactGenSphereCapsule.obj
 0001:0013e430       ?pcmContactPlaneBox@Gu@physx@@YA_NAEBVPxGeometry@2@0AEBUPxTransformPadded@2@1AEBUNarrowPhaseParams@12@AEAUCache@12@AEAVPxContactBuffer@2@PEAVPxRenderOutput@2@@Z 000000018013f430 f   GuPCMContactPlaneBox.obj
 0001:0013eff0       ?pcmContactPlaneCapsule@Gu@physx@@YA_NAEBVPxGeometry@2@0AEBUPxTransformPadded@2@1AEBUNarrowPhaseParams@12@AEAUCache@12@AEAVPxContactBuffer@2@PEAVPxRenderOutput@2@@Z 000000018013fff0 f   GuPCMContactPlaneCapsule.obj
 0001:0013f770       ?pcmContactPlaneConvex@Gu@physx@@YA_NAEBVPxGeometry@2@0AEBUPxTransformPadded@2@1AEBUNarrowPhaseParams@12@AEAUCache@12@AEAVPxContactBuffer@2@PEAVPxRenderOutput@2@@Z 0000000180140770 f   GuPCMContactPlaneConvex.obj
 0001:001403f0       ?pcmContactSphereBox@Gu@physx@@YA_NAEBVPxGeometry@2@0AEBUPxTransformPadded@2@1AEBUNarrowPhaseParams@12@AEAUCache@12@AEAVPxContactBuffer@2@PEAVPxRenderOutput@2@@Z 00000001801413f0 f   GuPCMContactSphereBox.obj
 0001:00140850       ?pcmContactSphereCapsule@Gu@physx@@YA_NAEBVPxGeometry@2@0AEBUPxTransformPadded@2@1AEBUNarrowPhaseParams@12@AEAUCache@12@AEAVPxContactBuffer@2@PEAVPxRenderOutput@2@@Z 0000000180141850 f   GuPCMContactSphereCapsule.obj
 0001:00140cc0       ?pcmContactSphereConvex@Gu@physx@@YA_NAEBVPxGeometry@2@0AEBUPxTransformPadded@2@1AEBUNarrowPhaseParams@12@AEAUCache@12@AEAVPxContactBuffer@2@PEAVPxRenderOutput@2@@Z 0000000180141cc0 f   GuPCMContactSphereConvex.obj
 0001:00141990       ??1?$PxArray@USortedTriangle@Gu@physx@@V?$PxInlineAllocator@$0IAA@V?$PxReflectionAllocator@USortedTriangle@Gu@physx@@@physx@@@3@@physx@@QEAA@XZ 0000000180142990 f i GuPCMContactSphereHeightField.obj
 0001:00141a50       ?pcmContactSphereHeightField@Gu@physx@@YA_NAEBVPxGeometry@2@0AEBUPxTransformPadded@2@1AEBUNarrowPhaseParams@12@AEAUCache@12@AEAVPxContactBuffer@2@PEAVPxRenderOutput@2@@Z 0000000180142a50 f   GuPCMContactSphereHeightField.obj
 0001:00142ac0       ??$PxSort@USortedTriangle@Gu@physx@@U?$PxLess@USortedTriangle@Gu@physx@@@3@V?$PxReflectionAllocator@USortedTriangle@Gu@physx@@@3@@physx@@YAXPEAUSortedTriangle@Gu@0@IAEBU?$PxLess@USortedTriangle@Gu@physx@@@0@AEBV?$PxReflectionAllocator@USortedTriangle@Gu@physx@@@0@I@Z 0000000180143ac0 f i GuPCMContactSphereMesh.obj
 0001:00142fe0       ??$processTriangleCache@$0BA@VPCMSphereVsMeshContactGeneration@Gu@physx@@@PCMMeshContactGeneration@Gu@physx@@QEAA_NAEAU?$TriangleCache@$0BA@@12@@Z 0000000180143fe0 f i GuPCMContactSphereMesh.obj
 0001:001434b0       ?addToPatch@PCMSphereVsMeshContactGeneration@Gu@physx@@QEAAXAEBT__m128@@0T4@I@Z 00000001801444b0 f   GuPCMContactSphereMesh.obj
 0001:00143b70       ?allocate@?$PxArray@IV?$PxInlineAllocator@$0PAA@V?$PxReflectionAllocator@I@physx@@@physx@@@physx@@IEAAPEAII@Z 0000000180144b70 f i GuPCMContactSphereMesh.obj
 0001:00143c30       ?allocate@?$PxArray@USortedTriangle@Gu@physx@@V?$PxInlineAllocator@$0IAA@V?$PxReflectionAllocator@USortedTriangle@Gu@physx@@@physx@@@3@@physx@@IEAAPEAUSortedTriangle@Gu@2@I@Z 0000000180144c30 f i GuPCMContactSphereMesh.obj
 0001:00143cf0       ?generateLastContacts@PCMSphereVsMeshContactGeneration@Gu@physx@@QEAAXXZ 0000000180144cf0 f   GuPCMContactSphereMesh.obj
 0001:00144320       ?growAndPushBack@?$PxArray@USortedTriangle@Gu@physx@@V?$PxInlineAllocator@$0IAA@V?$PxReflectionAllocator@USortedTriangle@Gu@physx@@@physx@@@3@@physx@@IEAAAEAUSortedTriangle@Gu@2@AEBU342@@Z 0000000180145320 f i GuPCMContactSphereMesh.obj
 0001:00144430       ?pcmContactSphereMesh@Gu@physx@@YA_NAEBVPxGeometry@2@0AEBUPxTransformPadded@2@1AEBUNarrowPhaseParams@12@AEAUCache@12@AEAVPxContactBuffer@2@PEAVPxRenderOutput@2@@Z 0000000180145430 f   GuPCMContactSphereMesh.obj
 0001:001459a0       ?processTriangle@PCMSphereVsMeshContactGeneration@Gu@physx@@QEAA_NPEBV?$PxVec3T@M@3@IEPEBI@Z 00000001801469a0 f   GuPCMContactSphereMesh.obj
 0001:00145d90       ?recreate@?$PxArray@IV?$PxInlineAllocator@$0PAA@V?$PxReflectionAllocator@I@physx@@@physx@@@physx@@IEAAXI@Z 0000000180146d90 f i GuPCMContactSphereMesh.obj
 0001:00145e50       ?pcmContactSpherePlane@Gu@physx@@YA_NAEBVPxGeometry@2@0AEBUPxTransformPadded@2@1AEBUNarrowPhaseParams@12@AEAUCache@12@AEAVPxContactBuffer@2@PEAVPxRenderOutput@2@@Z 0000000180146e50 f   GuPCMContactSpherePlane.obj
 0001:00145fd0       ?pcmContactSphereSphere@Gu@physx@@YA_NAEBVPxGeometry@2@0AEBUPxTransformPadded@2@1AEBUNarrowPhaseParams@12@AEAUCache@12@AEAVPxContactBuffer@2@PEAVPxRenderOutput@2@@Z 0000000180146fd0 f   GuPCMContactSphereSphere.obj
 0001:001468a0       ?pcmContactGeometryCustomGeometry@Gu@physx@@YA_NAEBVPxGeometry@2@0AEBUPxTransformPadded@2@1AEBUNarrowPhaseParams@12@AEAUCache@12@AEAVPxContactBuffer@2@PEAVPxRenderOutput@2@@Z 00000001801478a0 f   GuPCMContactCustomGeometry.obj
 0001:00146950       ?getPCMConvexData@Gu@physx@@YAXAEBVConvexHullV@12@_NAEAUPolygonalData@12@@Z 0000000180147950 f   GuPCMShapeConvex.obj
 0001:00146990       ?getPCMConvexData@Gu@physx@@YA_NAEBVPxConvexMeshGeometry@2@AEAVFastVertex2ShapeScaling@Cm@2@AEAVPxBounds3@2@AEAUPolygonalData@12@@Z 0000000180147990 f   GuPCMShapeConvex.obj
 0001:00146ef0       ?getPolygonalData@PCMPolygonalBox@Gu@physx@@QEBAXPEIAUPolygonalData@23@@Z 0000000180147ef0 f   GuPCMShapeConvex.obj
 0001:00146f70       ?generatePolyDataContactManifold@PCMConvexVsMeshContactGeneration@Gu@physx@@QEAA_NAEBVTriangleV@23@IIEPEAVMeshPersistentContact@23@AEAIAEBT__m128@@AEAT6@@Z 0000000180147f70 f   GuPCMTriangleContactGen.obj
 0001:00147090       ?generateTriangleFullContactManifold@PCMConvexVsMeshContactGeneration@Gu@physx@@QEAA_NAEBVTriangleV@23@IPEBIEAEBUPolygonalData@23@PEBV?$SupportLocalImpl@VTriangleV@Gu@physx@@@23@PEBVSupportLocal@23@PEAVMeshPersistentContact@23@AEAIAEBT__m128@@AEAT9@@Z 0000000180148090 f   GuPCMTriangleContactGen.obj
 0001:001475c0       ?generateTriangleFullContactManifold@PCMConvexVsMeshContactGeneration@Gu@physx@@SA_NAEBVTriangleV@23@IEAEBUPolygonalData@23@PEBV?$SupportLocalImpl@VTriangleV@Gu@physx@@@23@PEBVSupportLocal@23@PEAVMeshPersistentContact@23@AEAIAEBT__m128@@AEAT9@PEAVPxRenderOutput@3@@Z 00000001801485c0 f   GuPCMTriangleContactGen.obj
 0001:00149650       ?addBatchManifoldContacts2@PersistentContactManifold@Gu@physx@@QEAAXPEBVPersistentContact@23@I@Z 000000018014a650 f   GuPersistentContactManifold.obj
 0001:001496c0       ?addBatchManifoldContacts@PersistentContactManifold@Gu@physx@@QEAAXPEBVPersistentContact@23@IM@Z 000000018014a6c0 f   GuPersistentContactManifold.obj
 0001:00149740       ?addBatchManifoldContactsCluster@PersistentContactManifold@Gu@physx@@QEAAXPEBVPersistentContact@23@I@Z 000000018014a740 f   GuPersistentContactManifold.obj
 0001:001499c0       ?addManifoldContactPoints@MultiplePersistentContactManifold@Gu@physx@@QEAAXPEAVMeshPersistentContact@23@IPEAPEAUPCMContactPatch@23@IAEBT__m128@@2E@Z 000000018014a9c0 f   GuPersistentContactManifold.obj
 0001:00149db0       ?addManifoldContactsToContactBuffer@MultiplePersistentContactManifold@Gu@physx@@QEAA_NAEAVPxContactBuffer@3@AEBVPxTransformV@aos@3@1AEBT__m128@@@Z 000000018014adb0 f   GuPersistentContactManifold.obj
 0001:0014a070       ?addManifoldContactsToContactBuffer@MultiplePersistentContactManifold@Gu@physx@@QEAA_NAEAVPxContactBuffer@3@AEBVPxTransformV@aos@3@@Z 000000018014b070 f   GuPersistentContactManifold.obj
 0001:0014a2f0       ?addManifoldContactsToContactBuffer@PersistentContactManifold@Gu@physx@@QEAAXAEAVPxContactBuffer@3@AEBT__m128@@1AEBVPxTransformV@aos@3@11@Z 000000018014b2f0 f   GuPersistentContactManifold.obj
 0001:0014a480       ?addManifoldContactsToContactBuffer@PersistentContactManifold@Gu@physx@@QEAAXAEAVPxContactBuffer@3@AEBT__m128@@AEBVPxMatTransformV@aos@3@@Z 000000018014b480 f   GuPersistentContactManifold.obj
 0001:0014a530       ?addManifoldContactsToContactBuffer@PersistentContactManifold@Gu@physx@@QEAAXAEAVPxContactBuffer@3@AEBT__m128@@AEBVPxTransformV@aos@3@1@Z 000000018014b530 f   GuPersistentContactManifold.obj
 0001:0014a690       ?addManifoldPoint2@PersistentContactManifold@Gu@physx@@QEAAIAEBT__m128@@000@Z 000000018014b690 f   GuPersistentContactManifold.obj
 0001:0014a7c0       ?addManifoldPoint@Gu@physx@@YAXPEAVPersistentContact@12@AEAVPersistentContactManifold@12@AEAUGjkOutput@12@AEBVPxMatTransformV@aos@2@T__m128@@@Z 000000018014b7c0 f   GuPersistentContactManifold.obj
 0001:0014a970       ?addManifoldPoint@PersistentContactManifold@Gu@physx@@QEAAIAEBT__m128@@000@Z 000000018014b970 f   GuPersistentContactManifold.obj
 0001:0014adb0       ?drawLine@MultiplePersistentContactManifold@Gu@physx@@SAXAEAVPxRenderOutput@3@AEBT__m128@@1I@Z 000000018014bdb0 f   GuPersistentContactManifold.obj
 0001:0014ae60       ?drawLine@MultiplePersistentContactManifold@Gu@physx@@SAXAEAVPxRenderOutput@3@V?$PxVec3T@M@3@1I@Z 000000018014be60 f   GuPersistentContactManifold.obj
 0001:0014aed0       ?drawManifold@MultiplePersistentContactManifold@Gu@physx@@QEBAXAEAVPxRenderOutput@3@AEBVPxTransformV@aos@3@1@Z 000000018014bed0 f   GuPersistentContactManifold.obj
 0001:0014af50       ?drawManifold@SinglePersistentContactManifold@Gu@physx@@QEBAXAEAVPxRenderOutput@3@AEBVPxTransformV@aos@3@1@Z 000000018014bf50 f   GuPersistentContactManifold.obj
 0001:0014b580       ?drawPoint@MultiplePersistentContactManifold@Gu@physx@@SAXAEAVPxRenderOutput@3@AEBT__m128@@MI@Z 000000018014c580 f   GuPersistentContactManifold.obj
 0001:0014b790       ?drawPolygon@MultiplePersistentContactManifold@Gu@physx@@SAXAEAVPxRenderOutput@3@AEBVPxTransformV@aos@3@PEAT__m128@@II@Z 000000018014c790 f   GuPersistentContactManifold.obj
 0001:0014ba10       ?findRotationMatrixFromZAxis@Gu@physx@@YA?AUMat33V@aos@2@AEBT__m128@@@Z 000000018014ca10 f   GuPersistentContactManifold.obj
 0001:0014bc90       ?fromBuffer@MultiplePersistentContactManifold@Gu@physx@@QEAAXPEIAE@Z 000000018014cc90 f   GuPersistentContactManifold.obj
 0001:0014bde0       ?reduceBatchContacts2@PersistentContactManifold@Gu@physx@@QEAAXPEBVPersistentContact@23@I@Z 000000018014cde0 f   GuPersistentContactManifold.obj
 0001:0014bfe0       ?reduceBatchContacts@PersistentContactManifold@Gu@physx@@QEAAXPEBVPersistentContact@23@IM@Z 000000018014cfe0 f   GuPersistentContactManifold.obj
 0001:0014c4a0       ?reduceBatchContactsCapsule@SinglePersistentContactManifold@Gu@physx@@QEAA?AT__m128@@PEBVMeshPersistentContact@23@IAEAUPCMContactPatch@23@@Z 000000018014d4a0 f   GuPersistentContactManifold.obj
 0001:0014c730       ?reduceBatchContactsCluster@PersistentContactManifold@Gu@physx@@QEAAXPEBVPersistentContact@23@I@Z 000000018014d730 f   GuPersistentContactManifold.obj
 0001:0014cbc0       ?reduceBatchContactsConvex@SinglePersistentContactManifold@Gu@physx@@QEAA?AT__m128@@PEBVMeshPersistentContact@23@IAEAUPCMContactPatch@23@@Z 000000018014dbc0 f   GuPersistentContactManifold.obj
 0001:0014d1b0       ?reduceContacts@SinglePersistentContactManifold@Gu@physx@@SAIPEAVMeshPersistentContact@23@I@Z 000000018014e1b0 f   GuPersistentContactManifold.obj
 0001:0014d730       ?reduceContactsForPCM@PersistentContactManifold@Gu@physx@@QEAAIAEBT__m128@@00@Z 000000018014e730 f   GuPersistentContactManifold.obj
 0001:0014dcd0       ?refreshContactPoints@SinglePersistentContactManifold@Gu@physx@@QEAA?AT__m128@@AEBVPxMatTransformV@aos@3@AEBT4@1@Z 000000018014ecd0 f   GuPersistentContactManifold.obj
 0001:0014de20       ?replaceManifoldPoint@PersistentContactManifold@Gu@physx@@QEAA_NAEBT__m128@@000@Z 000000018014ee20 f   GuPersistentContactManifold.obj
 0001:0014dee0       ?toBuffer@MultiplePersistentContactManifold@Gu@physx@@QEBAXPEIAE@Z 000000018014eee0 f   GuPersistentContactManifold.obj
 0001:0014dfc0       ?contains@Gu@physx@@YA_NPEAT__m128@@IAEBT3@11@Z 000000018014efc0 f   GuPCMContactGenUtil.obj
 0001:0014e180       ?getPolygonIndex@Gu@physx@@YAHAEBUPolygonalData@12@PEBVSupportLocal@12@AEBT__m128@@AEAH@Z 000000018014f180 f   GuPCMContactGenUtil.obj
 0001:0014e420       ?getWitnessPolygonIndex@Gu@physx@@YAIAEBUPolygonalData@12@PEBVSupportLocal@12@AEBT__m128@@2M@Z 000000018014f420 f   GuPCMContactGenUtil.obj
 0001:0014e970       ?sweepBoxBox@Gu@physx@@YA_NAEBVBox@12@0AEBV?$PxVec3T@M@2@MV?$PxFlags@W4Enum@PxHitFlag@physx@@G@2@AEAUPxGeomSweepHit@2@@Z 000000018014f970 f   GuSweepBoxBox.obj
 0001:0014ffb0       ?sweepBoxSphere@Gu@physx@@YA_NAEBVBox@12@MAEBV?$PxVec3T@M@2@1MAEAMAEAV42@V?$PxFlags@W4Enum@PxHitFlag@physx@@G@2@@Z 0000000180150fb0 f   GuSweepBoxSphere.obj
 0001:00150c70       ?sweepBoxTriangle@Gu@physx@@YA_NAEBVPxTriangle@2@AEBVPxBounds3@2@AEBV?$PxVec3T@M@2@2AEAV52@3AEAM_N@Z 0000000180151c70 f   GuSweepBoxTriangle_FeatureBased.obj
 0001:00152390       ?triBoxSweepTestBoxSpace@Gu@physx@@YAHAEBVPxTriangle@2@AEBV?$PxVec3T@M@2@11MAEAM_N@Z 0000000180153390 f   GuSweepBoxTriangle_SAT.obj
 0001:00153c90       ?sweepCapsuleBox@Gu@physx@@YA_NAEBVCapsule@12@AEBV?$PxTransformT@M@2@AEBV?$PxVec3T@M@2@2MAEAV52@AEAM3V?$PxFlags@W4Enum@PxHitFlag@physx@@G@2@@Z 0000000180154c90 f   GuSweepCapsuleBox.obj
 0001:00153ff0       ?distancePointSegmentSquared@Gu@physx@@YAMAEBVSegment@12@AEBV?$PxVec3T@M@2@PEAM@Z 0000000180154ff0 f i GuSweepCapsuleCapsule.obj
 0001:00154100       ?edgeEdgeDist@@YAXAEAV?$PxVec3T@M@physx@@0AEBV12@111@Z 0000000180155100 f   GuSweepCapsuleCapsule.obj
 0001:00154370       ?sweepCapsuleCapsule@Gu@physx@@YA_NAEBVCapsule@12@0AEBV?$PxVec3T@M@2@MAEAMAEAV42@3IAEAG@Z 0000000180155370 f   GuSweepCapsuleCapsule.obj
 0001:00155180       ?sweepCapsuleTriangles_Precise@Gu@physx@@YA_NIPEIBVPxTriangle@2@AEBVCapsule@12@AEBV?$PxVec3T@M@2@MPEIBIAEAUPxGeomSweepHit@2@AEAV52@V?$PxFlags@W4Enum@PxHitFlag@physx@@G@2@_NPEBVBoxPadded@12@@Z 0000000180156180 f   GuSweepCapsuleTriangle.obj
 0001:00157390       ?sweepSphereCapsule@Gu@physx@@YA_NAEBVSphere@12@AEBVCapsule@12@AEBV?$PxVec3T@M@2@MAEAMAEAV52@4V?$PxFlags@W4Enum@PxHitFlag@physx@@G@2@@Z 0000000180158390 f   GuSweepSphereCapsule.obj
 0001:00157a30       ?sweepSphereSphere@Gu@physx@@YA_NAEBV?$PxVec3T@M@2@M0M0AEAMAEAV32@@Z 0000000180158a30 f   GuSweepSphereSphere.obj
 0001:00157ca0       ?sweepSphereTriangles@Gu@physx@@YA_NIPEIBVPxTriangle@2@AEBV?$PxVec3T@M@2@M1MPEIBIAEAUPxGeomSweepHit@2@AEAV42@_N555@Z 0000000180158ca0 f   GuSweepSphereTriangle.obj
 0001:00158570       ?sweepSphereVSQuad@Gu@physx@@YA_NPEIBV?$PxVec3T@M@2@AEBV32@1M1AEAM@Z 0000000180159570 f   GuSweepSphereTriangle.obj
 0001:00159550       ?sweepSphereVSTri@Gu@physx@@YA_NPEIBV?$PxVec3T@M@2@AEBV32@1M1AEAMAEA_N_N@Z 000000018015a550 f   GuSweepSphereTriangle.obj
 0001:0015a270       ??$gjk@U?$LocalConvex@VTriangleV@Gu@physx@@@Gu@physx@@U?$LocalConvex@VBoxV@Gu@physx@@@23@@Gu@physx@@YA?AW4GjkStatus@01@AEBU?$LocalConvex@VTriangleV@Gu@physx@@@01@AEBU?$LocalConvex@VBoxV@Gu@physx@@@01@AEBT__m128@@2AEAT5@333@Z 000000018015b270 f i GuSweepTriangleUtils.obj
 0001:0015af50       ?computeBoxTriImpactData@Gu@physx@@YAXAEAV?$PxVec3T@M@2@0AEBV32@1AEBVPxTriangle@2@M@Z 000000018015bf50 f   GuSweepTriangleUtils.obj
 0001:0015b1e0       ?computeEdgeEdgeNormal@Gu@physx@@YAXAEAV?$PxVec3T@M@2@AEBV32@1111M@Z 000000018015c1e0 f   GuSweepTriangleUtils.obj
 0001:0015b490       ?computeSphereTriImpactData@Gu@physx@@YAXAEAV?$PxVec3T@M@2@0AEBV32@1MAEBVPxTriangle@2@@Z 000000018015c490 f   GuSweepTriangleUtils.obj
 0001:0015b970       ??0ShapeData@Gu@physx@@QEAA@AEBVPxGeometry@2@AEBV?$PxTransformT@M@2@M@Z 000000018015c970 f   GuBounds.obj
 0001:0015bee0       ?computeBounds@Gu@physx@@YAXAEAVPxBounds3@2@AEBVPxGeometry@2@AEBV?$PxTransformT@M@2@MM@Z 000000018015cee0 f   GuBounds.obj
 0001:0015ca60       ?computeBoundsAroundVertices@Gu@physx@@YAXAEAVPxBounds3@2@IPEIBV?$PxVec3T@M@2@@Z 000000018015da60 f   GuBounds.obj
 0001:0015cb10       ?computeGlobalBox@Gu@physx@@YAXAEAVPxBounds3@2@IPEIBV32@PEIBI@Z 000000018015db10 f   GuBounds.obj
 0001:0015cba0       ?computeLocalBoundsAndGeomEpsilon@Gu@physx@@YAXPEBV?$PxVec3T@M@2@IAEAVPxBounds3@2@AEAM@Z 000000018015dba0 f   GuBounds.obj
 0001:0015dcc0       ?computeTightBounds@Gu@physx@@YAXAEAVPxBounds3@2@IPEIBV?$PxVec3T@M@2@AEBV?$PxTransformT@M@2@AEBVPxMeshScale@2@MM@Z 000000018015ecc0 f   GuBounds.obj
 0001:0015e080       ??0AABBTree@Gu@physx@@QEAA@XZ 000000018015f080 f   GuAABBTree.obj
 0001:0015e0b0       ??0BVHPartialRefitData@Gu@physx@@QEAA@XZ 000000018015f0b0 f   GuAABBTree.obj
 0001:0015e0e0       ??0NodeAllocator@Gu@physx@@QEAA@XZ 000000018015f0e0 f   GuAABBTree.obj
 0001:0015e100       ??1AABBTree@Gu@physx@@QEAA@XZ 000000018015f100 f   GuAABBTree.obj
 0001:0015e120       ??1BVHPartialRefitData@Gu@physx@@QEAA@XZ 000000018015f120 f   GuAABBTree.obj
 0001:0015e1c0       ??1NodeAllocator@Gu@physx@@QEAA@XZ 000000018015f1c0 f   GuAABBTree.obj
 0001:0015e210       ?_buildHierarchy@AABBTreeBuildNode@Gu@physx@@QEAAXAEBVAABBTreeBuildParams@23@AEAUBuildStats@23@AEAVNodeAllocator@23@QEAI@Z 000000018015f210 f   GuAABBTree.obj
 0001:0015e2a0       ?_buildHierarchySAH@AABBTreeBuildNode@Gu@physx@@QEAAXAEBVAABBTreeBuildParams@23@AEAUSAH_Buffers@23@AEAUBuildStats@23@AEAVNodeAllocator@23@QEAI@Z 000000018015f2a0 f   GuAABBTree.obj
 0001:0015e350       ?addRuntimeChilds@AABBTree@Gu@physx@@AEAAXAEAIAEBVAABBTreeMergeData@23@@Z 000000018015f350 f   GuAABBTree.obj
 0001:0015e450       ?build@AABBTree@Gu@physx@@QEAA_NAEBVAABBTreeBuildParams@23@AEAVNodeAllocator@23@@Z 000000018015f450 f   GuAABBTree.obj
 0001:0015e670       ?buildAABBTree@Gu@physx@@YAPEAIAEBVAABBTreeBuildParams@12@AEAVNodeAllocator@12@AEAUBuildStats@12@@Z 000000018015f670 f   GuAABBTree.obj
 0001:0015e710       ?buildAABBTree@Gu@physx@@YAXIAEBVAABBTreeBounds@12@AEAV?$PxArray@UBVHNode@Gu@physx@@V?$PxReflectionAllocator@UBVHNode@Gu@physx@@@3@@2@@Z 000000018015f710 f   GuAABBTree.obj
 0001:0015eae0       ?buildEnd@AABBTree@Gu@physx@@AEAAXAEBVAABBTreeBuildParams@23@AEAVNodeAllocator@23@AEBUBuildStats@23@@Z 000000018015fae0 f   GuAABBTree.obj
 0001:0015ed00       ?createUpdateMap@BVHPartialRefitData@Gu@physx@@QEAAXI@Z 000000018015fd00 f   GuAABBTree.obj
 0001:0015ee20       ?flattenTree@Gu@physx@@YAXAEBVNodeAllocator@12@PEAUBVHNode@12@PEBI@Z 000000018015fe20 f   GuAABBTree.obj
 0001:0015f010       ?fullRefit@BVHCoreData@Gu@physx@@QEAAXPEBVPxBounds3@3@@Z 0000000180160010 f   GuAABBTree.obj
 0001:0015f1d0       ?getBiNode@NodeAllocator@Gu@physx@@QEAAPEAVAABBTreeBuildNode@23@XZ 00000001801601d0 f   GuAABBTree.obj
 0001:0015f300       ?getParentIndices@BVHPartialRefitData@Gu@physx@@IEAAPEAIXZ 0000000180160300 f   GuAABBTree.obj
 0001:0015f390       ?growAndPushBack@?$PxArray@PEAVAABBTreeBuildNode@Gu@physx@@V?$PxReflectionAllocator@PEAVAABBTreeBuildNode@Gu@physx@@@3@@physx@@IEAAAEAPEAVAABBTreeBuildNode@Gu@2@AEBQEAV342@@Z 0000000180160390 f i GuAABBTree.obj
 0001:0015f4b0       ?growAndPushBack@?$PxArray@USlab@NodeAllocator@Gu@physx@@V?$PxReflectionAllocator@USlab@NodeAllocator@Gu@physx@@@4@@physx@@IEAAAEAUSlab@NodeAllocator@Gu@2@AEBU3452@@Z 00000001801604b0 f i GuAABBTree.obj
 0001:0015f570       ?init@AABBTreeBounds@Gu@physx@@QEAAXIPEBVPxBounds3@3@@Z 0000000180160570 f   GuAABBTree.obj
 0001:0015f630       ?init@NodeAllocator@Gu@physx@@QEAAXII@Z 0000000180160630 f   GuAABBTree.obj
 0001:0015f970       ?initTree@AABBTree@Gu@physx@@QEAAXAEBVAABBTreeMergeData@23@@Z 0000000180160970 f   GuAABBTree.obj
 0001:0015faa0       ?markNodeForRefit@BVHPartialRefitData@Gu@physx@@QEAAXI@Z 0000000180160aa0 f   GuAABBTree.obj
 0001:0015fbb0       ?mergeRuntimeLeaf@AABBTree@Gu@physx@@AEAAXAEAUBVHNode@23@AEBVAABBTreeMergeData@23@I@Z 0000000180160bb0 f   GuAABBTree.obj
 0001:0015fe00       ?mergeRuntimeNode@AABBTree@Gu@physx@@AEAAXAEAUBVHNode@23@AEBVAABBTreeMergeData@23@I@Z 0000000180160e00 f   GuAABBTree.obj
 0001:00160120       ?mergeTree@AABBTree@Gu@physx@@QEAAXAEBVAABBTreeMergeData@23@@Z 0000000180161120 f   GuAABBTree.obj
 0001:001603b0       ?progressiveBuild@AABBTree@Gu@physx@@QEAAIAEBVAABBTreeBuildParams@23@AEAVNodeAllocator@23@AEAUBuildStats@23@II@Z 00000001801613b0 f   GuAABBTree.obj
 0001:00160660       ?refitMarkedNodes@BVHPartialRefitData@Gu@physx@@QEAAXPEBVPxBounds3@3@@Z 0000000180161660 f   GuAABBTree.obj
 0001:001607d0       ?release@AABBTree@Gu@physx@@QEAAX_N@Z 00000001801617d0 f   GuAABBTree.obj
 0001:001608c0       ?release@AABBTreeBounds@Gu@physx@@QEAAXXZ 00000001801618c0 f   GuAABBTree.obj
 0001:00160910       ?release@NodeAllocator@Gu@physx@@QEAAXXZ 0000000180161910 f   GuAABBTree.obj
 0001:001609c0       ?releasePartialRefitData@BVHPartialRefitData@Gu@physx@@QEAAX_N@Z 00000001801619c0 f   GuAABBTree.obj
 0001:00160a50       ?reshuffle@Gu@physx@@YAIIQEIAIPEIBV?$PxVec3T@M@2@MI@Z 0000000180161a50 f   GuAABBTree.obj
 0001:00160b90       ?resize@?$PxArray@USlab@NodeAllocator@Gu@physx@@V?$PxReflectionAllocator@USlab@NodeAllocator@Gu@physx@@@4@@physx@@QEAAXIAEBUSlab@NodeAllocator@Gu@2@@Z 0000000180161b90 f i GuAABBTree.obj
 0001:00160c10       ?resize@AABBTreeBounds@Gu@physx@@QEAAXII@Z 0000000180161c10 f   GuAABBTree.obj
 0001:00160cb0       ?shiftIndices@AABBTree@Gu@physx@@QEAAXI@Z 0000000180161cb0 f   GuAABBTree.obj
 0001:00160cd0       ?shiftOrigin@AABBTree@Gu@physx@@QEAAXAEBV?$PxVec3T@M@3@@Z 0000000180161cd0 f   GuAABBTree.obj
 0001:00161040       ?subdivide@AABBTreeBuildNode@Gu@physx@@QEAAXAEBVAABBTreeBuildParams@23@AEAUBuildStats@23@AEAVNodeAllocator@23@QEAI@Z 0000000180162040 f   GuAABBTree.obj
 0001:00161240       ?subdivideSAH@AABBTreeBuildNode@Gu@physx@@QEAAXAEBVAABBTreeBuildParams@23@AEAUSAH_Buffers@23@AEAUBuildStats@23@AEAVNodeAllocator@23@QEAI@Z 0000000180162240 f   GuAABBTree.obj
 0001:00161330       ?traverseRuntimeNode@AABBTree@Gu@physx@@AEAAXAEAUBVHNode@23@AEBVAABBTreeMergeData@23@I@Z 0000000180162330 f   GuAABBTree.obj
 0001:00161470       ?initMap@AABBTreeUpdateMap@Gu@physx@@QEAAXIAEBVAABBTree@23@@Z 0000000180162470 f   GuAABBTreeUpdateMap.obj
 0001:00161600       ?invalidate@AABBTreeUpdateMap@Gu@physx@@QEAAXIIAEAVAABBTree@23@@Z 0000000180162600 f   GuAABBTreeUpdateMap.obj
 0001:001618a0       ?visualizeTree@@YAXAEAVPxRenderOutput@physx@@IPEBVAABBTree@Gu@2@@Z 00000001801628a0 f   GuSqInternal.obj
 0001:00161910       ?visualizeTree@@YAXAEAVPxRenderOutput@physx@@IPEBVBVH@Gu@2@@Z 0000000180162910 f   GuSqInternal.obj
 0001:00161980       ?visualizeTree@@YAXAEAVPxRenderOutput@physx@@IPEBVIncrementalAABBTree@Gu@2@PEAVDebugVizCallback@2@@Z 0000000180162980 f   GuSqInternal.obj
 0001:00161a00       ??$PxSort@PEAXU?$PxLess@PEAX@physx@@V?$PxReflectionAllocator@UAABBTreeIndices@Gu@physx@@@2@@physx@@YAXPEAPEAXIAEBU?$PxLess@PEAX@0@AEBV?$PxReflectionAllocator@UAABBTreeIndices@Gu@physx@@@0@I@Z 0000000180162a00 f i GuIncrementalAABBTree.obj
 0001:00161e60       ??$PxSort@PEAXU?$PxLess@PEAX@physx@@V?$PxReflectionAllocator@UIncrementalAABBTreeNodePair@Gu@physx@@@2@@physx@@YAXPEAPEAXIAEBU?$PxLess@PEAX@0@AEBV?$PxReflectionAllocator@UIncrementalAABBTreeNodePair@Gu@physx@@@0@I@Z 0000000180162e60 f i GuIncrementalAABBTree.obj
 0001:001622c0       ??0IncrementalAABBTree@Gu@physx@@QEAA@XZ 00000001801632c0 f   GuIncrementalAABBTree.obj
 0001:00162340       ??1?$PxPoolBase@UAABBTreeIndices@Gu@physx@@V?$PxReflectionAllocator@UAABBTreeIndices@Gu@physx@@@3@@physx@@QEAA@XZ 0000000180163340 f i GuIncrementalAABBTree.obj
 0001:001624a0       ??1?$PxPoolBase@UIncrementalAABBTreeNodePair@Gu@physx@@V?$PxReflectionAllocator@UIncrementalAABBTreeNodePair@Gu@physx@@@3@@physx@@QEAA@XZ 00000001801634a0 f i GuIncrementalAABBTree.obj
 0001:00162600       ??1IncrementalAABBTree@Gu@physx@@QEAA@XZ 0000000180163600 f   GuIncrementalAABBTree.obj
 0001:00162640       ?allocate@?$PxArray@PEAXV?$PxReflectionAllocator@UAABBTreeIndices@Gu@physx@@@physx@@@physx@@IEAAPEAPEAXI@Z 0000000180163640 f i GuIncrementalAABBTree.obj
 0001:001626d0       ?allocate@?$PxArray@PEAXV?$PxReflectionAllocator@UIncrementalAABBTreeNodePair@Gu@physx@@@physx@@@physx@@IEAAPEAPEAXI@Z 00000001801636d0 f i GuIncrementalAABBTree.obj
 0001:00162760       ?allocate@?$PxPoolBase@UAABBTreeIndices@Gu@physx@@V?$PxReflectionAllocator@UAABBTreeIndices@Gu@physx@@@3@@physx@@QEAAPEAUAABBTreeIndices@Gu@2@XZ 0000000180163760 f i GuIncrementalAABBTree.obj
 0001:00162850       ?allocate@?$PxPoolBase@UIncrementalAABBTreeNodePair@Gu@physx@@V?$PxReflectionAllocator@UIncrementalAABBTreeNodePair@Gu@physx@@@3@@physx@@QEAAPEAUIncrementalAABBTreeNodePair@Gu@2@XZ 0000000180163850 f i GuIncrementalAABBTree.obj
 0001:00162940       ?build@IncrementalAABBTree@Gu@physx@@QEAA_NAEBVAABBTreeBuildParams@23@AEAV?$PxArray@PEAVIncrementalAABBTreeNode@Gu@physx@@V?$PxReflectionAllocator@PEAVIncrementalAABBTreeNode@Gu@physx@@@3@@3@@Z 0000000180163940 f   GuIncrementalAABBTree.obj
 0001:00162b20       ?clone@IncrementalAABBTree@Gu@physx@@AEAAXAEAV?$PxArray@PEAVIncrementalAABBTreeNode@Gu@physx@@V?$PxReflectionAllocator@PEAVIncrementalAABBTreeNode@Gu@physx@@@3@@3@PEBIPEAPEAVIncrementalAABBTreeNode@23@@Z 0000000180163b20 f   GuIncrementalAABBTree.obj
 0001:00163010       ?copy@IncrementalAABBTree@Gu@physx@@QEAAXAEBVBVH@23@AEAV?$PxArray@PEAVIncrementalAABBTreeNode@Gu@physx@@V?$PxReflectionAllocator@PEAVIncrementalAABBTreeNode@Gu@physx@@@3@@3@@Z 0000000180164010 f   GuIncrementalAABBTree.obj
 0001:001630c0       ?copyNode@IncrementalAABBTree@Gu@physx@@AEAAXAEAVIncrementalAABBTreeNode@23@AEBUBVHNode@23@PEBU523@PEAV423@PEBIAEAV?$PxArray@PEAVIncrementalAABBTreeNode@Gu@physx@@V?$PxReflectionAllocator@PEAVIncrementalAABBTreeNode@Gu@physx@@@3@@3@@Z 00000001801640c0 f   GuIncrementalAABBTree.obj
 0001:00163280       ?fixupTreeIndices@IncrementalAABBTree@Gu@physx@@QEAAXPEAVIncrementalAABBTreeNode@23@II@Z 0000000180164280 f   GuIncrementalAABBTree.obj
 0001:001632b0       ?getTreeLeafDepth@IncrementalAABBTree@Gu@physx@@QEAAIPEAVIncrementalAABBTreeNode@23@@Z 00000001801642b0 f   GuIncrementalAABBTree.obj
 0001:001632d0       ?growAndPushBack@?$PxArray@PEAVIncrementalAABBTreeNode@Gu@physx@@V?$PxReflectionAllocator@PEAVIncrementalAABBTreeNode@Gu@physx@@@3@@physx@@IEAAAEAPEAVIncrementalAABBTreeNode@Gu@2@AEBQEAV342@@Z 00000001801642d0 f i GuIncrementalAABBTree.obj
 0001:001633f0       ?growAndPushBack@?$PxArray@PEAXV?$PxReflectionAllocator@UAABBTreeIndices@Gu@physx@@@physx@@@physx@@IEAAAEAPEAXAEBQEAX@Z 00000001801643f0 f i GuIncrementalAABBTree.obj
 0001:001634b0       ?growAndPushBack@?$PxArray@PEAXV?$PxReflectionAllocator@UIncrementalAABBTreeNodePair@Gu@physx@@@physx@@@physx@@IEAAAEAPEAXAEBQEAX@Z 00000001801644b0 f i GuIncrementalAABBTree.obj
 0001:00163570       ?hierarchyCheck@IncrementalAABBTree@Gu@physx@@QEAAXIPEBVPxBounds3@3@@Z 0000000180164570 f   GuIncrementalAABBTree.obj
 0001:001636c0       ?hierarchyCheck@IncrementalAABBTree@Gu@physx@@QEAAXPEBVPxBounds3@3@@Z 00000001801646c0 f   GuIncrementalAABBTree.obj
 0001:00163830       ?insert@IncrementalAABBTree@Gu@physx@@QEAAPEAVIncrementalAABBTreeNode@23@IPEBVPxBounds3@3@AEAV?$PxArray@PEAVIncrementalAABBTreeNode@Gu@physx@@V?$PxReflectionAllocator@PEAVIncrementalAABBTreeNode@Gu@physx@@@3@@3@@Z 0000000180164830 f   GuIncrementalAABBTree.obj
 0001:00163f10       ?recreate@?$PxArray@PEAXV?$PxReflectionAllocator@UAABBTreeIndices@Gu@physx@@@physx@@@physx@@IEAAXI@Z 0000000180164f10 f i GuIncrementalAABBTree.obj
 0001:00163fb0       ?recreate@?$PxArray@PEAXV?$PxReflectionAllocator@UIncrementalAABBTreeNodePair@Gu@physx@@@physx@@@physx@@IEAAXI@Z 0000000180164fb0 f i GuIncrementalAABBTree.obj
 0001:00164050       ?release@IncrementalAABBTree@Gu@physx@@QEAAXXZ 0000000180165050 f   GuIncrementalAABBTree.obj
 0001:00164080       ?releaseNode@IncrementalAABBTree@Gu@physx@@AEAAXPEAVIncrementalAABBTreeNode@23@@Z 0000000180165080 f   GuIncrementalAABBTree.obj
 0001:00164110       ?remove@IncrementalAABBTree@Gu@physx@@QEAAPEAVIncrementalAABBTreeNode@23@PEAV423@IPEBVPxBounds3@3@@Z 0000000180165110 f   GuIncrementalAABBTree.obj
 0001:00164430       ?rotateTree@IncrementalAABBTree@Gu@physx@@AEAAXPEAVIncrementalAABBTreeNode@23@AEAV?$PxArray@PEAVIncrementalAABBTreeNode@Gu@physx@@V?$PxReflectionAllocator@PEAVIncrementalAABBTreeNode@Gu@physx@@@3@@3@IPEBVPxBounds3@3@_N@Z 0000000180165430 f   GuIncrementalAABBTree.obj
 0001:00164d90       ?shiftOrigin@IncrementalAABBTree@Gu@physx@@QEAAXAEBV?$PxVec3T@M@3@@Z 0000000180165d90 f   GuIncrementalAABBTree.obj
 0001:00164df0       ?splitLeafNode@IncrementalAABBTree@Gu@physx@@AEAAPEAVIncrementalAABBTreeNode@23@PEAV423@IAEBT__m128@@1PEBVPxBounds3@3@@Z 0000000180165df0 f   GuIncrementalAABBTree.obj
 0001:001650e0       ?update@IncrementalAABBTree@Gu@physx@@QEAAPEAVIncrementalAABBTreeNode@23@PEAV423@IPEBVPxBounds3@3@AEAV?$PxArray@PEAVIncrementalAABBTreeNode@Gu@physx@@V?$PxReflectionAllocator@PEAVIncrementalAABBTreeNode@Gu@physx@@@3@@3@@Z 00000001801660e0 f   GuIncrementalAABBTree.obj
 0001:001651a0       ?updateFast@IncrementalAABBTree@Gu@physx@@QEAAPEAVIncrementalAABBTreeNode@23@PEAV423@IPEBVPxBounds3@3@AEAV?$PxArray@PEAVIncrementalAABBTreeNode@Gu@physx@@V?$PxReflectionAllocator@PEAVIncrementalAABBTreeNode@Gu@physx@@@3@@3@@Z 00000001801661a0 f   GuIncrementalAABBTree.obj
 0001:001653c0       ??0SAH_Buffers@Gu@physx@@QEAA@I@Z 00000001801663c0 f   GuSAH.obj
 0001:001654d0       ??1SAH_Buffers@Gu@physx@@QEAA@XZ 00000001801664d0 f   GuSAH.obj
 0001:001655a0       ?split@SAH_Buffers@Gu@physx@@QEAA_NAEAIIPEIBIPEIBVPxBounds3@3@PEIBV?$PxVec3T@M@3@@Z 00000001801665a0 f   GuSAH.obj
 0001:00165c70       ??0BVH@Gu@physx@@QEAA@AEBUPxBVHInternalData@2@@Z 0000000180166c70 f   GuBVH.obj
 0001:00165d30       ??0BVH@Gu@physx@@QEAA@PEAVMeshFactory@12@@Z 0000000180166d30 f   GuBVH.obj
 0001:00165da0       ??0BVH@Gu@physx@@QEAA@PEAVMeshFactory@12@AEAVBVHData@12@@Z 0000000180166da0 f   GuBVH.obj
 0001:00165e50       ??1BVHData@Gu@physx@@QEAA@XZ 0000000180166e50 f i GuBVH.obj
 0001:00169850       ??_EBVH@Gu@physx@@WBA@EAAPEAXI@Z 000000018016a850 f i GuBVH.obj
 0001:00169860       ??_EBVH@Gu@physx@@UEAAPEAXI@Z 000000018016a860 f i GuBVH.obj
 0001:00169860       ??_GBVH@Gu@physx@@UEAAPEAXI@Z 000000018016a860 f i GuBVH.obj
 0001:001698f0       ??_ERefCountable@Cm@physx@@UEAAPEAXI@Z 000000018016a8f0 f i GuBVH.obj
 0001:001698f0       ??_GRefCountable@Cm@physx@@UEAAPEAXI@Z 000000018016a8f0 f i GuBVH.obj
 0001:00169b20       ?allocate@?$PxArray@PEBUBVHNode@Gu@physx@@V?$PxInlineAllocator@$0IAA@V?$PxReflectionAllocator@PEBUBVHNode@Gu@physx@@@physx@@@3@@physx@@IEAAPEAPEBUBVHNode@Gu@2@I@Z 000000018016ab20 f i GuBVH.obj
 0001:00169be0       ?build@BVHData@Gu@physx@@QEAA_NIPEBXIMIW4BVHBuildStrategy@23@@Z 000000018016abe0 f   GuBVH.obj
 0001:00169fe0       ?cull@BVH@Gu@physx@@UEBA_NIPEBVPxPlane@3@AEAUOverlapCallback@PxBVH@3@V?$PxFlags@W4Enum@PxGeometryQueryFlag@physx@@I@3@@Z 000000018016afe0 f   GuBVH.obj
 0001:0016a920       ?getConcreteTypeName@PxBVH@physx@@UEBAPEBDXZ 000000018016b920 f i GuBVH.obj
 0001:0016a930       ?init@BVH@Gu@physx@@QEAA_NIPEAVAABBTreeBounds@23@PEBXIW4BVHBuildStrategy@23@IM@Z 000000018016b930 f   GuBVH.obj
 0001:0016ad40       ?isKindOf@PxBVH@physx@@MEBA_NPEBD@Z 000000018016bd40 f i GuBVH.obj
 0001:0016adb0       ?load@BVH@Gu@physx@@QEAA_NAEAVPxInputStream@3@@Z 000000018016bdb0 f   GuBVH.obj
 0001:0016af40       ?onRefCountZero@BVH@Gu@physx@@UEAAXXZ 000000018016bf40 f   GuBVH.obj
 0001:0016b020       ?onRefCountZero@RefCountable@Cm@physx@@UEAAXXZ 000000018016c020 f i GuBVH.obj
 0001:0016b040       ?overlap@BVH@Gu@physx@@QEBA_NAEBVShapeData@23@AEAUOverlapCallback@PxBVH@3@V?$PxFlags@W4Enum@PxGeometryQueryFlag@physx@@I@3@@Z 000000018016c040 f   GuBVH.obj
 0001:0016b870       ?overlap@BVH@Gu@physx@@UEBA_NAEBVPxGeometry@3@AEBV?$PxTransformT@M@3@AEAUOverlapCallback@PxBVH@3@V?$PxFlags@W4Enum@PxGeometryQueryFlag@physx@@I@3@@Z 000000018016c870 f   GuBVH.obj
 0001:0016b8d0       ?partialRefit@BVH@Gu@physx@@UEAAXXZ 000000018016c8d0 f   GuBVH.obj
 0001:0016b8e0       ?raycast@BVH@Gu@physx@@UEBA_NAEBV?$PxVec3T@M@3@0MAEAURaycastCallback@PxBVH@3@V?$PxFlags@W4Enum@PxGeometryQueryFlag@physx@@I@3@@Z 000000018016c8e0 f   GuBVH.obj
 0001:0016ba10       ?recreate@?$PxArray@PEBUBVHNode@Gu@physx@@V?$PxInlineAllocator@$0IAA@V?$PxReflectionAllocator@PEBUBVHNode@Gu@physx@@@physx@@@3@@physx@@IEAAXI@Z 000000018016ca10 f i GuBVH.obj
 0001:0016bad0       ?refit@BVH@Gu@physx@@UEAAXXZ 000000018016cad0 f   GuBVH.obj
 0001:0016bae0       ?release@BVH@Gu@physx@@UEAAXXZ 000000018016cae0 f   GuBVH.obj
 0001:0016bb10       ?resizeUninitialized@?$PxArray@PEBUBVHNode@Gu@physx@@V?$PxInlineAllocator@$0IAA@V?$PxReflectionAllocator@PEBUBVHNode@Gu@physx@@@physx@@@3@@physx@@QEAAXI@Z 000000018016cb10 f i GuBVH.obj
 0001:0016bb60       ?save@BVHData@Gu@physx@@QEBA_NAEAVPxOutputStream@3@_N@Z 000000018016cb60 f   GuBVH.obj
 0001:0016bcd0       ?sweep@BVH@Gu@physx@@QEBA_NAEBVShapeData@23@AEBV?$PxVec3T@M@3@MAEAURaycastCallback@PxBVH@3@V?$PxFlags@W4Enum@PxGeometryQueryFlag@physx@@I@3@@Z 000000018016ccd0 f   GuBVH.obj
 0001:0016bec0       ?sweep@BVH@Gu@physx@@UEBA_NAEBVPxGeometry@3@AEBV?$PxTransformT@M@3@AEBV?$PxVec3T@M@3@MAEAURaycastCallback@PxBVH@3@V?$PxFlags@W4Enum@PxGeometryQueryFlag@physx@@I@3@@Z 000000018016cec0 f   GuBVH.obj
 0001:0016bf40       ?traverse@BVH@Gu@physx@@UEBA_NAEAUTraversalCallback@PxBVH@3@@Z 000000018016cf40 f   GuBVH.obj
 0001:0016c0b0       ?updateBounds@BVH@Gu@physx@@UEAA_NIAEBVPxBounds3@3@@Z 000000018016d0b0 f   GuBVH.obj
 0001:0016c160       ?updateBoundsInternal@BVH@Gu@physx@@QEAA_NIAEBVPxBounds3@3@@Z 000000018016d160 f   GuBVH.obj
 0001:0016c210       PxFindOverlap              000000018016d210 f   GuBVH.obj
 0001:0016c300       PxGetBVHInternalData       000000018016d300 f   GuBVH.obj
 0001:0016c340       ??0IncrementalAABBPrunerCore@Gu@physx@@QEAA@PEBVPruningPool@12@@Z 000000018016d340 f   GuIncrementalAABBPrunerCore.obj
 0001:0016c450       ??1IncrementalAABBPrunerCore@Gu@physx@@QEAA@XZ 000000018016d450 f   GuIncrementalAABBPrunerCore.obj
 0001:0016c5c0       ??R?$AABBTreeOverlap@$00U?$OBBAABBTests@$00@Gu@physx@@VIncrementalAABBTree@23@VIncrementalAABBTreeNode@23@UOverlapCallbackAdapter@23@@Gu@physx@@QEAA_NAEBVAABBTreeBounds@12@AEBVIncrementalAABBTree@12@AEBU?$OBBAABBTests@$00@12@AEAUOverlapCallbackAdapter@12@@Z 000000018016d5c0 f i GuIncrementalAABBPrunerCore.obj
 0001:0016cb70       ??R?$AABBTreeOverlap@$00UAABBAABBTest@Gu@physx@@VIncrementalAABBTree@23@VIncrementalAABBTreeNode@23@UOverlapCallbackAdapter@23@@Gu@physx@@QEAA_NAEBVAABBTreeBounds@12@AEBVIncrementalAABBTree@12@AEBUAABBAABBTest@12@AEAUOverlapCallbackAdapter@12@@Z 000000018016db70 f i GuIncrementalAABBPrunerCore.obj
 0001:0016cde0       ??R?$AABBTreeOverlap@$00UCapsuleAABBTest@Gu@physx@@VIncrementalAABBTree@23@VIncrementalAABBTreeNode@23@UOverlapCallbackAdapter@23@@Gu@physx@@QEAA_NAEBVAABBTreeBounds@12@AEBVIncrementalAABBTree@12@AEBUCapsuleAABBTest@12@AEAUOverlapCallbackAdapter@12@@Z 000000018016dde0 f i GuIncrementalAABBPrunerCore.obj
 0001:0016d200       ??R?$AABBTreeRaycast@$00$00VIncrementalAABBTree@Gu@physx@@VIncrementalAABBTreeNode@23@URaycastCallbackAdapter@23@@Gu@physx@@QEAA_NAEBVAABBTreeBounds@12@AEBVIncrementalAABBTree@12@AEBV?$PxVec3T@M@2@2AEAM2AEAURaycastCallbackAdapter@12@@Z 000000018016e200 f i GuIncrementalAABBPrunerCore.obj
 0001:0016d8c0       ??R?$AABBTreeRaycast@$0A@$00VIncrementalAABBTree@Gu@physx@@VIncrementalAABBTreeNode@23@URaycastCallbackAdapter@23@@Gu@physx@@QEAA_NAEBVAABBTreeBounds@12@AEBVIncrementalAABBTree@12@AEBV?$PxVec3T@M@2@2AEAM2AEAURaycastCallbackAdapter@12@@Z 000000018016e8c0 f i GuIncrementalAABBPrunerCore.obj
 0001:0016df10       ?addObject@IncrementalAABBPrunerCore@Gu@physx@@QEAA_NII@Z 000000018016ef10 f   GuIncrementalAABBPrunerCore.obj
 0001:0016e000       ?allocate@?$PxArray@PEBVIncrementalAABBTreeNode@Gu@physx@@V?$PxInlineAllocator@$0IAA@V?$PxReflectionAllocator@PEBVIncrementalAABBTreeNode@Gu@physx@@@physx@@@3@@physx@@IEAAPEAPEBVIncrementalAABBTreeNode@Gu@2@I@Z 000000018016f000 f i GuIncrementalAABBPrunerCore.obj
 0001:0016e0c0       ?clear@?$PxHashMapBase@IPEAVIncrementalAABBTreeNode@Gu@physx@@U?$PxHash@I@3@VPxAllocator@3@@physx@@QEAAXXZ 000000018016f0c0 f i GuIncrementalAABBPrunerCore.obj
 0001:0016e0c0       ?clear@?$PxHashMapBase@UPrunerPayload@Gu@physx@@UExtendedBucketPrunerData@23@UExtendedBucketPrunerHash@23@VPxAllocator@3@@physx@@QEAAXXZ 000000018016f0c0 f i GuExtendedBucketPruner.obj
 0001:0016e150       ?create@?$PxHashBase@V?$PxPair@$$CBIPEAVIncrementalAABBTreeNode@Gu@physx@@@physx@@IU?$PxHash@I@2@UGetKey@?$PxHashMapBase@IPEAVIncrementalAABBTreeNode@Gu@physx@@U?$PxHash@I@3@VPxAllocator@3@@2@VPxAllocator@2@$00@physx@@QEAAPEAV?$PxPair@$$CBIPEAVIncrementalAABBTreeNode@Gu@physx@@@2@AEBIAEA_N@Z 000000018016f150 f i GuIncrementalAABBPrunerCore.obj
 0001:0016e2a0       ?erase@?$PxHashBase@V?$PxPair@$$CBIPEAVIncrementalAABBTreeNode@Gu@physx@@@physx@@IU?$PxHash@I@2@UGetKey@?$PxHashMapBase@IPEAVIncrementalAABBTreeNode@Gu@physx@@U?$PxHash@I@3@VPxAllocator@3@@2@VPxAllocator@2@$00@physx@@QEAA_NAEBIAEAV?$PxPair@$$CBIPEAVIncrementalAABBTreeNode@Gu@physx@@@2@@Z 000000018016f2a0 f i GuIncrementalAABBPrunerCore.obj
 0001:0016e410       ?getCurrentWorldBoxes@PruningPool@Gu@physx@@QEAAPEAVPxBounds3@3@XZ 000000018016f410 f i GuIncrementalAABBPrunerCore.obj
 0001:0016e410       ?getCurrentWorldBoxes@PruningPool@Gu@physx@@QEBAPEBVPxBounds3@3@XZ 000000018016f410 f i GuIncrementalAABBPrunerCore.obj
 0001:0016e410       ?getMesh@CollisionTetrahedronMeshData@Gu@physx@@UEAAPEAVPxTetrahedronMeshData@3@XZ 000000018016f410 f i GuCookingTetrahedronMesh.obj
 0001:0016e410       ?getMesh@CollisionTetrahedronMeshData@Gu@physx@@UEBAPEBVPxTetrahedronMeshData@3@XZ 000000018016f410 f i GuCookingTetrahedronMesh.obj
 0001:0016e410       ?getMesh@SimulationTetrahedronMeshData@Gu@physx@@UEAAPEAVPxTetrahedronMeshData@3@XZ 000000018016f410 f i GuCookingTetrahedronMesh.obj
 0001:0016e420       ?getGlobalBounds@IncrementalAABBPrunerCore@Gu@physx@@QEBAXAEAVPxBounds3@3@@Z 000000018016f420 f   GuIncrementalAABBPrunerCore.obj
 0001:0016e550       ?getIndex@PruningPool@Gu@physx@@QEBAII@Z 000000018016f550 f i GuIncrementalAABBPrunerCore.obj
 0001:0016e560       ?getPayloadData@PruningPool@Gu@physx@@QEBAAEBUPrunerPayload@23@IPEAUPrunerPayloadData@23@@Z 000000018016f560 f i GuIncrementalAABBPrunerCore.obj
 0001:0016e5b0       ?overlap@IncrementalAABBPrunerCore@Gu@physx@@QEBA_NAEBVShapeData@23@AEAUPrunerOverlapCallback@23@@Z 000000018016f5b0 f   GuIncrementalAABBPrunerCore.obj
 0001:0016f0b0       ?raycast@IncrementalAABBPrunerCore@Gu@physx@@QEBA_NAEBV?$PxVec3T@M@3@0AEAMAEAUPrunerRaycastCallback@23@@Z 00000001801700b0 f   GuIncrementalAABBPrunerCore.obj
 0001:0016f190       ?recreate@?$PxArray@PEAVIncrementalAABBTreeNode@Gu@physx@@V?$PxReflectionAllocator@PEAVIncrementalAABBTreeNode@Gu@physx@@@3@@physx@@IEAAXI@Z 0000000180170190 f i GuIncrementalAABBPrunerCore.obj
 0001:0016f280       ?recreate@?$PxArray@PEBVIncrementalAABBTreeNode@Gu@physx@@V?$PxInlineAllocator@$0IAA@V?$PxReflectionAllocator@PEBVIncrementalAABBTreeNode@Gu@physx@@@physx@@@3@@physx@@IEAAXI@Z 0000000180170280 f i GuIncrementalAABBPrunerCore.obj
 0001:0016f340       ?release@IncrementalAABBPrunerCore@Gu@physx@@QEAAXXZ 0000000180170340 f   GuIncrementalAABBPrunerCore.obj
 0001:0016f440       ?removeMarkedObjects@IncrementalAABBPrunerCore@Gu@physx@@QEAAII@Z 0000000180170440 f   GuIncrementalAABBPrunerCore.obj
 0001:0016f4a0       ?removeObject@IncrementalAABBPrunerCore@Gu@physx@@QEAA_NIIAEAI@Z 00000001801704a0 f   GuIncrementalAABBPrunerCore.obj
 0001:0016f6b0       ?reserveInternal@?$PxHashBase@V?$PxPair@$$CBIPEAVIncrementalAABBTreeNode@Gu@physx@@@physx@@IU?$PxHash@I@2@UGetKey@?$PxHashMapBase@IPEAVIncrementalAABBTreeNode@Gu@physx@@U?$PxHash@I@3@VPxAllocator@3@@2@VPxAllocator@2@$00@physx@@AEAAXI@Z 00000001801706b0 f i GuIncrementalAABBPrunerCore.obj
 0001:0016f870       ?resizeUninitialized@?$PxArray@PEBVIncrementalAABBTreeNode@Gu@physx@@V?$PxInlineAllocator@$0IAA@V?$PxReflectionAllocator@PEBVIncrementalAABBTreeNode@Gu@physx@@@physx@@@3@@physx@@QEAAXI@Z 0000000180170870 f i GuIncrementalAABBPrunerCore.obj
 0001:0016f8c0       ?setTransform@PruningPool@Gu@physx@@QEAA_NIAEBV?$PxTransformT@M@3@@Z 00000001801708c0 f i GuIncrementalAABBPrunerCore.obj
 0001:0016f920       ?shiftOrigin@IncrementalAABBPrunerCore@Gu@physx@@QEAAXAEBV?$PxVec3T@M@3@@Z 0000000180170920 f   GuIncrementalAABBPrunerCore.obj
 0001:0016f970       ?swapIndex@IncrementalAABBPrunerCore@Gu@physx@@QEAAXII@Z 0000000180170970 f   GuIncrementalAABBPrunerCore.obj
 0001:0016fa50       ?sweep@IncrementalAABBPrunerCore@Gu@physx@@QEBA_NAEBVShapeData@23@AEBV?$PxVec3T@M@3@AEAMAEAUPrunerRaycastCallback@23@@Z 0000000180170a50 f   GuIncrementalAABBPrunerCore.obj
 0001:0016fbe0       ?updateMapping@IncrementalAABBPrunerCore@Gu@physx@@AEAAXAEAV?$PxHashMap@IPEAVIncrementalAABBTreeNode@Gu@physx@@U?$PxHash@I@3@VPxAllocator@3@@3@IPEAVIncrementalAABBTreeNode@23@@Z 0000000180170be0 f   GuIncrementalAABBPrunerCore.obj
 0001:0016fd30       ?updateObject@IncrementalAABBPrunerCore@Gu@physx@@QEAA_NI@Z 0000000180170d30 f   GuIncrementalAABBPrunerCore.obj
 0001:0016fed0       ?visualize@IncrementalAABBPrunerCore@Gu@physx@@QEBAXAEAVPxRenderOutput@3@I@Z 0000000180170ed0 f   GuIncrementalAABBPrunerCore.obj
 0001:0016ff30       ??0IncrementalAABBPruner@Gu@physx@@QEAA@I_K@Z 0000000180170f30 f   GuIncrementalAABBPruner.obj
 0001:0016ffe0       ??R?$AABBTreeOverlap@$00USphereAABBTest@Gu@physx@@VIncrementalAABBTree@23@VIncrementalAABBTreeNode@23@UOverlapCallbackAdapter@23@@Gu@physx@@QEAA_NAEBVAABBTreeBounds@12@AEBVIncrementalAABBTree@12@AEBUSphereAABBTest@12@AEAUOverlapCallbackAdapter@12@@Z 0000000180170fe0 f i GuIncrementalAABBPruner.obj
 0001:001702c0       ??_EBasePruner@Gu@physx@@UEAAPEAXI@Z 00000001801712c0 f i GuIncrementalAABBPruner.obj
 0001:001702c0       ??_GBasePruner@Gu@physx@@UEAAPEAXI@Z 00000001801712c0 f i GuIncrementalAABBPruner.obj
 0001:00170310       ??_EIncrementalAABBPruner@Gu@physx@@UEAAPEAXI@Z 0000000180171310 f i GuIncrementalAABBPruner.obj
 0001:00170310       ??_GIncrementalAABBPruner@Gu@physx@@UEAAPEAXI@Z 0000000180171310 f i GuIncrementalAABBPruner.obj
 0001:00170420       ?addObjects@IncrementalAABBPruner@Gu@physx@@UEAA_NPEAIPEBVPxBounds3@3@PEBUPrunerPayload@23@PEBV?$PxTransformT@M@3@I_N@Z 0000000180171420 f   GuIncrementalAABBPruner.obj
 0001:001705c0       ?commit@IncrementalAABBPruner@Gu@physx@@UEAAXXZ 00000001801715c0 f   GuIncrementalAABBPruner.obj
 0001:00170710       ?getGlobalBounds@IncrementalAABBPruner@Gu@physx@@UEBAXAEAVPxBounds3@3@@Z 0000000180171710 f   GuIncrementalAABBPruner.obj
 0001:00170780       ?getPayloadData@IncrementalAABBPruner@Gu@physx@@UEBAAEBUPrunerPayload@23@IPEAUPrunerPayloadData@23@@Z 0000000180171780 f i GuIncrementalAABBPruner.obj
 0001:001707d0       ?overlap@IncrementalAABBPruner@Gu@physx@@UEBA_NAEBVShapeData@23@AEAUPrunerOverlapCallback@23@@Z 00000001801717d0 f   GuIncrementalAABBPruner.obj
 0001:00170ee0       ?preallocate@IncrementalAABBPruner@Gu@physx@@UEAAXI@Z 0000000180171ee0 f i GuIncrementalAABBPruner.obj
 0001:00170ef0       ?purge@IncrementalAABBPruner@Gu@physx@@UEAAXXZ 0000000180171ef0 f   GuIncrementalAABBPruner.obj
 0001:00170f40       ?raycast@IncrementalAABBPruner@Gu@physx@@UEBA_NAEBV?$PxVec3T@M@3@0AEAMAEAUPrunerRaycastCallback@23@@Z 0000000180171f40 f   GuIncrementalAABBPruner.obj
 0001:00170fc0       ?removeObjects@IncrementalAABBPruner@Gu@physx@@UEAAXPEBIIPEAUPrunerPayloadRemovalCallback@23@@Z 0000000180171fc0 f   GuIncrementalAABBPruner.obj
 0001:00171110       ?resize@?$PxArray@PEAVIncrementalAABBTreeNode@Gu@physx@@V?$PxReflectionAllocator@PEAVIncrementalAABBTreeNode@Gu@physx@@@3@@physx@@QEAAXIAEBQEAVIncrementalAABBTreeNode@Gu@2@@Z 0000000180172110 f i GuIncrementalAABBPruner.obj
 0001:001711d0       ?resizeUninitialized@?$PxArray@PEAVIncrementalAABBTreeNode@Gu@physx@@V?$PxReflectionAllocator@PEAVIncrementalAABBTreeNode@Gu@physx@@@3@@physx@@QEAAXI@Z 00000001801721d0 f i GuIncrementalAABBPruner.obj
 0001:00171210       ?setTransform@IncrementalAABBPruner@Gu@physx@@UEAA_NIAEBV?$PxTransformT@M@3@@Z 0000000180172210 f i GuIncrementalAABBPruner.obj
 0001:00171270       ?shiftOrigin@IncrementalAABBPruner@Gu@physx@@UEAAXAEBV?$PxVec3T@M@3@@Z 0000000180172270 f   GuIncrementalAABBPruner.obj
 0001:001712b0       ?sweep@IncrementalAABBPruner@Gu@physx@@UEBA_NAEBVShapeData@23@AEBV?$PxVec3T@M@3@AEAMAEAUPrunerRaycastCallback@23@@Z 00000001801722b0 f   GuIncrementalAABBPruner.obj
 0001:001713d0       ?updateObjects@IncrementalAABBPruner@Gu@physx@@UEAAXPEBIIM0PEBVPxBounds3@3@PEBUPxTransformPadded@3@@Z 00000001801723d0 f   GuIncrementalAABBPruner.obj
 0001:001715a0       ?visualize@IncrementalAABBPruner@Gu@physx@@UEBAXAEAVPxRenderOutput@3@II@Z 00000001801725a0 f   GuIncrementalAABBPruner.obj
 0001:00171790       ??0PruningPool@Gu@physx@@QEAA@_KW4TransformCacheMode@12@@Z 0000000180172790 f   GuPruningPool.obj
 0001:001717c0       ??1PruningPool@Gu@physx@@QEAA@XZ 00000001801727c0 f   GuPruningPool.obj
 0001:00171890       ?addObjects@PruningPool@Gu@physx@@QEAAIPEAIPEBVPxBounds3@3@PEBUPrunerPayload@23@PEBV?$PxTransformT@M@3@I@Z 0000000180172890 f   GuPruningPool.obj
 0001:00171a40       ?preallocate@PruningPool@Gu@physx@@QEAAXI@Z 0000000180172a40 f   GuPruningPool.obj
 0001:00171a50       ?removeObject@PruningPool@Gu@physx@@QEAAIIPEAUPrunerPayloadRemovalCallback@23@@Z 0000000180172a50 f   GuPruningPool.obj
 0001:00171b90       ?resize@PruningPool@Gu@physx@@QEAA_NI@Z 0000000180172b90 f   GuPruningPool.obj
 0001:00171e70       ?shiftOrigin@PruningPool@Gu@physx@@QEAAXAEBV?$PxVec3T@M@3@@Z 0000000180172e70 f   GuPruningPool.obj
 0001:00172240       ?updateAndInflateBounds@PruningPool@Gu@physx@@QEAAXPEBI0PEBVPxBounds3@3@PEBUPxTransformPadded@3@IM@Z 0000000180173240 f   GuPruningPool.obj
 0001:00173c60       ??0BucketPruner@Gu@physx@@QEAA@_K@Z 0000000180174c60 f   GuBucketPruner.obj
 0001:00173cb0       ??0BucketPrunerCore@Gu@physx@@QEAA@_N@Z 0000000180174cb0 f   GuBucketPruner.obj
 0001:00174030       ??1BucketPrunerCore@Gu@physx@@QEAA@XZ 0000000180175030 f   GuBucketPruner.obj
 0001:00174050       ??R?$BucketPrunerOverlapTraversal@UBucketPrunerAABBAABBTest@@$00@@QEBA_NAEBVBucketPrunerCore@Gu@physx@@AEBUBucketPrunerAABBAABBTest@@AEAUPrunerOverlapCallback@23@AEBVPxBounds3@3@@Z 0000000180175050 f i GuBucketPruner.obj
 0001:00174610       ??R?$BucketPrunerOverlapTraversal@UOBBAABBTest_SIMD@@$0A@@@QEBA_NAEBVBucketPrunerCore@Gu@physx@@AEBUOBBAABBTest_SIMD@@AEAUPrunerOverlapCallback@23@AEBVPxBounds3@3@@Z 0000000180175610 f i GuBucketPruner.obj
 0001:00174e90       ??R?$BucketPrunerOverlapTraversal@USphereAABBTest_SIMD@@$00@@QEBA_NAEBVBucketPrunerCore@Gu@physx@@AEBUSphereAABBTest_SIMD@@AEAUPrunerOverlapCallback@23@AEBVPxBounds3@3@@Z 0000000180175e90 f i GuBucketPruner.obj
 0001:00175470       ??_FBucketPrunerCore@Gu@physx@@QEAAXXZ 0000000180176470 f i GuBucketPruner.obj
 0001:00175480       ??_EBucketPruner@Gu@physx@@UEAAPEAXI@Z 0000000180176480 f i GuBucketPruner.obj
 0001:00175480       ??_GBucketPruner@Gu@physx@@UEAAPEAXI@Z 0000000180176480 f i GuBucketPruner.obj
 0001:00175520       ?addObject@BucketPrunerCore@Gu@physx@@QEAA_NAEBUPrunerPayload@23@AEBVPxBounds3@3@AEBV?$PxTransformT@M@3@I@Z 0000000180176520 f   GuBucketPruner.obj
 0001:00175840       ?addObjects@BucketPruner@Gu@physx@@UEAA_NPEAIPEBVPxBounds3@3@PEBUPrunerPayload@23@PEBV?$PxTransformT@M@3@I_N@Z 0000000180176840 f   GuBucketPruner.obj
 0001:001758d0       ?addPair@BucketPrunerMap@Gu@physx@@QEAAPEAUBucketPrunerPair@23@AEBUPrunerPayload@23@II@Z 00000001801768d0 f   GuBucketPruner.obj
 0001:00175ad0       ?allocateSortedMemory@BucketPrunerCore@Gu@physx@@AEAAXI@Z 0000000180176ad0 f   GuBucketPruner.obj
 0001:00175c90       ?classifyBoxes@BucketPrunerCore@Gu@physx@@AEAAXXZ 0000000180176c90 f   GuBucketPruner.obj
 0001:00176480       ?classifyBoxes@BucketPrunerNode@Gu@physx@@QEAAXMMIPEIAUBucketBox@23@PEIBUPrunerPayload@23@PEIBV?$PxTransformT@M@3@0PEIAU523@PEIAV63@_NI@Z 0000000180177480 f   GuBucketPruner.obj
 0001:00176d00       ?build@CompanionPrunerBucket@@UEAAXXZ 0000000180177d00 f   GuSecondaryPruner.obj
 0001:00176d00       ?commit@BucketPruner@Gu@physx@@UEAAXXZ 0000000180177d00 f   GuBucketPruner.obj
 0001:00176d10       ?findPair@BucketPrunerMap@Gu@physx@@QEBAPEBUBucketPrunerPair@23@AEBUPrunerPayload@23@@Z 0000000180177d10 f   GuBucketPruner.obj
 0001:00177100       ?getGlobalBounds@BucketPruner@Gu@physx@@UEBAXAEAVPxBounds3@3@@Z 0000000180178100 f   GuBucketPruner.obj
 0001:00177180       ?getGlobalBounds@BucketPrunerCore@Gu@physx@@QEBAXAEAVPxBounds3@3@@Z 0000000180178180 f   GuBucketPruner.obj
 0001:00177200       ?getPayloadData@BucketPruner@Gu@physx@@UEBAAEBUPrunerPayload@23@IPEAUPrunerPayloadData@23@@Z 0000000180178200 f i GuBucketPruner.obj
 0001:00177260       ?overlap@BucketPruner@Gu@physx@@UEBA_NAEBVShapeData@23@AEAUPrunerOverlapCallback@23@@Z 0000000180178260 f   GuBucketPruner.obj
 0001:00177280       ?overlap@BucketPrunerCore@Gu@physx@@QEBA_NAEBVShapeData@23@AEAUPrunerOverlapCallback@23@@Z 0000000180178280 f   GuBucketPruner.obj
 0001:00177560       ?preallocate@BucketPruner@Gu@physx@@UEAAXI@Z 0000000180178560 f i GuBucketPruner.obj
 0001:00177740       ?purge@BucketPrunerMap@Gu@physx@@QEAAXXZ 0000000180178740 f   GuBucketPruner.obj
 0001:001777d0       ?raycast@BucketPruner@Gu@physx@@UEBA_NAEBV?$PxVec3T@M@3@0AEAMAEAUPrunerRaycastCallback@23@@Z 00000001801787d0 f   GuBucketPruner.obj
 0001:00177820       ?raycast@BucketPrunerCore@Gu@physx@@QEBA_NAEBV?$PxVec3T@M@3@0AEAMAEAUPrunerRaycastCallback@23@@Z 0000000180178820 f   GuBucketPruner.obj
 0001:00177860       ?reallocPairs@BucketPrunerMap@Gu@physx@@QEAAXXZ 0000000180178860 f   GuBucketPruner.obj
 0001:00177aa0       ?release@BucketPrunerCore@Gu@physx@@QEAAXXZ 0000000180178aa0 f   GuBucketPruner.obj
 0001:00177be0       ?removeMarkedObjects@BucketPrunerCore@Gu@physx@@QEAAII@Z 0000000180178be0 f   GuBucketPruner.obj
 0001:00177fb0       ?removeObject@BucketPrunerCore@Gu@physx@@QEAA_NAEBUPrunerPayload@23@AEAI@Z 0000000180178fb0 f   GuBucketPruner.obj
 0001:00178270       ?removeObjects@BucketPruner@Gu@physx@@UEAAXPEBIIPEAUPrunerPayloadRemovalCallback@23@@Z 0000000180179270 f   GuBucketPruner.obj
 0001:00178320       ?removePair@BucketPrunerMap@Gu@physx@@QEAA_NAEBUPrunerPayload@23@AEAI1@Z 0000000180179320 f   GuBucketPruner.obj
 0001:001784a0       ?removePairInternal@BucketPrunerMap@Gu@physx@@QEAAXAEBUPrunerPayload@23@II@Z 00000001801794a0 f   GuBucketPruner.obj
 0001:00178630       ?resizeCore@BucketPrunerCore@Gu@physx@@AEAAXXZ 0000000180179630 f   GuBucketPruner.obj
 0001:00178880       ?setTransform@BucketPruner@Gu@physx@@UEAA_NIAEBV?$PxTransformT@M@3@@Z 0000000180179880 f i GuBucketPruner.obj
 0001:001788e0       ?shiftOrigin@BucketPruner@Gu@physx@@UEAAXAEBV?$PxVec3T@M@3@@Z 00000001801798e0 f   GuBucketPruner.obj
 0001:001788e0       ?shiftOrigin@CompanionPrunerBucket@@UEAAXAEBV?$PxVec3T@M@physx@@@Z 00000001801798e0 f   GuSecondaryPruner.obj
 0001:001788f0       ?shiftOrigin@BucketPrunerCore@Gu@physx@@QEAAXAEBV?$PxVec3T@M@3@@Z 00000001801798f0 f   GuBucketPruner.obj
 0001:00179720       ?sweep@BucketPruner@Gu@physx@@UEBA_NAEBVShapeData@23@AEBV?$PxVec3T@M@3@AEAMAEAUPrunerRaycastCallback@23@@Z 000000018017a720 f   GuBucketPruner.obj
 0001:00179740       ?sweep@BucketPrunerCore@Gu@physx@@QEBA_NAEBVShapeData@23@AEBV?$PxVec3T@M@3@AEAMAEAUPrunerRaycastCallback@23@@Z 000000018017a740 f   GuBucketPruner.obj
 0001:00179810       ?updateObject@BucketPrunerCore@Gu@physx@@QEAA_NAEBVPxBounds3@3@AEBUPrunerPayload@23@AEBV?$PxTransformT@M@3@@Z 000000018017a810 f   GuBucketPruner.obj
 0001:00179870       ?updateObjects@BucketPruner@Gu@physx@@UEAAXPEBIIM0PEBVPxBounds3@3@PEBUPxTransformPadded@3@@Z 000000018017a870 f   GuBucketPruner.obj
 0001:00179980       ?visualize@BucketPruner@Gu@physx@@UEBAXAEAVPxRenderOutput@3@II@Z 000000018017a980 f   GuBucketPruner.obj
 0001:00179980       ?visualize@CompanionPrunerBucket@@UEBAXAEAVPxRenderOutput@physx@@I@Z 000000018017a980 f   GuSecondaryPruner.obj
 0001:00179990       ?visualize@BucketPrunerCore@Gu@physx@@QEBAXAEAVPxRenderOutput@3@I@Z 000000018017a990 f   GuBucketPruner.obj
 0001:00179c90       ?addObject@MaverickNode@Gu@physx@@QEAA_NAEBUPrunerPayload@23@IAEBVPxBounds3@3@AEBV?$PxTransformT@M@3@I@Z 000000018017ac90 f   GuMaverickNode.obj
 0001:00179d70       ?removeMarkedObjects@MaverickNode@Gu@physx@@QEAAII@Z 000000018017ad70 f   GuMaverickNode.obj
 0001:00179f00       ?removeObject@MaverickNode@Gu@physx@@QEAA_NIAEAI@Z 000000018017af00 f   GuMaverickNode.obj
 0001:0017a090       ?shiftOrigin@MaverickNode@Gu@physx@@QEAAXAEBV?$PxVec3T@M@3@@Z 000000018017b090 f   GuMaverickNode.obj
 0001:0017a180       ?updateObject@MaverickNode@Gu@physx@@QEAA_NIAEBVPxBounds3@3@AEBV?$PxTransformT@M@3@@Z 000000018017b180 f   GuMaverickNode.obj
 0001:0017a260       ??0ExtendedBucketPruner@Gu@physx@@QEAA@_KW4CompanionPrunerType@12@PEBVPruningPool@12@@Z 000000018017b260 f   GuExtendedBucketPruner.obj
 0001:0017a490       ??1ExtendedBucketPruner@Gu@physx@@QEAA@XZ 000000018017b490 f   GuExtendedBucketPruner.obj
 0001:0017a600       ??R?$AABBTreeOverlap@$00U?$OBBAABBTests@$00@Gu@physx@@VAABBTree@23@UBVHNode@23@U?$MainTreeOverlapPrunerCallback@U?$OBBAABBTests@$00@Gu@physx@@@@@Gu@physx@@QEAA_NAEBVAABBTreeBounds@12@AEBVAABBTree@12@AEBU?$OBBAABBTests@$00@12@AEAU?$MainTreeOverlapPrunerCallback@U?$OBBAABBTests@$00@Gu@physx@@@@@Z 000000018017b600 f i GuExtendedBucketPruner.obj
 0001:0017abe0       ??R?$AABBTreeOverlap@$00U?$OBBAABBTests@$00@Gu@physx@@VAABBTree@23@UBVHNode@23@UOverlapCallbackAdapter@23@@Gu@physx@@QEAA_NAEBVAABBTreeBounds@12@AEBVAABBTree@12@AEBU?$OBBAABBTests@$00@12@AEAUOverlapCallbackAdapter@12@@Z 000000018017bbe0 f i GuExtendedBucketPruner.obj
 0001:0017b1a0       ??R?$AABBTreeOverlap@$00UAABBAABBTest@Gu@physx@@VAABBTree@23@UBVHNode@23@U?$MainTreeOverlapPrunerCallback@UAABBAABBTest@Gu@physx@@@@@Gu@physx@@QEAA_NAEBVAABBTreeBounds@12@AEBVAABBTree@12@AEBUAABBAABBTest@12@AEAU?$MainTreeOverlapPrunerCallback@UAABBAABBTest@Gu@physx@@@@@Z 000000018017c1a0 f i GuExtendedBucketPruner.obj
 0001:0017b460       ??R?$AABBTreeOverlap@$00UAABBAABBTest@Gu@physx@@VAABBTree@23@UBVHNode@23@UOverlapCallbackAdapter@23@@Gu@physx@@QEAA_NAEBVAABBTreeBounds@12@AEBVAABBTree@12@AEBUAABBAABBTest@12@AEAUOverlapCallbackAdapter@12@@Z 000000018017c460 f i GuExtendedBucketPruner.obj
 0001:0017b6f0       ??R?$AABBTreeOverlap@$00UCapsuleAABBTest@Gu@physx@@VAABBTree@23@UBVHNode@23@U?$MainTreeOverlapPrunerCallback@UCapsuleAABBTest@Gu@physx@@@@@Gu@physx@@QEAA_NAEBVAABBTreeBounds@12@AEBVAABBTree@12@AEBUCapsuleAABBTest@12@AEAU?$MainTreeOverlapPrunerCallback@UCapsuleAABBTest@Gu@physx@@@@@Z 000000018017c6f0 f i GuExtendedBucketPruner.obj
 0001:0017bb70       ??R?$AABBTreeOverlap@$00UCapsuleAABBTest@Gu@physx@@VAABBTree@23@UBVHNode@23@UOverlapCallbackAdapter@23@@Gu@physx@@QEAA_NAEBVAABBTreeBounds@12@AEBVAABBTree@12@AEBUCapsuleAABBTest@12@AEAUOverlapCallbackAdapter@12@@Z 000000018017cb70 f i GuExtendedBucketPruner.obj
 0001:0017bfc0       ??R?$AABBTreeOverlap@$00USphereAABBTest@Gu@physx@@VAABBTree@23@UBVHNode@23@U?$MainTreeOverlapPrunerCallback@USphereAABBTest@Gu@physx@@@@@Gu@physx@@QEAA_NAEBVAABBTreeBounds@12@AEBVAABBTree@12@AEBUSphereAABBTest@12@AEAU?$MainTreeOverlapPrunerCallback@USphereAABBTest@Gu@physx@@@@@Z 000000018017cfc0 f i GuExtendedBucketPruner.obj
 0001:0017c2e0       ??R?$AABBTreeOverlap@$00USphereAABBTest@Gu@physx@@VAABBTree@23@UBVHNode@23@UOverlapCallbackAdapter@23@@Gu@physx@@QEAA_NAEBVAABBTreeBounds@12@AEBVAABBTree@12@AEBUSphereAABBTest@12@AEAUOverlapCallbackAdapter@12@@Z 000000018017d2e0 f i GuExtendedBucketPruner.obj
 0001:0017c5e0       ??R?$AABBTreeRaycast@$00$00VAABBTree@Gu@physx@@UBVHNode@23@U?$MainTreeRaycastPrunerCallback@$00@@@Gu@physx@@QEAA_NAEBVAABBTreeBounds@12@AEBVAABBTree@12@AEBV?$PxVec3T@M@2@2AEAM2AEAU?$MainTreeRaycastPrunerCallback@$00@@@Z 000000018017d5e0 f i GuExtendedBucketPruner.obj
 0001:0017cd00       ??R?$AABBTreeRaycast@$00$00VAABBTree@Gu@physx@@UBVHNode@23@URaycastCallbackAdapter@23@@Gu@physx@@QEAA_NAEBVAABBTreeBounds@12@AEBVAABBTree@12@AEBV?$PxVec3T@M@2@2AEAM2AEAURaycastCallbackAdapter@12@@Z 000000018017dd00 f i GuExtendedBucketPruner.obj
 0001:0017d3e0       ??R?$AABBTreeRaycast@$0A@$00VAABBTree@Gu@physx@@UBVHNode@23@U?$MainTreeRaycastPrunerCallback@$0A@@@@Gu@physx@@QEAA_NAEBVAABBTreeBounds@12@AEBVAABBTree@12@AEBV?$PxVec3T@M@2@2AEAM2AEAU?$MainTreeRaycastPrunerCallback@$0A@@@@Z 000000018017e3e0 f i GuExtendedBucketPruner.obj
 0001:0017daa0       ??R?$AABBTreeRaycast@$0A@$00VAABBTree@Gu@physx@@UBVHNode@23@URaycastCallbackAdapter@23@@Gu@physx@@QEAA_NAEBVAABBTreeBounds@12@AEBVAABBTree@12@AEBV?$PxVec3T@M@2@2AEAM2AEAURaycastCallbackAdapter@12@@Z 000000018017eaa0 f i GuExtendedBucketPruner.obj
 0001:0017e120       ?addTree@ExtendedBucketPruner@Gu@physx@@QEAAXAEBVAABBTreeMergeData@23@I@Z 000000018017f120 f   GuExtendedBucketPruner.obj
 0001:0017e3f0       ?buildMainAABBTree@ExtendedBucketPruner@Gu@physx@@AEAAXXZ 000000018017f3f0 f   GuExtendedBucketPruner.obj
 0001:0017e4a0       ?create@?$PxHashBase@V?$PxPair@$$CBUPrunerPayload@Gu@physx@@UExtendedBucketPrunerData@23@@physx@@UPrunerPayload@Gu@2@UExtendedBucketPrunerHash@42@UGetKey@?$PxHashMapBase@UPrunerPayload@Gu@physx@@UExtendedBucketPrunerData@23@UExtendedBucketPrunerHash@23@VPxAllocator@3@@2@VPxAllocator@2@$00@physx@@QEAAPEAV?$PxPair@$$CBUPrunerPayload@Gu@physx@@UExtendedBucketPrunerData@23@@2@AEBUPrunerPayload@Gu@2@AEA_N@Z 000000018017f4a0 f i GuExtendedBucketPruner.obj
 0001:0017e670       ?eraseInternal@?$PxHashBase@V?$PxPair@$$CBUPrunerPayload@Gu@physx@@UExtendedBucketPrunerData@23@@physx@@UPrunerPayload@Gu@2@UExtendedBucketPrunerHash@42@UGetKey@?$PxHashMapBase@UPrunerPayload@Gu@physx@@UExtendedBucketPrunerData@23@UExtendedBucketPrunerHash@23@VPxAllocator@3@@2@VPxAllocator@2@$00@physx@@AEAA_NPEAI@Z 000000018017f670 f i GuExtendedBucketPruner.obj
 0001:0017e790       ?find@?$PxHashMapBase@UPrunerPayload@Gu@physx@@UExtendedBucketPrunerData@23@UExtendedBucketPrunerHash@23@VPxAllocator@3@@physx@@QEBAPEBV?$PxPair@$$CBUPrunerPayload@Gu@physx@@UExtendedBucketPrunerData@23@@2@AEBUPrunerPayload@Gu@2@@Z 000000018017f790 f i GuExtendedBucketPruner.obj
 0001:0017e880       ?getGlobalBounds@ExtendedBucketPruner@Gu@physx@@QEBAXAEAVPxBounds3@3@@Z 000000018017f880 f   GuExtendedBucketPruner.obj
 0001:0017e950       ?invalidateObject@ExtendedBucketPruner@Gu@physx@@AEAAXAEBUExtendedBucketPrunerData@23@IAEBUPrunerPayload@23@I@Z 000000018017f950 f   GuExtendedBucketPruner.obj
 0001:0017ea90       ?overlap@ExtendedBucketPruner@Gu@physx@@QEBA_NAEBVShapeData@23@AEAUPrunerOverlapCallback@23@@Z 000000018017fa90 f   GuExtendedBucketPruner.obj
 0001:0017f270       ?raycast@ExtendedBucketPruner@Gu@physx@@QEBA_NAEBV?$PxVec3T@M@3@0AEAMAEAUPrunerRaycastCallback@23@@Z 0000000180180270 f   GuExtendedBucketPruner.obj
 0001:0017f350       ?refitMarkedNodes@ExtendedBucketPruner@Gu@physx@@QEAAXPEBVPxBounds3@3@@Z 0000000180180350 f   GuExtendedBucketPruner.obj
 0001:0017f8c0       ?release@ExtendedBucketPruner@Gu@physx@@QEAAXXZ 00000001801808c0 f   GuExtendedBucketPruner.obj
 0001:0017f990       ?removeMarkedObjects@ExtendedBucketPruner@Gu@physx@@QEAAII@Z 0000000180180990 f   GuExtendedBucketPruner.obj
 0001:0017fcb0       ?removeObject@ExtendedBucketPruner@Gu@physx@@QEAA_NAEBUPrunerPayload@23@II0I@Z 0000000180180cb0 f   GuExtendedBucketPruner.obj
 0001:0017fea0       ?reserveInternal@?$PxHashBase@V?$PxPair@$$CBUPrunerPayload@Gu@physx@@UExtendedBucketPrunerData@23@@physx@@UPrunerPayload@Gu@2@UExtendedBucketPrunerHash@42@UGetKey@?$PxHashMapBase@UPrunerPayload@Gu@physx@@UExtendedBucketPrunerData@23@UExtendedBucketPrunerHash@23@VPxAllocator@3@@2@VPxAllocator@2@$00@physx@@AEAAXI@Z 0000000180180ea0 f i GuExtendedBucketPruner.obj
 0001:001800a0       ?shiftOrigin@ExtendedBucketPruner@Gu@physx@@QEAAXAEBV?$PxVec3T@M@3@@Z 00000001801810a0 f   GuExtendedBucketPruner.obj
 0001:00180120       ?swapIndex@ExtendedBucketPruner@Gu@physx@@QEAAXIAEBUPrunerPayload@23@I_N@Z 0000000180181120 f   GuExtendedBucketPruner.obj
 0001:001801f0       ?sweep@ExtendedBucketPruner@Gu@physx@@QEBA_NAEBVShapeData@23@AEBV?$PxVec3T@M@3@AEAMAEAUPrunerRaycastCallback@23@@Z 00000001801811f0 f   GuExtendedBucketPruner.obj
 0001:00180380       ?updateObject@ExtendedBucketPruner@Gu@physx@@QEAA_NAEBVPxBounds3@3@AEBV?$PxTransformT@M@3@AEBUPrunerPayload@23@II@Z 0000000180181380 f   GuExtendedBucketPruner.obj
 0001:00180450       ?visualize@ExtendedBucketPruner@Gu@physx@@QEBAXAEAVPxRenderOutput@3@I@Z 0000000180181450 f   GuExtendedBucketPruner.obj
 0001:001804e0       ??0?$OBBAABBTests@$00@Gu@physx@@QEAA@AEBV?$PxVec3T@M@2@AEBV?$PxMat33T@M@2@0@Z 00000001801814e0 f i GuSecondaryPruner.obj
 0001:00182430       ??_ECompanionPruner@Gu@physx@@UEAAPEAXI@Z 0000000180183430 f i GuSecondaryPruner.obj
 0001:00182430       ??_GCompanionPruner@Gu@physx@@UEAAPEAXI@Z 0000000180183430 f i GuSecondaryPruner.obj
 0001:00182480       ??_ECompanionPrunerAABBTree@@UEAAPEAXI@Z 0000000180183480 f i GuSecondaryPruner.obj
 0001:00182480       ??_GCompanionPrunerAABBTree@@UEAAPEAXI@Z 0000000180183480 f i GuSecondaryPruner.obj
 0001:00182530       ??_ECompanionPrunerBucket@@UEAAPEAXI@Z 0000000180183530 f i GuSecondaryPruner.obj
 0001:00182530       ??_GCompanionPrunerBucket@@UEAAPEAXI@Z 0000000180183530 f i GuSecondaryPruner.obj
 0001:001825b0       ??_ECompanionPrunerIncremental@@UEAAPEAXI@Z 00000001801835b0 f i GuSecondaryPruner.obj
 0001:001825b0       ??_GCompanionPrunerIncremental@@UEAAPEAXI@Z 00000001801835b0 f i GuSecondaryPruner.obj
 0001:00182630       ?addObject@CompanionPrunerAABBTree@@UEAA_NAEBUPrunerPayload@Gu@physx@@IAEBVPxBounds3@4@AEBV?$PxTransformT@M@4@II@Z 0000000180183630 f   GuSecondaryPruner.obj
 0001:00182870       ?addObject@CompanionPrunerBucket@@UEAA_NAEBUPrunerPayload@Gu@physx@@IAEBVPxBounds3@4@AEBV?$PxTransformT@M@4@II@Z 0000000180183870 f i GuSecondaryPruner.obj
 0001:00182890       ?addObject@CompanionPrunerIncremental@@UEAA_NAEBUPrunerPayload@Gu@physx@@IAEBVPxBounds3@4@AEBV?$PxTransformT@M@4@II@Z 0000000180183890 f i GuSecondaryPruner.obj
 0001:001828b0       ?addObjectInternal@CompanionPrunerAABBTree@@QEAA_NII@Z 00000001801838b0 f   GuSecondaryPruner.obj
 0001:00182a50       ?build@CompanionPrunerAABBTree@@UEAAXXZ 0000000180183a50 f   GuSecondaryPruner.obj
 0001:00182f20       ?createCompanionPruner@Gu@physx@@YAPEAVCompanionPruner@12@_KW4CompanionPrunerType@12@PEBVPruningPool@12@@Z 0000000180183f20 f   GuSecondaryPruner.obj
 0001:00183120       ?getGlobalBounds@CompanionPrunerAABBTree@@UEBAXAEAVPxBounds3@physx@@@Z 0000000180184120 f   GuSecondaryPruner.obj
 0001:00183230       ?getGlobalBounds@CompanionPrunerBucket@@UEBAXAEAVPxBounds3@physx@@@Z 0000000180184230 f i GuSecondaryPruner.obj
 0001:00183240       ?getGlobalBounds@CompanionPrunerIncremental@@UEBAXAEAVPxBounds3@physx@@@Z 0000000180184240 f i GuSecondaryPruner.obj
 0001:00183250       ?getNbObjects@CompanionPrunerAABBTree@@UEBAIXZ 0000000180184250 f   GuSecondaryPruner.obj
 0001:00183260       ?getNbObjects@CompanionPrunerBucket@@UEBAIXZ 0000000180184260 f i GuSecondaryPruner.obj
 0001:00183270       ?getNbObjects@CompanionPrunerIncremental@@UEBAIXZ 0000000180184270 f i GuSecondaryPruner.obj
 0001:00183280       ?growAndPushBack@?$PxArray@ULocalData@CompanionPrunerAABBTree@@V?$PxReflectionAllocator@ULocalData@CompanionPrunerAABBTree@@@physx@@@physx@@IEAAAEAULocalData@CompanionPrunerAABBTree@@AEBU34@@Z 0000000180184280 f i GuSecondaryPruner.obj
 0001:001833a0       ?overlap@CompanionPrunerAABBTree@@UEBA_NAEBVShapeData@Gu@physx@@AEAUPrunerOverlapCallback@34@@Z 00000001801843a0 f   GuSecondaryPruner.obj
 0001:00184330       ?overlap@CompanionPrunerBucket@@UEBA_NAEBVShapeData@Gu@physx@@AEAUPrunerOverlapCallback@34@@Z 0000000180185330 f i GuSecondaryPruner.obj
 0001:00184350       ?overlap@CompanionPrunerIncremental@@UEBA_NAEBVShapeData@Gu@physx@@AEAUPrunerOverlapCallback@34@@Z 0000000180185350 f i GuSecondaryPruner.obj
 0001:00184370       ?raycast@CompanionPrunerAABBTree@@UEBA_NAEBV?$PxVec3T@M@physx@@0AEAMAEAUPrunerRaycastCallback@Gu@3@@Z 0000000180185370 f   GuSecondaryPruner.obj
 0001:00184750       ?raycast@CompanionPrunerBucket@@UEBA_NAEBV?$PxVec3T@M@physx@@0AEAMAEAUPrunerRaycastCallback@Gu@3@@Z 0000000180185750 f i GuSecondaryPruner.obj
 0001:00184770       ?raycast@CompanionPrunerIncremental@@UEBA_NAEBV?$PxVec3T@M@physx@@0AEAMAEAUPrunerRaycastCallback@Gu@3@@Z 0000000180185770 f i GuSecondaryPruner.obj
 0001:00184790       ?release@CompanionPrunerAABBTree@@UEAAXXZ 0000000180185790 f   GuSecondaryPruner.obj
 0001:001847a0       ?release@CompanionPrunerBucket@@UEAAXXZ 00000001801857a0 f i GuSecondaryPruner.obj
 0001:001847b0       ?release@CompanionPrunerIncremental@@UEAAXXZ 00000001801857b0 f i GuSecondaryPruner.obj
 0001:001847c0       ?releaseInternal@CompanionPrunerAABBTree@@QEAAXXZ 00000001801857c0 f   GuSecondaryPruner.obj
 0001:00184840       ?removeMarkedObjects@CompanionPrunerAABBTree@@UEAAII@Z 0000000180185840 f   GuSecondaryPruner.obj
 0001:00184860       ?removeMarkedObjects@CompanionPrunerBucket@@UEAAII@Z 0000000180185860 f i GuSecondaryPruner.obj
 0001:00184870       ?removeMarkedObjects@CompanionPrunerIncremental@@UEAAII@Z 0000000180185870 f i GuSecondaryPruner.obj
 0001:00184880       ?removeObject@CompanionPrunerAABBTree@@UEAA_NAEBUPrunerPayload@Gu@physx@@III@Z 0000000180185880 f   GuSecondaryPruner.obj
 0001:00184920       ?removeObject@CompanionPrunerBucket@@UEAA_NAEBUPrunerPayload@Gu@physx@@III@Z 0000000180185920 f i GuSecondaryPruner.obj
 0001:00184940       ?removeObject@CompanionPrunerIncremental@@UEAA_NAEBUPrunerPayload@Gu@physx@@III@Z 0000000180185940 f i GuSecondaryPruner.obj
 0001:00184960       ?shiftOrigin@CompanionPrunerAABBTree@@UEAAXAEBV?$PxVec3T@M@physx@@@Z 0000000180185960 f   GuSecondaryPruner.obj
 0001:00184a90       ?shiftOrigin@CompanionPrunerIncremental@@UEAAXAEBV?$PxVec3T@M@physx@@@Z 0000000180185a90 f i GuSecondaryPruner.obj
 0001:00184aa0       ?swapIndex@CompanionPrunerIncremental@@UEAAXII@Z 0000000180185aa0 f i GuSecondaryPruner.obj
 0001:00184ab0       ?sweep@CompanionPrunerAABBTree@@UEBA_NAEBVShapeData@Gu@physx@@AEBV?$PxVec3T@M@4@AEAMAEAUPrunerRaycastCallback@34@@Z 0000000180185ab0 f   GuSecondaryPruner.obj
 0001:00184ff0       ?sweep@CompanionPrunerBucket@@UEBA_NAEBVShapeData@Gu@physx@@AEBV?$PxVec3T@M@4@AEAMAEAUPrunerRaycastCallback@34@@Z 0000000180185ff0 f i GuSecondaryPruner.obj
 0001:00185010       ?sweep@CompanionPrunerIncremental@@UEBA_NAEBVShapeData@Gu@physx@@AEBV?$PxVec3T@M@4@AEAMAEAUPrunerRaycastCallback@34@@Z 0000000180186010 f i GuSecondaryPruner.obj
 0001:00185030       ?timeStampChange@CompanionPrunerIncremental@@UEAAXXZ 0000000180186030 f i GuSecondaryPruner.obj
 0001:00185050       ?updateObject@CompanionPrunerAABBTree@@UEAA_NAEBUPrunerPayload@Gu@physx@@IAEBVPxBounds3@4@AEBV?$PxTransformT@M@4@I@Z 0000000180186050 f   GuSecondaryPruner.obj
 0001:001850d0       ?updateObject@CompanionPrunerBucket@@UEAA_NAEBUPrunerPayload@Gu@physx@@IAEBVPxBounds3@4@AEBV?$PxTransformT@M@4@I@Z 00000001801860d0 f i GuSecondaryPruner.obj
 0001:001850f0       ?updateObject@CompanionPrunerIncremental@@UEAA_NAEBUPrunerPayload@Gu@physx@@IAEBVPxBounds3@4@AEBV?$PxTransformT@M@4@I@Z 00000001801860f0 f i GuSecondaryPruner.obj
 0001:00185100       ?visualize@CompanionPrunerAABBTree@@UEBAXAEAVPxRenderOutput@physx@@I@Z 0000000180186100 f   GuSecondaryPruner.obj
 0001:00185120       ?visualize@CompanionPrunerIncremental@@UEBAXAEAVPxRenderOutput@physx@@I@Z 0000000180186120 f i GuSecondaryPruner.obj
 0001:00185130       ??0AABBPruner@Gu@physx@@QEAA@_N_KW4CompanionPrunerType@12@W4BVHBuildStrategy@12@I@Z 0000000180186130 f   GuAABBPruner.obj
 0001:00185260       ??1AABBPruner@Gu@physx@@UEAA@XZ 0000000180186260 f   GuAABBPruner.obj
 0001:001853c0       ??_EAABBPruner@Gu@physx@@UEAAPEAXI@Z 00000001801863c0 f i GuAABBPruner.obj
 0001:001853c0       ??_GAABBPruner@Gu@physx@@UEAAPEAXI@Z 00000001801863c0 f i GuAABBPruner.obj
 0001:00185430       ?addObjects@AABBPruner@Gu@physx@@UEAA_NPEAIPEBVPxBounds3@3@PEBUPrunerPayload@23@PEBV?$PxTransformT@M@3@I_N@Z 0000000180186430 f   GuAABBPruner.obj
 0001:00185590       ?buildStep@AABBPruner@Gu@physx@@UEAA_N_N@Z 0000000180186590 f   GuAABBPruner.obj
 0001:001857c0       ?commit@AABBPruner@Gu@physx@@UEAAXXZ 00000001801867c0 f   GuAABBPruner.obj
 0001:00185b80       ?getGlobalBounds@AABBPruner@Gu@physx@@UEBAXAEAVPxBounds3@3@@Z 0000000180186b80 f   GuAABBPruner.obj
 0001:00185cc0       ?getPayloadData@AABBPruner@Gu@physx@@UEBAAEBUPrunerPayload@23@IPEAUPrunerPayloadData@23@@Z 0000000180186cc0 f i GuAABBPruner.obj
 0001:00185d20       ?growAndPushBack@?$PxArray@UNewTreeFixup@AABBPruner@Gu@physx@@V?$PxReflectionAllocator@UNewTreeFixup@AABBPruner@Gu@physx@@@4@@physx@@IEAAAEAUNewTreeFixup@AABBPruner@Gu@2@AEBU3452@@Z 0000000180186d20 f i GuAABBPruner.obj
 0001:00185e40       ?isDynamic@AABBPruner@Gu@physx@@UEBA_NXZ 0000000180186e40 f i GuAABBPruner.obj
 0001:00185e50       ?merge@AABBPruner@Gu@physx@@UEAAXPEBX@Z 0000000180186e50 f   GuAABBPruner.obj
 0001:00185ed0       ?overlap@AABBPruner@Gu@physx@@UEBA_NAEBVShapeData@23@AEAUPrunerOverlapCallback@23@@Z 0000000180186ed0 f   GuAABBPruner.obj
 0001:001864a0       ?preallocate@AABBPruner@Gu@physx@@UEAAXI@Z 00000001801874a0 f i GuAABBPruner.obj
 0001:001864b0       ?prepareBuild@AABBPruner@Gu@physx@@UEAA_NXZ 00000001801874b0 f   GuAABBPruner.obj
 0001:00186640       ?purge@AABBPruner@Gu@physx@@UEAAXXZ 0000000180187640 f   GuAABBPruner.obj
 0001:00186660       ?raycast@AABBPruner@Gu@physx@@UEBA_NAEBV?$PxVec3T@M@3@0AEAMAEAUPrunerRaycastCallback@23@@Z 0000000180187660 f   GuAABBPruner.obj
 0001:00186750       ?release@AABBPruner@Gu@physx@@QEAAXXZ 0000000180187750 f   GuAABBPruner.obj
 0001:00186880       ?removeObjects@AABBPruner@Gu@physx@@UEAAXPEBIIPEAUPrunerPayloadRemovalCallback@23@@Z 0000000180187880 f   GuAABBPruner.obj
 0001:00186a70       ?setRebuildRateHint@AABBPruner@Gu@physx@@UEAAXI@Z 0000000180187a70 f   GuAABBPruner.obj
 0001:00186a90       ?setTransform@AABBPruner@Gu@physx@@UEAA_NIAEBV?$PxTransformT@M@3@@Z 0000000180187a90 f i GuAABBPruner.obj
 0001:00186af0       ?shiftOrigin@AABBPruner@Gu@physx@@UEAAXAEBV?$PxVec3T@M@3@@Z 0000000180187af0 f   GuAABBPruner.obj
 0001:00186b60       ?sweep@AABBPruner@Gu@physx@@UEBA_NAEBVShapeData@23@AEBV?$PxVec3T@M@3@AEAMAEAUPrunerRaycastCallback@23@@Z 0000000180187b60 f   GuAABBPruner.obj
 0001:00186cf0       ?updateObjects@AABBPruner@Gu@physx@@UEAAXPEBIIM0PEBVPxBounds3@3@PEBUPxTransformPadded@3@@Z 0000000180187cf0 f   GuAABBPruner.obj
 0001:00186e90       ?visualize@AABBPruner@Gu@physx@@UEBAXAEAVPxRenderOutput@3@II@Z 0000000180187e90 f   GuAABBPruner.obj
 0001:00186f40       ??0ActorShapeMap@Gu@physx@@QEAA@XZ 0000000180187f40 f   GuActorShapeMap.obj
 0001:00186fa0       ??1ActorShapeMap@Gu@physx@@QEAA@XZ 0000000180187fa0 f   GuActorShapeMap.obj
 0001:00187000       ?add@ActorShapeMap@Gu@physx@@QEAA_NIPEBX0_K@Z 0000000180188000 f   GuActorShapeMap.obj
 0001:001871a0       ?create@?$PxHashBase@V?$PxPair@$$CBUActorShape@ActorShapeMap@Gu@physx@@_K@physx@@UActorShape@ActorShapeMap@Gu@2@U?$PxHash@UActorShape@ActorShapeMap@Gu@physx@@@2@UGetKey@?$PxHashMapBase@UActorShape@ActorShapeMap@Gu@physx@@_KU?$PxHash@UActorShape@ActorShapeMap@Gu@physx@@@4@VPxAllocator@4@@2@VPxAllocator@2@$00@physx@@QEAAPEAV?$PxPair@$$CBUActorShape@ActorShapeMap@Gu@physx@@_K@2@AEBUActorShape@ActorShapeMap@Gu@2@AEA_N@Z 00000001801881a0 f i GuActorShapeMap.obj
 0001:00187390       ?eraseInternal@?$PxHashBase@V?$PxPair@$$CBUActorShape@ActorShapeMap@Gu@physx@@_K@physx@@UActorShape@ActorShapeMap@Gu@2@U?$PxHash@UActorShape@ActorShapeMap@Gu@physx@@@2@UGetKey@?$PxHashMapBase@UActorShape@ActorShapeMap@Gu@physx@@_KU?$PxHash@UActorShape@ActorShapeMap@Gu@physx@@@4@VPxAllocator@4@@2@VPxAllocator@2@$00@physx@@AEAA_NPEAI@Z 0000000180188390 f i GuActorShapeMap.obj
 0001:001874a0       ?find@ActorShapeMap@Gu@physx@@QEBA_KIPEBX0@Z 00000001801884a0 f   GuActorShapeMap.obj
 0001:00187590       ?remove@ActorShapeMap@Gu@physx@@QEAA_NIPEBX0PEA_K@Z 0000000180188590 f   GuActorShapeMap.obj
 0001:001876e0       ?reserveInternal@?$PxHashBase@V?$PxPair@$$CBUActorShape@ActorShapeMap@Gu@physx@@_K@physx@@UActorShape@ActorShapeMap@Gu@2@U?$PxHash@UActorShape@ActorShapeMap@Gu@physx@@@2@UGetKey@?$PxHashMapBase@UActorShape@ActorShapeMap@Gu@physx@@_KU?$PxHash@UActorShape@ActorShapeMap@Gu@physx@@@4@VPxAllocator@4@@2@VPxAllocator@2@$00@physx@@AEAAXI@Z 00000001801886e0 f i GuActorShapeMap.obj
 0001:001878f0       ??0QuerySystem@Gu@physx@@QEAA@_KMAEBVAdapter@12@_N@Z 00000001801888f0 f   GuQuerySystem.obj
 0001:001879c0       ??1QuerySystem@Gu@physx@@QEAA@XZ 00000001801889c0 f   GuQuerySystem.obj
 0001:00187c10       ??_GPrunerExt@QuerySystem@Gu@physx@@QEAAPEAXI@Z 0000000180188c10 f i GuQuerySystem.obj
 0001:00187d20       ?addPruner@QuerySystem@Gu@physx@@QEAAIPEAVPruner@23@I@Z 0000000180188d20 f   GuQuerySystem.obj
 0001:00187e40       ?addPrunerShape@QuerySystem@Gu@physx@@QEAA_KAEBUPrunerPayload@23@I_NAEBV?$PxTransformT@M@3@PEBVPxBounds3@3@@Z 0000000180188e40 f   GuQuerySystem.obj
 0001:00187f80       ?addToDirtyList@PrunerExt@QuerySystem@Gu@physx@@QEAAXIIAEBV?$PxTransformT@M@4@PEBVPxBounds3@4@@Z 0000000180188f80 f   GuQuerySystem.obj
 0001:001881d0       ?commitUpdates@QuerySystem@Gu@physx@@QEAAXXZ 00000001801891d0 f   GuQuerySystem.obj
 0001:00188280       ?createTreeOfPruners@QuerySystem@Gu@physx@@QEAAXXZ 0000000180189280 f   GuQuerySystem.obj
 0001:001883e0       ?flushMemory@QuerySystem@Gu@physx@@QEAAXXZ 00000001801893e0 f   GuQuerySystem.obj
 0001:00188470       ?getPayloadData@QuerySystem@Gu@physx@@QEBAAEBUPrunerPayload@23@_KPEAUPrunerPayloadData@23@@Z 0000000180189470 f   GuQuerySystem.obj
 0001:00188490       ?growAndPushBack@?$PxArray@PEAUPrunerExt@QuerySystem@Gu@physx@@V?$PxReflectionAllocator@PEAUPrunerExt@QuerySystem@Gu@physx@@@4@@physx@@IEAAAEAPEAUPrunerExt@QuerySystem@Gu@2@AEBQEAU3452@@Z 0000000180189490 f i GuQuerySystem.obj
 0001:001885b0       ?overlap@QuerySystem@Gu@physx@@QEBAXAEBVShapeData@23@AEAUPrunerOverlapCallback@23@PEBVPrunerFilter@23@@Z 00000001801895b0 f   GuQuerySystem.obj
 0001:001886b0       ?processDirtyLists@QuerySystem@Gu@physx@@AEAAXXZ 00000001801896b0 f   GuQuerySystem.obj
 0001:00188990       ?raycast@QuerySystem@Gu@physx@@QEBAXAEBV?$PxVec3T@M@3@0AEAMAEAUPrunerRaycastCallback@23@PEBVPrunerFilter@23@@Z 0000000180189990 f   GuQuerySystem.obj
 0001:00188ad0       ?recreate@?$PxArray@UData@PrunerExt@QuerySystem@Gu@physx@@V?$PxReflectionAllocator@UData@PrunerExt@QuerySystem@Gu@physx@@@5@@physx@@IEAAXI@Z 0000000180189ad0 f i GuQuerySystem.obj
 0001:00188dc0       ?removePruner@QuerySystem@Gu@physx@@QEAAXI@Z 0000000180189dc0 f   GuQuerySystem.obj
 0001:00188ea0       ?removePrunerShape@QuerySystem@Gu@physx@@QEAAX_KPEAUPrunerPayloadRemovalCallback@23@@Z 0000000180189ea0 f   GuQuerySystem.obj
 0001:001890d0       ?sweep@QuerySystem@Gu@physx@@QEBAXAEBVShapeData@23@AEBV?$PxVec3T@M@3@AEAMAEAUPrunerRaycastCallback@23@PEBVPrunerFilter@23@@Z 000000018018a0d0 f   GuQuerySystem.obj
 0001:00189200       ?sync@QuerySystem@Gu@physx@@QEAAXIPEBI0PEBVPxBounds3@3@PEBUPxTransformPadded@3@I@Z 000000018018a200 f   GuQuerySystem.obj
 0001:001892b0       ?update@QuerySystem@Gu@physx@@QEAAX_N0@Z 000000018018a2b0 f   GuQuerySystem.obj
 0001:00189380       ?updatePrunerShape@QuerySystem@Gu@physx@@QEAAX_K_NAEBV?$PxTransformT@M@3@PEBVPxBounds3@3@@Z 000000018018a380 f   GuQuerySystem.obj
 0001:00189570       createAABBPruner           000000018018a570 f   GuFactory.obj
 0001:00189630       createBucketPruner         000000018018a630 f   GuFactory.obj
 0001:001896c0       createIncrementalPruner    000000018018a6c0 f   GuFactory.obj
 0001:00189750       ??$PxSmallSort@I$$CBUSortBoundsPredicate@physx@@@physx@@YAXPEAIHHAEBUSortBoundsPredicate@0@@Z 000000018018a750 f i GuRTreeCooking.obj
 0001:001899f0       ??$PxSort@IU?$PxLess@I@physx@@V?$PxReflectionAllocator@I@2@@physx@@YAXPEAIIAEBU?$PxLess@I@0@AEBV?$PxReflectionAllocator@I@0@I@Z 000000018018a9f0 f i GuRTreeCooking.obj
 0001:00189e40       ??$PxSort@IUSortBoundsPredicate@physx@@V?$PxReflectionAllocator@I@2@@physx@@YAXPEAIIAEBUSortBoundsPredicate@0@AEBV?$PxReflectionAllocator@I@0@I@Z 000000018018ae40 f i GuRTreeCooking.obj
 0001:0018a2f0       ??$quickSelectFirstK@UBoundsLTE@physx@@@quickSelect@physx@@YAXPEIAIIIIAEBUBoundsLTE@1@@Z 000000018018b2f0 f i GuRTreeCooking.obj
 0001:0018a4d0       ?allocate@?$PxArray@UInterval@physx@@V?$PxInlineAllocator@$0CAAA@V?$PxReflectionAllocator@UInterval@physx@@@physx@@@2@@physx@@IEAAPEAUInterval@2@I@Z 000000018018b4d0 f i GuRTreeCooking.obj
 0001:0018a590       ?allocate@?$PxArray@UPxBounds3V@physx@@V?$PxReflectionAllocator@UPxBounds3V@physx@@@2@@physx@@IEAAPEAUPxBounds3V@2@I@Z 000000018018b590 f i GuRTreeCooking.obj
 0001:0018a620       ?allocate@?$PxArray@URTreeNodeNQ@physx@@V?$PxReflectionAllocator@URTreeNodeNQ@physx@@@2@@physx@@IEAAPEAURTreeNodeNQ@2@I@Z 000000018018b620 f i GuRTreeCooking.obj
 0001:0018a6b0       ?allocate@?$PxArray@URTreeNodeQ@Gu@physx@@V?$PxReflectionAllocator@URTreeNodeQ@Gu@physx@@@3@@physx@@IEAAPEAURTreeNodeQ@Gu@2@I@Z 000000018018b6b0 f i GuRTreeCooking.obj
 0001:0018b3c0       ?buildFromTriangles@RTreeCooker@physx@@SAXAEAURTree@Gu@2@PEBV?$PxVec3T@M@2@IPEBGPEBIIAEAV?$PxArray@IV?$PxReflectionAllocator@I@physx@@@2@PEAURemapCallback@12@MW4Enum@PxMeshCookingHint@2@@Z 000000018018c3c0 f   GuRTreeCooking.obj
 0001:0018b680       ?copy@?$PxArray@URTreeNodeNQ@physx@@V?$PxReflectionAllocator@URTreeNodeNQ@physx@@@2@@physx@@KAXPEAURTreeNodeNQ@2@0PEBU32@@Z 000000018018c680 f i GuRTreeCooking.obj
 0001:0018b840       ?growAndPushBack@?$PxArray@UInterval@physx@@V?$PxInlineAllocator@$0CAAA@V?$PxReflectionAllocator@UInterval@physx@@@physx@@@2@@physx@@IEAAAEAUInterval@2@AEBU32@@Z 000000018018c840 f i GuRTreeCooking.obj
 0001:0018b920       ?growAndPushBack@?$PxArray@UPxBounds3V@physx@@V?$PxReflectionAllocator@UPxBounds3V@physx@@@2@@physx@@IEAAAEAUPxBounds3V@2@AEBU32@@Z 000000018018c920 f i GuRTreeCooking.obj
 0001:0018ba00       ?growAndPushBack@?$PxArray@URTreeNodeNQ@physx@@V?$PxReflectionAllocator@URTreeNodeNQ@physx@@@2@@physx@@IEAAAEAURTreeNodeNQ@2@AEBU32@@Z 000000018018ca00 f i GuRTreeCooking.obj
 0001:0018bae0       ?growAndPushBack@?$PxArray@URTreeNodeQ@Gu@physx@@V?$PxReflectionAllocator@URTreeNodeQ@Gu@physx@@@3@@physx@@IEAAAEAURTreeNodeQ@Gu@2@AEBU342@@Z 000000018018cae0 f i GuRTreeCooking.obj
 0001:0018bbd0       ?recreate@?$PxArray@UPxBounds3V@physx@@V?$PxReflectionAllocator@UPxBounds3V@physx@@@2@@physx@@IEAAXI@Z 000000018018cbd0 f i GuRTreeCooking.obj
 0001:0018bc80       ?recreate@?$PxArray@URTreeNodeNQ@physx@@V?$PxReflectionAllocator@URTreeNodeNQ@physx@@@2@@physx@@IEAAXI@Z 000000018018cc80 f i GuRTreeCooking.obj
 0001:0018bd10       ?recreate@?$PxArray@URTreeNodeQ@Gu@physx@@V?$PxReflectionAllocator@URTreeNodeQ@Gu@physx@@@3@@physx@@IEAAXI@Z 000000018018cd10 f i GuRTreeCooking.obj
 0001:0018bdd0       ?resizeUninitialized@?$PxArray@URTreeNodeNQ@physx@@V?$PxReflectionAllocator@URTreeNodeNQ@physx@@@2@@physx@@QEAAXI@Z 000000018018cdd0 f i GuRTreeCooking.obj
 0001:0018be10       ?sort4@SubSortQuick@physx@@QEAAXPEIAIIAEAV?$PxArray@URTreeNodeNQ@physx@@V?$PxReflectionAllocator@URTreeNodeNQ@physx@@@2@@2@AEAIAEAUPxBounds3V@2@I@Z 000000018018ce10 f i GuRTreeCooking.obj
 0001:0018c1a0       ?sort4@SubSortSAH@physx@@QEAAXPEAIIAEAV?$PxArray@URTreeNodeNQ@physx@@V?$PxReflectionAllocator@URTreeNodeNQ@physx@@@2@@2@AEAIIPEAURTreeNodeNQ@2@@Z 000000018018d1a0 f i GuRTreeCooking.obj
 0001:0018ca00       ?split@SubSortSAH@physx@@QEAAIPEAII@Z 000000018018da00 f i GuRTreeCooking.obj
 0001:0018d480       cookBVH                    000000018018e480 f   GuCookingBVH.obj
 0001:0018d610       createBVH                  000000018018e610 f   GuCookingBVH.obj
 0001:0018d7a0       cookHeightField            000000018018e7a0 f   GuCookingHF.obj
 0001:0018d8b0       createHeightField          000000018018e8b0 f   GuCookingHF.obj
 0001:0018df40       ?isFinite@?$PxVec3T@M@physx@@QEBA_NXZ 000000018018ef40 f i GuCookingConvexMesh.obj
 0001:0018dfa0       computeHullPolygons        000000018018efa0 f   GuCookingConvexMesh.obj
 0001:0018e180       cookConvexMesh             000000018018f180 f   GuCookingConvexMesh.obj
 0001:0018e2f0       createConvexMesh           000000018018f2f0 f   GuCookingConvexMesh.obj
 0001:0018e490       validateConvexMesh         000000018018f490 f   GuCookingConvexMesh.obj
 0001:0018e5b0       ??1BV4TriangleMeshBuilder@physx@@UEAA@XZ 000000018018f5b0 f   GuCookingTriangleMesh.obj
 0001:0018e640       ??1RTreeTriangleMeshBuilder@physx@@UEAA@XZ 000000018018f640 f   GuCookingTriangleMesh.obj
 0001:0018e6b0       ??_EBV4TriangleMeshBuilder@physx@@UEAAPEAXI@Z 000000018018f6b0 f i GuCookingTriangleMesh.obj
 0001:0018e6b0       ??_GBV4TriangleMeshBuilder@physx@@UEAAPEAXI@Z 000000018018f6b0 f i GuCookingTriangleMesh.obj
 0001:0018e6f0       ??_ERTreeTriangleMeshBuilder@physx@@UEAAPEAXI@Z 000000018018f6f0 f i GuCookingTriangleMesh.obj
 0001:0018e6f0       ??_GRTreeTriangleMeshBuilder@physx@@UEAAPEAXI@Z 000000018018f6f0 f i GuCookingTriangleMesh.obj
 0001:0018e730       ??_ETriangleMeshBuilder@physx@@UEAAPEAXI@Z 000000018018f730 f i GuCookingTriangleMesh.obj
 0001:0018e730       ??_GTriangleMeshBuilder@physx@@UEAAPEAXI@Z 000000018018f730 f i GuCookingTriangleMesh.obj
 0001:0018f0f0       ?buildInertiaTensor@TriangleMeshBuilder@physx@@IEAAX_N@Z 00000001801900f0 f   GuCookingTriangleMesh.obj
 0001:0018f250       ?buildInertiaTensorFromSDF@TriangleMeshBuilder@physx@@IEAAXXZ 0000000180190250 f   GuCookingTriangleMesh.obj
 0001:0018f490       ?cleanMesh@TriangleMeshBuilder@physx@@QEAA_N_NPEAW4Enum@PxTriangleMeshCookingResult@2@@Z 0000000180190490 f   GuCookingTriangleMesh.obj
 0001:0018f980       ?createGRBMidPhaseAndData@TriangleMeshBuilder@physx@@QEAA_NI@Z 0000000180190980 f   GuCookingTriangleMesh.obj
 0001:0018fb30       ?createMidPhaseStructure@BV32TriangleMeshBuilder@physx@@SA_NAEBUPxCookingParams@2@AEAVTriangleMeshData@Gu@2@AEAVBV32Tree@52@@Z 0000000180190b30 f   GuCookingTriangleMesh.obj
 0001:0018fd80       ?createMidPhaseStructure@BV4TriangleMeshBuilder@physx@@UEAA_NXZ 0000000180190d80 f   GuCookingTriangleMesh.obj
 0001:00190040       ?createMidPhaseStructure@RTreeTriangleMeshBuilder@physx@@UEAA_NXZ 0000000180191040 f   GuCookingTriangleMesh.obj
 0001:00190130       ?createSharedEdgeData@TriangleMeshBuilder@physx@@QEAAX_N0@Z 0000000180191130 f   GuCookingTriangleMesh.obj
 0001:001907e0       ?createVertMapping@TriangleMeshBuilder@physx@@QEAAXXZ 00000001801917e0 f   GuCookingTriangleMesh.obj
 0001:00190b40       ?importMesh@TriangleMeshBuilder@physx@@IEAA_NAEBVPxTriangleMeshDesc@2@PEAW4Enum@PxTriangleMeshCookingResult@2@_N@Z 0000000180191b40 f   GuCookingTriangleMesh.obj
 0001:00191000       ?isValid@PxTriangleMeshDesc@physx@@QEBA_NXZ 0000000180192000 f i GuCookingTriangleMesh.obj
 0001:001910d0       ?loadFromDescInternal@TriangleMeshBuilder@physx@@IEAA_NAEAVPxTriangleMeshDesc@2@PEAW4Enum@PxTriangleMeshCookingResult@2@_N@Z 00000001801920d0 f   GuCookingTriangleMesh.obj
 0001:001912f0       ?onMeshIndexFormatChange@BV4TriangleMeshBuilder@physx@@UEAAXXZ 00000001801922f0 f   GuCookingTriangleMesh.obj
 0001:00191330       ?remap@RTreeCookerRemap@@UEAAXPEAIII@Z 0000000180192330 f i GuCookingTriangleMesh.obj
 0001:00191350       ?remapTopology@TriangleMeshBuilder@physx@@QEAAXPEBI@Z 0000000180192350 f   GuCookingTriangleMesh.obj
 0001:001915f0       ?save@TriangleMeshBuilder@physx@@QEBA_NAEAVPxOutputStream@2@_NAEBUPxCookingParams@2@@Z 00000001801925f0 f   GuCookingTriangleMesh.obj
 0001:00191da0       ?saveMidPhaseStructure@BV32TriangleMeshBuilder@physx@@SAXPEAVBV32Tree@Gu@2@AEAVPxOutputStream@2@_N@Z 0000000180192da0 f   GuCookingTriangleMesh.obj
 0001:00191fa0       ?saveMidPhaseStructure@BV4TriangleMeshBuilder@physx@@UEBAXAEAVPxOutputStream@2@_N@Z 0000000180192fa0 f   GuCookingTriangleMesh.obj
 0001:00192150       ?saveMidPhaseStructure@RTreeTriangleMeshBuilder@physx@@UEBAXAEAVPxOutputStream@2@_N@Z 0000000180193150 f   GuCookingTriangleMesh.obj
 0001:00192390       cookTriangleMesh           0000000180193390 f   GuCookingTriangleMesh.obj
 0001:001926a0       createTriangleMesh         00000001801936a0 f   GuCookingTriangleMesh.obj
 0001:001928c0       validateTriangleMesh       00000001801938c0 f   GuCookingTriangleMesh.obj
 0001:00192b80       ??0SoftBodyCollisionData@Gu@physx@@QEAA@XZ 0000000180193b80 f i GuCookingTetrahedronMesh.obj
 0001:00192be0       ??_ECollisionTetrahedronMeshData@Gu@physx@@UEAAPEAXI@Z 0000000180193be0 f i GuCookingTetrahedronMesh.obj
 0001:00192be0       ??_GCollisionTetrahedronMeshData@Gu@physx@@UEAAPEAXI@Z 0000000180193be0 f i GuCookingTetrahedronMesh.obj
 0001:00192cb0       ??_EPxCollisionTetrahedronMeshData@physx@@UEAAPEAXI@Z 0000000180193cb0 f i GuCookingTetrahedronMesh.obj
 0001:00192cb0       ??_GPxCollisionTetrahedronMeshData@physx@@UEAAPEAXI@Z 0000000180193cb0 f i GuCookingTetrahedronMesh.obj
 0001:00192d00       ??_EPxSimulationTetrahedronMeshData@physx@@UEAAPEAXI@Z 0000000180193d00 f i GuCookingTetrahedronMesh.obj
 0001:00192d00       ??_GPxSimulationTetrahedronMeshData@physx@@UEAAPEAXI@Z 0000000180193d00 f i GuCookingTetrahedronMesh.obj
 0001:00192d50       ??_ESimulationTetrahedronMeshData@Gu@physx@@UEAAPEAXI@Z 0000000180193d50 f i GuCookingTetrahedronMesh.obj
 0001:00192d50       ??_GSimulationTetrahedronMeshData@Gu@physx@@UEAAPEAXI@Z 0000000180193d50 f i GuCookingTetrahedronMesh.obj
 0001:00192e20       ?combineGridModelPartitions@@YAXAEBVTetrahedronMeshData@Gu@physx@@AEAVSoftBodySimulationData@23@PEAPEAI@Z 0000000180193e20 f   GuCookingTetrahedronMesh.obj
 0001:00193670       ?combineGridModelPartitionsHexMesh@@YAXAEBVTetrahedronMeshData@Gu@physx@@AEAVSoftBodySimulationData@23@PEAPEAII@Z 0000000180194670 f   GuCookingTetrahedronMesh.obj
 0001:001940b0       ?computeCollisionData@TetrahedronMeshBuilder@physx@@SA_NAEBVPxTetrahedronMeshDesc@2@AEAVTetrahedronMeshData@Gu@2@AEAVSoftBodyCollisionData@52@AEBUPxCookingParams@2@_N@Z 00000001801950b0 f   GuCookingTetrahedronMesh.obj
 0001:001942f0       ?computeGridModelTetrahedronPartitions@@YAPEAIAEBVTetrahedronMeshData@Gu@physx@@AEAVSoftBodySimulationData@23@@Z 00000001801952f0 f   GuCookingTetrahedronMesh.obj
 0001:00194790       ?computeModelsMapping@TetrahedronMeshBuilder@physx@@SAXAEAVTetrahedronMeshData@Gu@2@AEBV342@AEBVSoftBodyCollisionData@42@AEAVCollisionMeshMappingData@42@_NPEBUPxBoundedData@2@@Z 0000000180195790 f   GuCookingTetrahedronMesh.obj
 0001:001953a0       ?computeRestPoseAndPointMass@@YAXPEAU?$TetrahedronT@I@Gu@physx@@IPEBV?$PxVec3T@M@3@PEAMPEAV?$PxMat33T@M@3@@Z 00000001801963a0 f   GuCookingTetrahedronMesh.obj
 0001:001958f0       ?computeSimData@TetrahedronMeshBuilder@physx@@SAXAEBVPxTetrahedronMeshDesc@2@AEAVTetrahedronMeshData@Gu@2@AEAVSoftBodySimulationData@52@AEBUPxCookingParams@2@@Z 00000001801968f0 f   GuCookingTetrahedronMesh.obj
 0001:00195fc0       ?computeTetData@TetrahedronMeshBuilder@physx@@SAXAEBVPxTetrahedronMeshDesc@2@AEAVTetrahedronMeshData@Gu@2@@Z 0000000180196fc0 f   GuCookingTetrahedronMesh.obj
 0001:001960b0       ?computeTetrahedronPartition@@YAIPEBU?$TetrahedronT@I@Gu@physx@@IPEAII@Z 00000001801970b0 f   GuCookingTetrahedronMesh.obj
 0001:001961a0       ?createCollisionModelMapping@TetrahedronMeshBuilder@physx@@SAXAEBVTetrahedronMeshData@Gu@2@AEBVSoftBodyCollisionData@42@AEAVCollisionMeshMappingData@42@@Z 00000001801971a0 f   GuCookingTetrahedronMesh.obj
 0001:00196780       ?createGRBMidPhaseAndData@TetrahedronMeshBuilder@physx@@SA_NIAEAVTetrahedronMeshData@Gu@2@AEAVSoftBodyCollisionData@42@AEBUPxCookingParams@2@@Z 0000000180197780 f   GuCookingTetrahedronMesh.obj
 0001:001974d0       ?createMidPhaseStructure@BV32TetrahedronMeshBuilder@physx@@SA_NAEBUPxCookingParams@2@AEAVTetrahedronMeshData@Gu@2@AEAVBV32Tree@52@AEAVSoftBodyCollisionData@52@@Z 00000001801984d0 f   GuCookingTetrahedronMesh.obj
 0001:001977a0       ?createMidPhaseStructure@TetrahedronMeshBuilder@physx@@SA_NAEAVTetrahedronMeshData@Gu@2@AEAVSoftBodyCollisionData@42@AEBUPxCookingParams@2@@Z 00000001801987a0 f   GuCookingTetrahedronMesh.obj
 0001:00198470       ?getData@CollisionTetrahedronMeshData@Gu@physx@@UEAAPEAVPxSoftBodyCollisionData@3@XZ 0000000180199470 f i GuCookingTetrahedronMesh.obj
 0001:00198470       ?getData@CollisionTetrahedronMeshData@Gu@physx@@UEBAPEBVPxSoftBodyCollisionData@3@XZ 0000000180199470 f i GuCookingTetrahedronMesh.obj
 0001:00198470       ?getData@SimulationTetrahedronMeshData@Gu@physx@@UEAAPEAVPxSoftBodySimulationData@3@XZ 0000000180199470 f i GuCookingTetrahedronMesh.obj
 0001:00198490       ?importMesh@TetrahedronMeshBuilder@physx@@SA_NAEBVPxTetrahedronMeshDesc@2@AEBUPxCookingParams@2@AEAVTetrahedronMeshData@Gu@2@AEAVSoftBodyCollisionData@62@_N@Z 0000000180199490 f   GuCookingTetrahedronMesh.obj
 0001:00198790       ?isValid@PxTetrahedronMeshDesc@physx@@QEBA_NXZ 0000000180199790 f i GuCookingTetrahedronMesh.obj
 0001:00198810       ?loadFromDesc@TetrahedronMeshBuilder@physx@@SA_NAEBVPxTetrahedronMeshDesc@2@0VPxSoftBodySimulationDataDesc@2@AEAVTetrahedronMeshData@Gu@2@AEAVSoftBodySimulationData@62@2AEAVSoftBodyCollisionData@62@AEAVCollisionMeshMappingData@62@AEBUPxCookingParams@2@_N@Z 0000000180199810 f   GuCookingTetrahedronMesh.obj
 0001:00198980       ?release@CollisionTetrahedronMeshData@Gu@physx@@UEAAXXZ 0000000180199980 f i GuCookingTetrahedronMesh.obj
 0001:001989a0       ?reserveInternal@?$PxHashBase@V?$PxPair@$$CBVSortedTriangleInds@@I@physx@@VSortedTriangleInds@@USortedTriangleIndsHash@@UGetKey@?$PxHashMapBase@VSortedTriangleInds@@IUSortedTriangleIndsHash@@VPxAllocator@physx@@@2@VPxAllocator@2@$00@physx@@AEAAXI@Z 00000001801999a0 f i GuCookingTetrahedronMesh.obj
 0001:00198be0       ?saveSoftBodyMeshData@TetrahedronMeshBuilder@physx@@SA_NAEAVPxOutputStream@2@_NAEBUPxCookingParams@2@AEBVTetrahedronMeshData@Gu@2@AEBVSoftBodySimulationData@62@3AEBVSoftBodyCollisionData@62@AEBVCollisionMeshMappingData@62@@Z 0000000180199be0 f   GuCookingTetrahedronMesh.obj
 0001:001992f0       ?saveTetrahedronMeshData@TetrahedronMeshBuilder@physx@@SA_NAEAVPxOutputStream@2@_NAEBUPxCookingParams@2@AEBVTetrahedronMeshData@Gu@2@@Z 000000018019a2f0 f   GuCookingTetrahedronMesh.obj
 0001:001994a0       ?smoothMassRatiosWhilePreservingTotalMass@@YAXPEAMIPEBIHMM@Z 000000018019a4a0 f   GuCookingTetrahedronMesh.obj
 0001:00199940       ?support@?$LocalConvex@VTetrahedronV@Gu@physx@@@Gu@physx@@UEBA?AT__m128@@AEBT4@@Z 000000018019a940 f i GuCookingTetrahedronMesh.obj
 0001:00199a00       ?support@?$LocalConvex@VTetrahedronV@Gu@physx@@@Gu@physx@@UEBA?AT__m128@@AEBT4@AEAH@Z 000000018019aa00 f i GuCookingTetrahedronMesh.obj
 0001:00199bb0       assembleSoftBodyMesh       000000018019abb0 f   GuCookingTetrahedronMesh.obj
 0001:00199c10       assembleSoftBodyMesh_Sim   000000018019ac10 f   GuCookingTetrahedronMesh.obj
 0001:00199cc0       computeCollisionData       000000018019acc0 f   GuCookingTetrahedronMesh.obj
 0001:00199ec0       computeModelsMapping       000000018019aec0 f   GuCookingTetrahedronMesh.obj
 0001:00199fc0       computeSimulationData      000000018019afc0 f   GuCookingTetrahedronMesh.obj
 0001:0019a190       cookSoftBodyMesh           000000018019b190 f   GuCookingTetrahedronMesh.obj
 0001:0019a7b0       cookTetrahedronMesh        000000018019b7b0 f   GuCookingTetrahedronMesh.obj
 0001:0019a8b0       createSoftBodyMesh         000000018019b8b0 f   GuCookingTetrahedronMesh.obj
 0001:0019af50       createTetrahedronMesh      000000018019bf50 f   GuCookingTetrahedronMesh.obj
 0001:0019cc40       ?computeVolumeIntegrals@physx@@YA_NAEBVPxSimpleTriangleMesh@1@MAEAUPxIntegrals@1@@Z 000000018019dc40 f   GuCookingVolumeIntegration.obj
 0001:0019cc80       ?computeVolumeIntegralsEberly@physx@@YA_NAEBVPxConvexMeshDesc@1@MAEAUPxIntegrals@1@AEBV?$PxVec3T@M@1@_N@Z 000000018019dc80 f   GuCookingVolumeIntegration.obj
 0001:0019d2e0       ??0QuickHull@local@@QEAA@AEBUPxCookingParams@physx@@AEBVPxConvexMeshDesc@3@@Z 000000018019e2e0 f   GuCookingQuickHullConvexHullLib.obj
 0001:0019d390       ??0QuickHullConvexHullLib@physx@@QEAA@AEBVPxConvexMeshDesc@1@AEBUPxCookingParams@1@@Z 000000018019e390 f   GuCookingQuickHullConvexHullLib.obj
 0001:0019d470       ??1?$MemBlock@UQuickHullFace@local@@$00@local@@QEAA@XZ 000000018019e470 f i GuCookingQuickHullConvexHullLib.obj
 0001:0019d470       ??1?$MemBlock@UQuickHullHalfEdge@local@@$0A@@local@@QEAA@XZ 000000018019e470 f i GuCookingQuickHullConvexHullLib.obj
 0001:0019d530       ??1QuickHull@local@@QEAA@XZ 000000018019e530 f   GuCookingQuickHullConvexHullLib.obj
 0001:0019d690       ??_GConvexHull@physx@@QEAAPEAXI@Z 000000018019e690 f i GuCookingQuickHullConvexHullLib.obj
 0001:0019d780       ??_EConvexHullLib@physx@@UEAAPEAXI@Z 000000018019e780 f i GuCookingQuickHullConvexHullLib.obj
 0001:0019d780       ??_GConvexHullLib@physx@@UEAAPEAXI@Z 000000018019e780 f i GuCookingQuickHullConvexHullLib.obj
 0001:0019d7c0       ??_EQuickHullConvexHullLib@physx@@UEAAPEAXI@Z 000000018019e7c0 f i GuCookingQuickHullConvexHullLib.obj
 0001:0019d7c0       ??_GQuickHullConvexHullLib@physx@@UEAAPEAXI@Z 000000018019e7c0 f i GuCookingQuickHullConvexHullLib.obj
 0001:0019d8e0       ?addPointToHull@QuickHull@local@@IEAA_NPEBUQuickHullVertex@2@AEAUQuickHullFace@2@AEA_N@Z 000000018019e8e0 f   GuCookingQuickHullConvexHullLib.obj
 0001:0019dbb0       ?addSimplex@QuickHull@local@@IEAA_NPEAUQuickHullVertex@2@_N@Z 000000018019ebb0 f   GuCookingQuickHullConvexHullLib.obj
 0001:0019e0c0       ?allocate@?$PxArray@PEAUQuickHullFace@local@@V?$PxReflectionAllocator@PEAUQuickHullFace@local@@@physx@@@physx@@IEAAPEAPEAUQuickHullFace@local@@I@Z 000000018019f0c0 f i GuCookingQuickHullConvexHullLib.obj
 0001:0019e150       ?allocate@?$PxArray@PEAUQuickHullHalfEdge@local@@V?$PxReflectionAllocator@PEAUQuickHullHalfEdge@local@@@physx@@@physx@@IEAAPEAPEAUQuickHullHalfEdge@local@@I@Z 000000018019f150 f i GuCookingQuickHullConvexHullLib.obj
 0001:0019e1e0       ?allocate@?$PxArray@PEAUQuickHullVertex@local@@V?$PxReflectionAllocator@PEAUQuickHullVertex@local@@@physx@@@physx@@IEAAPEAPEAUQuickHullVertex@local@@I@Z 000000018019f1e0 f i GuCookingQuickHullConvexHullLib.obj
 0001:0019e270       ?allocate@?$PxArray@UExpandPoint@local@@V?$PxReflectionAllocator@UExpandPoint@local@@@physx@@@physx@@IEAAPEAUExpandPoint@local@@I@Z 000000018019f270 f i GuCookingQuickHullConvexHullLib.obj
 0001:0019e300       ?allocate@?$PxArray@VPxPlane@physx@@V?$PxReflectionAllocator@VPxPlane@physx@@@2@@physx@@IEAAPEAVPxPlane@2@I@Z 000000018019f300 f i GuCookingQuickHullConvexHullLib.obj
 0001:0019e390       ?buildHull@QuickHull@local@@QEAA?AW4Enum@QuickHullResult@2@XZ 000000018019f390 f   GuCookingQuickHullConvexHullLib.obj
 0001:0019e5e0       ?calculateHorizon@QuickHull@local@@IEAAXAEBV?$PxVec3T@M@physx@@PEAUQuickHullHalfEdge@2@AEAUQuickHullFace@2@AEAV?$PxArray@PEAUQuickHullHalfEdge@local@@V?$PxReflectionAllocator@PEAUQuickHullHalfEdge@local@@@physx@@@4@AEAV?$PxArray@PEAUQuickHullFace@local@@V?$PxReflectionAllocator@PEAUQuickHullFace@local@@@physx@@@4@@Z 000000018019f5e0 f   GuCookingQuickHullConvexHullLib.obj
 0001:0019e790       ?canMergeFaces@QuickHull@local@@IEAA_NAEBUQuickHullHalfEdge@2@@Z 000000018019f790 f   GuCookingQuickHullConvexHullLib.obj
 0001:0019efd0       ?cleanupForSimplex@QuickHullConvexHullLib@physx@@IEAA_NPEAV?$PxVec3T@M@2@IPEAUQuickHullVertex@local@@1AEAM2@Z 000000018019ffd0 f   GuCookingQuickHullConvexHullLib.obj
 0001:0019fc20       ?computeMinMaxVerts@QuickHull@local@@IEAAXXZ 00000001801a0c20 f   GuCookingQuickHullConvexHullLib.obj
 0001:0019fff0       ?connectHalfEdges@QuickHullFace@local@@AEAAPEAU12@PEAUQuickHullHalfEdge@2@0@Z 00000001801a0ff0 f   GuCookingQuickHullConvexHullLib.obj
 0001:001a0360       ?copy@?$PxArray@UExpandPoint@local@@V?$PxReflectionAllocator@UExpandPoint@local@@@physx@@@physx@@KAXPEAUExpandPoint@local@@0PEBU34@@Z 00000001801a1360 f i GuCookingQuickHullConvexHullLib.obj
 0001:001a0410       ?copy@?$PxArray@VPxPlane@physx@@V?$PxReflectionAllocator@VPxPlane@physx@@@2@@physx@@KAXPEAVPxPlane@2@0PEBV32@@Z 00000001801a1410 f i GuCookingQuickHullConvexHullLib.obj
 0001:001a0510       ?createConvexHull@QuickHullConvexHullLib@physx@@UEAA?AW4Enum@PxConvexMeshCookingResult@2@XZ 00000001801a1510 f   GuCookingQuickHullConvexHullLib.obj
 0001:001a0920       ?createEdgeList@QuickHullConvexHullLib@physx@@UEAA_NIPEBEPEAPEAEPEAPEAG2@Z 00000001801a1920 f   GuCookingQuickHullConvexHullLib.obj
 0001:001a0b40       ?createTriangle@QuickHull@local@@IEAAPEAUQuickHullFace@2@AEBUQuickHullVertex@2@00@Z 00000001801a1b40 f   GuCookingQuickHullConvexHullLib.obj
 0001:001a0f10       ?doAdjacentMerge@QuickHull@local@@IEAA_NAEAUQuickHullFace@2@_NAEA_N@Z 00000001801a1f10 f   GuCookingQuickHullConvexHullLib.obj
 0001:001a1260       ?expandHull@QuickHullConvexHullLib@physx@@IEAA?AW4Enum@PxConvexMeshCookingResult@2@XZ 00000001801a2260 f   GuCookingQuickHullConvexHullLib.obj
 0001:001a1ba0       ?expandHullOBB@QuickHullConvexHullLib@physx@@IEAA?AW4Enum@PxConvexMeshCookingResult@2@XZ 00000001801a2ba0 f   GuCookingQuickHullConvexHullLib.obj
 0001:001a1fe0       ?fillConvexMeshDesc@QuickHullConvexHullLib@physx@@UEAAXAEAVPxConvexMeshDesc@2@@Z 00000001801a2fe0 f   GuCookingQuickHullConvexHullLib.obj
 0001:001a2030       ?fillConvexMeshDescFromCroppedHull@QuickHullConvexHullLib@physx@@IEAAXAEAVPxConvexMeshDesc@2@@Z 00000001801a3030 f   GuCookingQuickHullConvexHullLib.obj
 0001:001a2220       ?fillConvexMeshDescFromQuickHull@QuickHullConvexHullLib@physx@@IEAAXAEAVPxConvexMeshDesc@2@@Z 00000001801a3220 f   GuCookingQuickHullConvexHullLib.obj
 0001:001a25a0       ?findSimplex@QuickHull@local@@IEAA_NXZ 00000001801a35a0 f   GuCookingQuickHullConvexHullLib.obj
 0001:001a3240       ?getFreeItem@?$MemBlock@UQuickHullFace@local@@$00@local@@QEAAPEAUQuickHullFace@2@XZ 00000001801a4240 f i GuCookingQuickHullConvexHullLib.obj
 0001:001a3370       ?getFreeItem@?$MemBlock@UQuickHullHalfEdge@local@@$0A@@local@@QEAAPEAUQuickHullHalfEdge@2@XZ 00000001801a4370 f i GuCookingQuickHullConvexHullLib.obj
 0001:001a3440       ?growAndPushBack@?$PxArray@PEAUQuickHullFace@local@@V?$PxReflectionAllocator@PEAUQuickHullFace@local@@@physx@@@physx@@IEAAAEAPEAUQuickHullFace@local@@AEBQEAU34@@Z 00000001801a4440 f i GuCookingQuickHullConvexHullLib.obj
 0001:001a3500       ?growAndPushBack@?$PxArray@PEAUQuickHullHalfEdge@local@@V?$PxReflectionAllocator@PEAUQuickHullHalfEdge@local@@@physx@@@physx@@IEAAAEAPEAUQuickHullHalfEdge@local@@AEBQEAU34@@Z 00000001801a4500 f i GuCookingQuickHullConvexHullLib.obj
 0001:001a35c0       ?growAndPushBack@?$PxArray@PEAUQuickHullVertex@local@@V?$PxReflectionAllocator@PEAUQuickHullVertex@local@@@physx@@@physx@@IEAAAEAPEAUQuickHullVertex@local@@AEBQEAU34@@Z 00000001801a45c0 f i GuCookingQuickHullConvexHullLib.obj
 0001:001a3680       ?growAndPushBack@?$PxArray@UExpandPoint@local@@V?$PxReflectionAllocator@UExpandPoint@local@@@physx@@@physx@@IEAAAEAUExpandPoint@local@@AEBU34@@Z 00000001801a4680 f i GuCookingQuickHullConvexHullLib.obj
 0001:001a3780       ?growAndPushBack@?$PxArray@VPxPlane@physx@@V?$PxReflectionAllocator@VPxPlane@physx@@@2@@physx@@IEAAAEAVPxPlane@2@AEBV32@@Z 00000001801a4780 f i GuCookingQuickHullConvexHullLib.obj
 0001:001a3840       ?init@?$MemBlock@UQuickHullFace@local@@$00@local@@QEAAXI@Z 00000001801a4840 f i GuCookingQuickHullConvexHullLib.obj
 0001:001a3940       ?init@?$MemBlock@UQuickHullHalfEdge@local@@$0A@@local@@QEAAXI@Z 00000001801a4940 f i GuCookingQuickHullConvexHullLib.obj
 0001:001a39e0       ?mergeAdjacentFace@QuickHullFace@local@@QEAA_NPEAUQuickHullHalfEdge@2@AEAV?$PxArray@PEAUQuickHullFace@local@@V?$PxReflectionAllocator@PEAUQuickHullFace@local@@@physx@@@physx@@@Z 00000001801a49e0 f   GuCookingQuickHullConvexHullLib.obj
 0001:001a3e40       ?nextPointToAdd@QuickHull@local@@IEAAPEAUQuickHullVertex@2@AEAPEAUQuickHullFace@2@@Z 00000001801a4e40 f   GuCookingQuickHullConvexHullLib.obj
 0001:001a3fc0       ?parseInputVertices@QuickHull@local@@QEAAXPEBV?$PxVec3T@M@physx@@I@Z 00000001801a4fc0 f   GuCookingQuickHullConvexHullLib.obj
 0001:001a4140       ?postMergeHull@QuickHull@local@@IEAAXXZ 00000001801a5140 f   GuCookingQuickHullConvexHullLib.obj
 0001:001a43a0       ?preallocate@QuickHull@local@@QEAAXI@Z 00000001801a53a0 f   GuCookingQuickHullConvexHullLib.obj
 0001:001a44e0       ?recreate@?$PxArray@PEAUQuickHullFace@local@@V?$PxReflectionAllocator@PEAUQuickHullFace@local@@@physx@@@physx@@IEAAXI@Z 00000001801a54e0 f i GuCookingQuickHullConvexHullLib.obj
 0001:001a4580       ?recreate@?$PxArray@PEAUQuickHullHalfEdge@local@@V?$PxReflectionAllocator@PEAUQuickHullHalfEdge@local@@@physx@@@physx@@IEAAXI@Z 00000001801a5580 f i GuCookingQuickHullConvexHullLib.obj
 0001:001a4620       ?recreate@?$PxArray@PEAUQuickHullVertex@local@@V?$PxReflectionAllocator@PEAUQuickHullVertex@local@@@physx@@@physx@@IEAAXI@Z 00000001801a5620 f i GuCookingQuickHullConvexHullLib.obj
 0001:001a46c0       ?recreate@?$PxArray@UExpandPoint@local@@V?$PxReflectionAllocator@UExpandPoint@local@@@physx@@@physx@@IEAAXI@Z 00000001801a56c0 f i GuCookingQuickHullConvexHullLib.obj
 0001:001a4750       ?recreate@?$PxArray@VPxPlane@physx@@V?$PxReflectionAllocator@VPxPlane@physx@@@2@@physx@@IEAAXI@Z 00000001801a5750 f i GuCookingQuickHullConvexHullLib.obj
 0001:001a47e0       ?resolveUnclaimedPoints@QuickHull@local@@IEAAXAEBV?$PxArray@PEAUQuickHullFace@local@@V?$PxReflectionAllocator@PEAUQuickHullFace@local@@@physx@@@physx@@@Z 00000001801a57e0 f   GuCookingQuickHullConvexHullLib.obj
 0001:001a4a60       ??$copy@V?$PxReflectionAllocator@VPair@@@physx@@@?$PxArray@VPair@@V?$PxReflectionAllocator@VPair@@@physx@@@physx@@IEAAXAEBV01@@Z 00000001801a5a60 f i GuCookingConvexPolygonsBuilder.obj
 0001:001a4ae0       ??0ConvexPolygonsBuilder@physx@@QEAA@PEAUConvexHullData@Gu@1@_N@Z 00000001801a5ae0 f   GuCookingConvexPolygonsBuilder.obj
 0001:001a4b00       ??1ConvexPolygonsBuilder@physx@@QEAA@XZ 00000001801a5b00 f   GuCookingConvexPolygonsBuilder.obj
 0001:001a5350       ?allocate@?$PxArray@VPair@@V?$PxReflectionAllocator@VPair@@@physx@@@physx@@IEAAPEAVPair@@I@Z 00000001801a6350 f i GuCookingConvexPolygonsBuilder.obj
 0001:001a5e30       ?computeHullPolygons@ConvexPolygonsBuilder@physx@@QEAA_NAEBIPEBV?$PxVec3T@M@2@0PEBI@Z 00000001801a6e30 f   GuCookingConvexPolygonsBuilder.obj
 0001:001a70f0       ?createPolygonData@ConvexPolygonsBuilder@physx@@AEAA_NXZ 00000001801a80f0 f   GuCookingConvexPolygonsBuilder.obj
 0001:001a7b50       ?createTrianglesFromPolygons@ConvexPolygonsBuilder@physx@@AEAA_NXZ 00000001801a8b50 f   GuCookingConvexPolygonsBuilder.obj
 0001:001a91d0       ?growAndPushBack@?$PxArray@VPair@@V?$PxReflectionAllocator@VPair@@@physx@@@physx@@IEAAAEAVPair@@AEBV3@@Z 00000001801aa1d0 f i GuCookingConvexPolygonsBuilder.obj
 0001:001a9360       ??0ConvexMeshBuilder@physx@@QEAA@_N@Z 00000001801aa360 f   GuCookingConvexMeshBuilder.obj
 0001:001a93d0       ??1ConvexMeshBuilder@physx@@QEAA@XZ 00000001801aa3d0 f   GuCookingConvexMeshBuilder.obj
 0001:001a9860       ?build@ConvexMeshBuilder@physx@@QEAA_NAEBVPxConvexMeshDesc@2@I_NPEAVConvexHullLib@2@@Z 00000001801aa860 f   GuCookingConvexMeshBuilder.obj
 0001:001a9bf0       ?checkExtentRadiusRatio@ConvexMeshBuilder@physx@@QEAA_NXZ 00000001801aabf0 f   GuCookingConvexMeshBuilder.obj
 0001:001a9c20       ?computeHullPolygons@ConvexMeshBuilder@physx@@QEAA_NAEBIPEBV?$PxVec3T@M@2@0PEBIAEAVPxAllocatorCallback@2@AEAIAEAPEAV32@4AEAPEAI4AEAPEAUPxHullPolygon@2@@Z 00000001801aac20 f   GuCookingConvexMeshBuilder.obj
 0001:001a9e30       ?computeMassInfo@ConvexMeshBuilder@physx@@QEAAX_N@Z 00000001801aae30 f   GuCookingConvexMeshBuilder.obj
 0001:001aa1c0       ?computeSDF@ConvexMeshBuilder@physx@@QEAAXAEBVPxConvexMeshDesc@2@@Z 00000001801ab1c0 f   GuCookingConvexMeshBuilder.obj
 0001:001aa5d0       ?copy@ConvexMeshBuilder@physx@@QEAA_NAEAUConvexHullInitData@Gu@2@@Z 00000001801ab5d0 f   GuCookingConvexMeshBuilder.obj
 0001:001aa730       ?loadConvexHull@ConvexMeshBuilder@physx@@QEAA_NAEBVPxConvexMeshDesc@2@PEAVConvexHullLib@2@@Z 00000001801ab730 f   GuCookingConvexMeshBuilder.obj
 0001:001aa980       ?save@ConvexMeshBuilder@physx@@QEBA_NAEAVPxOutputStream@2@_N@Z 00000001801ab980 f   GuCookingConvexMeshBuilder.obj
 0001:001aada0       ??0ConvexHull@physx@@QEAA@AEBV?$PxVec3T@M@1@AEBV?$PxTransformT@M@1@AEBV?$PxArray@VPxPlane@physx@@V?$PxReflectionAllocator@VPxPlane@physx@@@2@@1@@Z 00000001801abda0 f   GuCookingConvexHullUtils.obj
 0001:001abec0       ?allocate@?$PxArray@VHalfEdge@ConvexHull@physx@@V?$PxReflectionAllocator@VHalfEdge@ConvexHull@physx@@@3@@physx@@IEAAPEAVHalfEdge@ConvexHull@2@I@Z 00000001801acec0 f i GuCookingConvexHullUtils.obj
 0001:001abf50       ?assertIntact@ConvexHull@physx@@QEBA_NM@Z 00000001801acf50 f   GuCookingConvexHullUtils.obj
 0001:001ac270       ?computeOBBFromConvex@physx@@YA_NAEBVPxConvexMeshDesc@1@AEAV?$PxVec3T@M@1@AEAV?$PxTransformT@M@1@@Z 00000001801ad270 f   GuCookingConvexHullUtils.obj
 0001:001ac8d0       ?computeOBBSIMD@local@@YAXIPEBT__m128@@AEAT2@AEBT2@1@Z 00000001801ad8d0 f   GuCookingConvexHullUtils.obj
 0001:001acc80       ?convexHullCrop@physx@@YAPEAVConvexHull@1@AEBV21@AEBVPxPlane@1@M@Z 00000001801adc80 f   GuCookingConvexHullUtils.obj
 0001:001ada80       ?findCandidatePlane@ConvexHull@physx@@QEBAHMM@Z 00000001801aea80 f   GuCookingConvexHullUtils.obj
 0001:001aded0       ?growAndPushBack@?$PxArray@VHalfEdge@ConvexHull@physx@@V?$PxReflectionAllocator@VHalfEdge@ConvexHull@physx@@@3@@physx@@IEAAAEAVHalfEdge@ConvexHull@2@AEBV342@@Z 00000001801aeed0 f i GuCookingConvexHullUtils.obj
 0001:001adf90       ?maxNumVertsPerFace@ConvexHull@physx@@QEBAIXZ 00000001801aef90 f   GuCookingConvexHullUtils.obj
 0001:001ae000       ?recreate@?$PxArray@VHalfEdge@ConvexHull@physx@@V?$PxReflectionAllocator@VHalfEdge@ConvexHull@physx@@@3@@physx@@IEAAXI@Z 00000001801af000 f i GuCookingConvexHullUtils.obj
 0001:001ae0a0       ?resize@?$PxArray@VHalfEdge@ConvexHull@physx@@V?$PxReflectionAllocator@VHalfEdge@ConvexHull@physx@@@3@@physx@@QEAAXIAEBVHalfEdge@ConvexHull@2@@Z 00000001801af0a0 f i GuCookingConvexHullUtils.obj
 0001:001ae160       ?resize@?$PxArray@VPxPlane@physx@@V?$PxReflectionAllocator@VPxPlane@physx@@@2@@physx@@QEAAXIAEBVPxPlane@2@@Z 00000001801af160 f i GuCookingConvexHullUtils.obj
 0001:001ae280       ??1ConvexHullLib@physx@@UEAA@XZ 00000001801af280 f   GuCookingConvexHullLib.obj
 0001:001ae870       ?cleanupVertices@ConvexHullLib@physx@@IEAA_NIPEBV?$PxVec3T@M@2@IAEAIPEAV32@@Z 00000001801af870 f   GuCookingConvexHullLib.obj
 0001:001ae9b0       ?shiftAndcleanupVertices@ConvexHullLib@physx@@IEAA_NIPEBV?$PxVec3T@M@2@IAEAIPEAV32@@Z 00000001801af9b0 f   GuCookingConvexHullLib.obj
 0001:001aef90       ?shiftConvexMeshDesc@ConvexHullLib@physx@@IEAAXAEAVPxConvexMeshDesc@2@@Z 00000001801aff90 f   GuCookingConvexHullLib.obj
 0001:001af050       ?swapLargestFace@ConvexHullLib@physx@@IEAAXAEAVPxConvexMeshDesc@2@@Z 00000001801b0050 f   GuCookingConvexHullLib.obj
 0001:001af280       ??0ConvexHullBuilder@physx@@QEAA@PEAUConvexHullData@Gu@1@_N@Z 00000001801b0280 f   GuCookingConvexHullBuilder.obj
 0001:001af2b0       ??1ConvexHullBuilder@physx@@QEAA@XZ 00000001801b02b0 f   GuCookingConvexHullBuilder.obj
 0001:001af3c0       ?calculateVertexMapTable@ConvexHullBuilder@physx@@QEAA_NI_N@Z 00000001801b03c0 f   GuCookingConvexHullBuilder.obj
 0001:001af580       ?checkHullPolygons@ConvexHullBuilder@physx@@QEBA_NXZ 00000001801b0580 f   GuCookingConvexHullBuilder.obj
 0001:001afb40       ?copy@ConvexHullBuilder@physx@@QEAA_NAEAUConvexHullData@Gu@2@AEAI@Z 00000001801b0b40 f   GuCookingConvexHullBuilder.obj
 0001:001afdb0       ?createEdgeList@ConvexHullBuilder@physx@@QEAA_N_NI@Z 00000001801b0db0 f   GuCookingConvexHullBuilder.obj
 0001:001b04f0       ?init@ConvexHullBuilder@physx@@QEAA_NIPEBV?$PxVec3T@M@2@PEBIIIPEBUPxHullPolygon@2@_NPEAVConvexHullLib@2@@Z 00000001801b14f0 f   GuCookingConvexHullBuilder.obj
 0001:001b0e30       ?save@ConvexHullBuilder@physx@@QEBA_NAEAVPxOutputStream@2@_N@Z 00000001801b1e30 f   GuCookingConvexHullBuilder.obj
 0001:001b1150       ??0BigConvexDataBuilder@physx@@QEAA@PEBUConvexHullData@Gu@1@PEAVBigConvexData@1@PEBV?$PxVec3T@M@1@@Z 00000001801b2150 f   GuCookingBigConvexDataBuilder.obj
 0001:001b1160       ?computeValencies@BigConvexDataBuilder@physx@@QEAA_NAEBVConvexHullBuilder@2@@Z 00000001801b2160 f   GuCookingBigConvexDataBuilder.obj
 0001:001b1550       ?precompute@BigConvexDataBuilder@physx@@QEAA_NI@Z 00000001801b2550 f   GuCookingBigConvexDataBuilder.obj
 0001:001b2140       ?save@BigConvexDataBuilder@physx@@QEBA_NAEAVPxOutputStream@2@_N@Z 00000001801b3140 f   GuCookingBigConvexDataBuilder.obj
 0001:001b232e       __imp_load_PxGetFoundation 00000001801b332e f   PhysXFoundation_64:PhysXFoundation_64.dll
 0001:001b233a       __tailMerge_physxfoundation_64_dll 00000001801b333a     PhysXFoundation_64:PhysXFoundation_64.dll
 0001:001b23b3       __imp_load_PxGetBroadcastAllocator 00000001801b33b3 f   PhysXFoundation_64:PhysXFoundation_64.dll
 0001:001b23bf       __imp_load_?PxAtomicIncrement@physx@@YAHPECH@Z 00000001801b33bf f   PhysXFoundation_64:PhysXFoundation_64.dll
 0001:001b23cb       __imp_load_??0PxMutexImpl@physx@@QEAA@XZ 00000001801b33cb f   PhysXFoundation_64:PhysXFoundation_64.dll
 0001:001b23d7       __imp_load_??1PxMutexImpl@physx@@QEAA@XZ 00000001801b33d7 f   PhysXFoundation_64:PhysXFoundation_64.dll
 0001:001b23e3       __imp_load_?lock@PxMutexImpl@physx@@QEAAXXZ 00000001801b33e3 f   PhysXFoundation_64:PhysXFoundation_64.dll
 0001:001b23ef       __imp_load_?unlock@PxMutexImpl@physx@@QEAAXXZ 00000001801b33ef f   PhysXFoundation_64:PhysXFoundation_64.dll
 0001:001b23fb       __imp_load_?getSize@PxMutexImpl@physx@@SAIXZ 00000001801b33fb f   PhysXFoundation_64:PhysXFoundation_64.dll
 0001:001b2407       __imp_load_?PxAtomicDecrement@physx@@YAHPECH@Z 00000001801b3407 f   PhysXFoundation_64:PhysXFoundation_64.dll
 0001:001b2413       __imp_load_?PxTransformFromSegment@physx@@YA?AV?$PxTransformT@M@1@AEBV?$PxVec3T@M@1@0PEAM@Z 00000001801b3413 f   PhysXFoundation_64:PhysXFoundation_64.dll
 0001:001b241f       __imp_load_?PxAtomicAdd@physx@@YAHPECHH@Z 00000001801b341f f   PhysXFoundation_64:PhysXFoundation_64.dll
 0001:001b242b       __imp_load_?getDefaultStackSize@PxThreadImpl@physx@@SAIXZ 00000001801b342b f   PhysXFoundation_64:PhysXFoundation_64.dll
 0001:001b2437       __imp_load_??0PxThreadImpl@physx@@QEAA@P6APEAXPEAX@Z0PEBD@Z 00000001801b3437 f   PhysXFoundation_64:PhysXFoundation_64.dll
 0001:001b2443       __imp_load_??1PxThreadImpl@physx@@QEAA@XZ 00000001801b3443 f   PhysXFoundation_64:PhysXFoundation_64.dll
 0001:001b244f       __imp_load_?start@PxThreadImpl@physx@@QEAAXIPEAVPxRunnable@2@@Z 00000001801b344f f   PhysXFoundation_64:PhysXFoundation_64.dll
 0001:001b245b       __imp_load_?waitForQuit@PxThreadImpl@physx@@QEAA_NXZ 00000001801b345b f   PhysXFoundation_64:PhysXFoundation_64.dll
 0001:001b2467       __imp_load_?getSize@PxThreadImpl@physx@@SAIXZ 00000001801b3467 f   PhysXFoundation_64:PhysXFoundation_64.dll
 0001:001b2473       __imp_load_?allocate@PxTempAllocator@physx@@QEAAPEAX_KPEBDH@Z 00000001801b3473 f   PhysXFoundation_64:PhysXFoundation_64.dll
 0001:001b247f       __imp_load_?deallocate@PxTempAllocator@physx@@QEAAXPEAX@Z 00000001801b347f f   PhysXFoundation_64:PhysXFoundation_64.dll
 0001:001b248b       __imp_load_?PxOptimizeBoundingBox@physx@@YA?AV?$PxVec3T@M@1@AEAV?$PxMat33T@M@1@@Z 00000001801b348b f   PhysXFoundation_64:PhysXFoundation_64.dll
 0001:001b2497       __imp_load_?Pxstrcmp@physx@@YAHPEBD0@Z 00000001801b3497 f   PhysXFoundation_64:PhysXFoundation_64.dll
 0001:001b24a3       __imp_load_??0PxFPUGuard@physx@@QEAA@XZ 00000001801b34a3 f   PhysXFoundation_64:PhysXFoundation_64.dll
 0001:001b24af       __imp_load_??1PxFPUGuard@physx@@QEAA@XZ 00000001801b34af f   PhysXFoundation_64:PhysXFoundation_64.dll
 0001:001b24bb       __imp_load_?PxDiagonalize@physx@@YA?AV?$PxVec3T@M@1@AEBV?$PxMat33T@M@1@AEAV?$PxQuatT@M@1@@Z 00000001801b34bb f   PhysXFoundation_64:PhysXFoundation_64.dll
 0001:001b24c8       ?DloadAcquireSectionWriteAccess@@YAXXZ 00000001801b34c8 f i Delayimp:delayhlp.obj
 0001:001b2574       ?DloadGetSRWLockFunctionPointers@@YAEXZ 00000001801b3574 f i Delayimp:delayhlp.obj
 0001:001b2614       ?DloadMakePermanentImageCommit@@YAXPEAX_K@Z 00000001801b3614 f i Delayimp:delayhlp.obj
 0001:001b26ac       ?DloadObtainSection@@YAPEAXPEAK0@Z 00000001801b36ac f i Delayimp:delayhlp.obj
 0001:001b2748       ?DloadProtectSection@@YAXKPEAK@Z 00000001801b3748 f i Delayimp:delayhlp.obj
 0001:001b27d8       ?DloadReleaseSectionWriteAccess@@YAXXZ 00000001801b37d8 f i Delayimp:delayhlp.obj
 0001:001b286c       __delayLoadHelper2         00000001801b386c f   Delayimp:delayhlp.obj
 0001:001b2b44       ??3@YAXPEAX_K@Z            00000001801b3b44 f   LIBCMT:delete_scalar_size.obj
 0001:001b2b44       ??_V@YAXPEAX@Z             00000001801b3b44 f   LIBCMT:delete_array.obj
 0001:001b2b4c       ??_Etype_info@@UEAAPEAXI@Z 00000001801b3b4c f i LIBCMT:std_type_info_static.obj
 0001:001b2b4c       ??_Gtype_info@@UEAAPEAXI@Z 00000001801b3b4c f i LIBCMT:std_type_info_static.obj
 0001:001b2b78       ?__scrt_initialize_type_info@@YAXXZ 00000001801b3b78 f   LIBCMT:tncleanup.obj
 0001:001b2b88       ?__scrt_uninitialize_type_info@@YAXXZ 00000001801b3b88 f   LIBCMT:tncleanup.obj
 0001:001b2bb0       __chkstk                   00000001801b3bb0 f   LIBCMT:chkstk.obj
 0001:001b2bb0       _alloca_probe              00000001801b3bb0 f   LIBCMT:chkstk.obj
 0001:001b2c00       __vdecl_sinf4              00000001801b3c00 f   LIBCMT:svml_ssinf4_dispatch.obj
 0001:001b2c20       __libm_sse2_sincosf_       00000001801b3c20 f   LIBCMT:svml_ssinf4_dispatch.obj
 0001:001b2c63       __libm_sse2_sincosf4_      00000001801b3c63 f   LIBCMT:svml_ssinf4_dispatch.obj
 0001:001b2c70       ??3@YAXPEAX@Z              00000001801b3c70 f   LIBCMT:delete_scalar.obj
 0001:001b2c78       __scrt_acquire_startup_lock 00000001801b3c78 f   LIBCMT:utility.obj
 0001:001b2cb4       __scrt_dllmain_after_initialize_c 00000001801b3cb4 f   LIBCMT:utility.obj
 0001:001b2ce8       __scrt_dllmain_before_initialize_c 00000001801b3ce8 f   LIBCMT:utility.obj
 0001:001b2d00       __scrt_dllmain_crt_thread_attach 00000001801b3d00 f   LIBCMT:utility.obj
 0001:001b2d28       __scrt_dllmain_crt_thread_detach 00000001801b3d28 f   LIBCMT:utility.obj
 0001:001b2d40       __scrt_dllmain_exception_filter 00000001801b3d40 f   LIBCMT:utility.obj
 0001:001b2da0       __scrt_dllmain_uninitialize_c 00000001801b3da0 f   LIBCMT:utility.obj
 0001:001b2dd0       __scrt_dllmain_uninitialize_critical 00000001801b3dd0 f   LIBCMT:utility.obj
 0001:001b2de4       __scrt_initialize_crt      00000001801b3de4 f   LIBCMT:utility.obj
 0001:001b2e30       __scrt_initialize_onexit_tables 00000001801b3e30 f   LIBCMT:utility.obj
 0001:001b2ebc       __scrt_is_nonwritable_in_current_image 00000001801b3ebc f   LIBCMT:utility.obj
 0001:001b2f54       __scrt_release_startup_lock 00000001801b3f54 f   LIBCMT:utility.obj
 0001:001b2f78       __scrt_uninitialize_crt    00000001801b3f78 f   LIBCMT:utility.obj
 0001:001b2fa4       _onexit                    00000001801b3fa4 f   LIBCMT:utility.obj
 0001:001b2fe0       atexit                     00000001801b3fe0 f   LIBCMT:utility.obj
 0001:001b2ff8       __isa_available_init       00000001801b3ff8 f   LIBCMT:cpu_disp.obj
 0001:001b34c4       _DllMainCRTStartup         00000001801b44c4 f   LIBCMT:dll_dllmain.obj
 0001:001b3510       __sse2_sinf4@@16           00000001801b4510 f   LIBCMT:svml_ssinf4_sse2.obj
 0001:001b3e50       __sse4_sinf4@@16           00000001801b4e50 f   LIBCMT:svml_ssinf4_sse4.obj
 0001:001b45c4       __scrt_is_ucrt_dll_in_use  00000001801b55c4 f   LIBCMT:ucrt_detection.obj
 0001:001b45d0       __crt_debugger_hook        00000001801b55d0 f   LIBCMT:utility_desktop.obj
 0001:001b45d8       __scrt_fastfail            00000001801b55d8 f   LIBCMT:utility_desktop.obj
 0001:001b4724       __security_init_cookie     00000001801b5724 f   LIBCMT:gs_support.obj
 0001:001b47d0       __local_stdio_scanf_options 00000001801b57d0 f i LIBCMT:default_local_stdio_options.obj
 0001:001b47d8       __scrt_initialize_default_local_stdio_options 00000001801b57d8 f   LIBCMT:default_local_stdio_options.obj
 0001:001b47f4       __scrt_get_dyn_tls_init_callback 00000001801b57f4 f   LIBCMT:dyn_tls_init.obj
 0001:001b47fc       _RTC_Initialize            00000001801b57fc f   LIBCMT:initsect.obj
 0001:001b4838       _RTC_Terminate             00000001801b5838 f   LIBCMT:initsect.obj
 0001:001b4880       __common_ssin_cout_rare    00000001801b5880 f   LIBCMT:svml_s_sin_cout.obj
 0001:001b4900       memcpy_repmovs             00000001801b5900 f   libvcruntime:memcpy.obj
 0001:001b4920       memcpy                     00000001801b5920 f   libvcruntime:memcpy.obj
 0001:001b4920       memmove                    00000001801b5920 f   libvcruntime:memcpy.obj
 0001:001b4f98       _get_purecall_handler      00000001801b5f98 f   libvcruntime:purevirt.obj
 0001:001b4fa4       _purecall                  00000001801b5fa4 f   libvcruntime:purevirt.obj
 0001:001b4fc8       __std_type_info_compare    00000001801b5fc8 f   libvcruntime:std_type_info.obj
 0001:001b4ff0       __std_type_info_destroy_list 00000001801b5ff0 f   libvcruntime:std_type_info.obj
 0001:001b501c       __std_type_info_name       00000001801b601c f   libvcruntime:std_type_info.obj
 0001:001b5150       memset_repstos             00000001801b6150 f   libvcruntime:memset.obj
 0001:001b5170       memset                     00000001801b6170 f   libvcruntime:memset.obj
 0001:001b54f8       strstr                     00000001801b64f8 f   libvcruntime:strstr.obj
 0001:001b56f0       __vcrt_initialize          00000001801b66f0 f   libvcruntime:initialization.obj
 0001:001b5718       __vcrt_thread_attach       00000001801b6718 f   libvcruntime:initialization.obj
 0001:001b572c       __vcrt_thread_detach       00000001801b672c f   libvcruntime:initialization.obj
 0001:001b5740       __vcrt_uninitialize        00000001801b6740 f   libvcruntime:initialization.obj
 0001:001b575c       __vcrt_uninitialize_critical 00000001801b675c f   libvcruntime:initialization.obj
 0001:001b576c       __C_specific_handler       00000001801b676c f   libvcruntime:riscchandler.obj
 0001:001b5964       __DestructExceptionObject  00000001801b6964 f   libvcruntime:ehhelpers.obj
 0001:001b59d4       ?_CallMemberFunction0@@YAXQEAX0@Z 00000001801b69d4 f i libvcruntime:ehhelpers.obj
 0001:001b59d8       _IsExceptionObjectToBeDestroyed 00000001801b69d8 f   libvcruntime:ehhelpers.obj
 0001:001b5a08       __AdjustPointer            00000001801b6a08 f   libvcruntime:ehhelpers.obj
 0001:001b5a2c       __FrameUnwindFilter        00000001801b6a2c f   libvcruntime:ehhelpers.obj
 0001:001b5a94       __std_terminate            00000001801b6a94 f   libvcruntime:ehhelpers.obj
 0001:001b5aa0       ??$?0$00@DName@@QEAA@PEBDU?$StringLifeSelector@$00@@@Z 00000001801b6aa0 f i libvcruntime:undname.obj
 0001:001b5ae0       ??$?0$01@DName@@QEAA@PEBDU?$StringLifeSelector@$01@@@Z 00000001801b6ae0 f i libvcruntime:undname.obj
 0001:001b5ae0       ??$?0$0A@@DName@@QEAA@PEBDU?$StringLifeSelector@$0A@@@@Z 00000001801b6ae0 f i libvcruntime:undname.obj
 0001:001b5b20       ??$?0$01@pcharNode@@QEAA@PEBDHU?$StringLifeSelector@$01@@@Z 00000001801b6b20 f i libvcruntime:undname.obj
 0001:001b5b20       ??$?0$0A@@pcharNode@@QEAA@PEBDHU?$StringLifeSelector@$0A@@@@Z 00000001801b6b20 f i libvcruntime:undname.obj
 0001:001b5b94       ??$append@VDNameNode@@@DName@@AEAAXPEBVDNameNode@@@Z 00000001801b6b94 f i libvcruntime:undname.obj
 0001:001b5b94       ??$append@VDNameStatusNode@@@DName@@AEAAXPEBVDNameStatusNode@@@Z 00000001801b6b94 f i libvcruntime:undname.obj
 0001:001b5b94       ??$append@VcharNode@@@DName@@AEAAXPEBVcharNode@@@Z 00000001801b6b94 f i libvcruntime:undname.obj
 0001:001b5b94       ??$append@VpcharNode@@@DName@@AEAAXPEBVpcharNode@@@Z 00000001801b6b94 f i libvcruntime:undname.obj
 0001:001b5bf8       ??$doPchar@$00@DName@@AEAAXPEBDH@Z 00000001801b6bf8 f i libvcruntime:undname.obj
 0001:001b5c9c       ??$doPchar@$01@DName@@AEAAXPEBDH@Z 00000001801b6c9c f i libvcruntime:undname.obj
 0001:001b5c9c       ??$doPchar@$0A@@DName@@AEAAXPEBDH@Z 00000001801b6c9c f i libvcruntime:undname.obj
 0001:001b5d34       ??0DName@@QEAA@AEAPEBDD@Z  00000001801b6d34 f   libvcruntime:undname.obj
 0001:001b5de4       ??0DName@@QEAA@AEBUStringLiteral@@@Z 00000001801b6de4 f   libvcruntime:undname.obj
 0001:001b5e10       ??0DName@@QEAA@PEAV0@@Z    00000001801b6e10 f   libvcruntime:undname.obj
 0001:001b5e94       ??0DName@@QEAA@_J@Z        00000001801b6e94 f   libvcruntime:undname.obj
 0001:001b5f3c       ??0DName@@QEAA@_K@Z        00000001801b6f3c f   libvcruntime:undname.obj
 0001:001b5fcc       ??2@YAPEAX_KAEAV_HeapManager@@H@Z 00000001801b6fcc f   libvcruntime:undname.obj
 0001:001b5ff8       ??4DName@@QEAAAEAV0@W4DNameStatus@@@Z 00000001801b6ff8 f   libvcruntime:undname.obj
 0001:001b6028       ??AReplicator@@QEBA?AVDName@@H@Z 00000001801b7028 f   libvcruntime:undname.obj
 0001:001b6068       ??HDName@@QEBA?AV0@AEBUStringLiteral@@@Z 00000001801b7068 f   libvcruntime:undname.obj
 0001:001b6094       ??HDName@@QEBA?AV0@AEBV0@@Z 00000001801b7094 f   libvcruntime:undname.obj
 0001:001b60c0       ??HDName@@QEBA?AV0@D@Z     00000001801b70c0 f   libvcruntime:undname.obj
 0001:001b60ec       ??HDName@@QEBA?AV0@W4DNameStatus@@@Z 00000001801b70ec f   libvcruntime:undname.obj
 0001:001b6118       ??YDName@@QEAAAEAV0@AEBUStringLiteral@@@Z 00000001801b7118 f   libvcruntime:undname.obj
 0001:001b6198       ??YDName@@QEAAAEAV0@AEBV0@@Z 00000001801b7198 f   libvcruntime:undname.obj
 0001:001b61f0       ??YDName@@QEAAAEAV0@D@Z    00000001801b71f0 f   libvcruntime:undname.obj
 0001:001b625c       ??YDName@@QEAAAEAV0@W4DNameStatus@@@Z 00000001801b725c f   libvcruntime:undname.obj
 0001:001b62b4       ??YReplicator@@QEAAAEAV0@AEBVDName@@@Z 00000001801b72b4 f   libvcruntime:undname.obj
 0001:001b630c       ?UScore@UnDecorator@@SA?AUStringLiteral@@W4Tokens@@@Z 00000001801b730c f   libvcruntime:undname.obj
 0001:001b6358       ?composeDeclaration@UnDecorator@@CA?AVDName@@AEBV2@@Z 00000001801b7358 f i libvcruntime:undname.obj
 0001:001b724c       ?doPchar@DName@@AEAAXD@Z   00000001801b824c f   libvcruntime:undname.obj
 0001:001b729c       ?getAddressOf@UnDecorator@@CA?AVDName@@XZ 00000001801b829c f   libvcruntime:undname.obj
 0001:001b732c       ?getArgumentList@UnDecorator@@CA?AVDName@@XZ 00000001801b832c f   libvcruntime:undname.obj
 0001:001b74e0       ?getArgumentTypes@UnDecorator@@CA?AVDName@@XZ 00000001801b84e0 f   libvcruntime:undname.obj
 0001:001b762c       ?getArrayAccess@UnDecorator@@CA?AVDName@@XZ 00000001801b862c f   libvcruntime:undname.obj
 0001:001b76c8       ?getArrayObject@UnDecorator@@CA?AVDName@@XZ 00000001801b86c8 f   libvcruntime:undname.obj
 0001:001b7784       ?getArrayType@UnDecorator@@CA?AVDName@@AEBV2@@Z 00000001801b8784 f i libvcruntime:undname.obj
 0001:001b79cc       ?getBasedType@UnDecorator@@CA?AVDName@@XZ 00000001801b89cc f   libvcruntime:undname.obj
 0001:001b7ac4       ?getBasicDataType@UnDecorator@@CA?AVDName@@AEBV2@@Z 00000001801b8ac4 f   libvcruntime:undname.obj
 0001:001b80c8       ?getCallingConvention@UnDecorator@@CA?AVDName@@XZ 00000001801b90c8 f   libvcruntime:undname.obj
 0001:001b8200       ?getDataIndirectType@UnDecorator@@CA?AVDName@@AEBV2@W4IndirectionKind@@0H@Z 00000001801b9200 f   libvcruntime:undname.obj
 0001:001b8b24       ?getDataType@UnDecorator@@CA?AVDName@@PEAV2@@Z 00000001801b9b24 f   libvcruntime:undname.obj
 0001:001b8c38       ?getDecoratedName@UnDecorator@@CA?AVDName@@XZ 00000001801b9c38 f   libvcruntime:undname.obj
 0001:001b8f20       ?getDimension@UnDecorator@@CA?AVDName@@_N@Z 00000001801b9f20 f   libvcruntime:undname.obj
 0001:001b9068       ?getDispatchTarget@UnDecorator@@CA?AVDName@@XZ 00000001801ba068 f   libvcruntime:undname.obj
 0001:001b90c8       ?getECSUDataType@UnDecorator@@CA?AVDName@@XZ 00000001801ba0c8 f   libvcruntime:undname.obj
 0001:001b92c4       ?getEnumType@UnDecorator@@CA?AVDName@@XZ 00000001801ba2c4 f i libvcruntime:undname.obj
 0001:001b93f4       ?getExtendedDataIndirectType@UnDecorator@@CA?AVDName@@AEAW4IndirectionKind@@AEA_NH@Z 00000001801ba3f4 f   libvcruntime:undname.obj
 0001:001b95f8       ?getExternalDataType@UnDecorator@@CA?AVDName@@AEBV2@@Z 00000001801ba5f8 f i libvcruntime:undname.obj
 0001:001b96b8       ?getFloatingPoint@UnDecorator@@CA?AVDName@@H@Z 00000001801ba6b8 f   libvcruntime:undname.obj
 0001:001b9820       ?getFunctionIndirectType@UnDecorator@@CA?AVDName@@AEBV2@@Z 00000001801ba820 f   libvcruntime:undname.obj
 0001:001b9d54       ?getLastChar@DNameStatusNode@@UEBADXZ 00000001801bad54 f i libvcruntime:undname.obj
 0001:001b9d60       ?getLastChar@charNode@@UEBADXZ 00000001801bad60 f i libvcruntime:undname.obj
 0001:001b9d64       ?getLastChar@pDNameNode@@UEBADXZ 00000001801bad64 f i libvcruntime:undname.obj
 0001:001b9d90       ?getLastChar@pairNode@@UEBADXZ 00000001801bad90 f i libvcruntime:undname.obj
 0001:001b9dc8       ?getLastChar@pcharNode@@UEBADXZ 00000001801badc8 f i libvcruntime:undname.obj
 0001:001b9ddc       ?getLexicalFrame@UnDecorator@@CA?AVDName@@XZ 00000001801baddc f i libvcruntime:undname.obj
 0001:001b9e40       ?getMemberAccess@UnDecorator@@CA?AVDName@@XZ 00000001801bae40 f   libvcruntime:undname.obj
 0001:001b9ed4       ?getMemoryWithBuffer@_HeapManager@@QEAAPEAX_K@Z 00000001801baed4 f   libvcruntime:undname.obj
 0001:001b9f64       ?getNoexcept@UnDecorator@@CA?AVDName@@XZ 00000001801baf64 f   libvcruntime:undname.obj
 0001:001b9fc8       ?getNumberOfDimensions@UnDecorator@@CAHXZ 00000001801bafc8 f   libvcruntime:undname.obj
 0001:001ba030       ?getOperatorName@UnDecorator@@CA?AVDName@@_NPEA_N@Z 00000001801bb030 f i libvcruntime:undname.obj
 0001:001ba9e0       ?getPointerToMember@UnDecorator@@CA?AVDName@@XZ 00000001801bb9e0 f   libvcruntime:undname.obj
 0001:001baad8       ?getPrimaryDataType@UnDecorator@@CA?AVDName@@AEBV2@@Z 00000001801bbad8 f   libvcruntime:undname.obj
 0001:001bad90       ?getPtrRefDataType@UnDecorator@@CA?AVDName@@AEBV2@H@Z 00000001801bbd90 f   libvcruntime:undname.obj
 0001:001baf5c       ?getPtrRefType@UnDecorator@@CA?AVDName@@AEBV2@0W4IndirectionKind@@@Z 00000001801bbf5c f   libvcruntime:undname.obj
 0001:001bb134       ?getRestrictionSpec@UnDecorator@@CA?AVDName@@XZ 00000001801bc134 f   libvcruntime:undname.obj
 0001:001bb310       ?getReturnType@UnDecorator@@CA?AVDName@@PEAV2@@Z 00000001801bc310 f   libvcruntime:undname.obj
 0001:001bb344       ?getScope@UnDecorator@@CA?AVDName@@XZ 00000001801bc344 f   libvcruntime:undname.obj
 0001:001bb800       ?getScopedName@UnDecorator@@CA?AVDName@@XZ 00000001801bc800 f   libvcruntime:undname.obj
 0001:001bb940       ?getSignedDimension@UnDecorator@@CA?AVDName@@XZ 00000001801bc940 f   libvcruntime:undname.obj
 0001:001bb9c8       ?getString@DNameStatusNode@@UEBAPEADPEAD0@Z 00000001801bc9c8 f i libvcruntime:undname.obj
 0001:001bba10       ?getString@charNode@@UEBAPEADPEAD0@Z 00000001801bca10 f i libvcruntime:undname.obj
 0001:001bba24       ?getString@pDNameNode@@UEBAPEADPEAD0@Z 00000001801bca24 f i libvcruntime:undname.obj
 0001:001bba54       ?getString@pairNode@@UEBAPEADPEAD0@Z 00000001801bca54 f i libvcruntime:undname.obj
 0001:001bbaa0       ?getString@pcharNode@@UEBAPEADPEAD0@Z 00000001801bcaa0 f i libvcruntime:undname.obj
 0001:001bbad8       ?getStringEncoding@UnDecorator@@CA?AVDName@@W4PrefixKind@@H@Z 00000001801bcad8 f   libvcruntime:undname.obj
 0001:001bbbe8       ?getStringObject@UnDecorator@@CA?AVDName@@XZ 00000001801bcbe8 f   libvcruntime:undname.obj
 0001:001bbc50       ?getSymbolName@UnDecorator@@CA?AVDName@@XZ 00000001801bcc50 f i libvcruntime:undname.obj
 0001:001bbc9c       ?getTemplateArgumentList@UnDecorator@@CA?AVDName@@XZ 00000001801bcc9c f   libvcruntime:undname.obj
 0001:001bbeb8       ?getTemplateName@UnDecorator@@CA?AVDName@@_N@Z 00000001801bceb8 f   libvcruntime:undname.obj
 0001:001bc14c       ?getTemplateNonTypeArgument@UnDecorator@@CA?AVDName@@XZ 00000001801bd14c f   libvcruntime:undname.obj
 0001:001bc69c       ?getTemplateTypeArgument@UnDecorator@@CA?AVDName@@XZ 00000001801bd69c f   libvcruntime:undname.obj
 0001:001bc804       ?getThrowTypes@UnDecorator@@CA?AVDName@@XZ 00000001801bd804 f   libvcruntime:undname.obj
 0001:001bc828       ?getTypeEncoding@UnDecorator@@CAHXZ 00000001801bd828 f i libvcruntime:undname.obj
 0001:001bcbe4       ?getUndecoratedName@UnDecorator@@QEAAPEADPEADH@Z 00000001801bdbe4 f i libvcruntime:undname.obj
 0001:001bcd38       ?getUnionObject@UnDecorator@@CA?AVDName@@XZ 00000001801bdd38 f   libvcruntime:undname.obj
 0001:001bce10       ?getVCallThunkType@UnDecorator@@CA?AVDName@@XZ 00000001801bde10 f i libvcruntime:undname.obj
 0001:001bce88       ?getValue@UnDecorator@@CA?AV?$optional@_K@std@@XZ 00000001801bde88 f   libvcruntime:undname.obj
 0001:001bcefc       ?getValueObject@UnDecorator@@CA?AVDName@@XZ 00000001801bdefc f   libvcruntime:undname.obj
 0001:001bd03c       ?getVdispMapType@UnDecorator@@CA?AVDName@@AEBV2@@Z 00000001801be03c f i libvcruntime:undname.obj
 0001:001bd0b8       ?getVfTableType@UnDecorator@@CA?AVDName@@AEBV2@@Z 00000001801be0b8 f i libvcruntime:undname.obj
 0001:001bd2c4       ?getZName@UnDecorator@@CA?AVDName@@_N0@Z 00000001801be2c4 f   libvcruntime:undname.obj
 0001:001bd598       ?length@pDNameNode@@UEBAHXZ 00000001801be598 f i libvcruntime:undname.obj
 0001:001bd5c0       ?length@pairNode@@UEBAHXZ  00000001801be5c0 f i libvcruntime:undname.obj
 0001:001bd608       ?parseDecoratedName@UnDecorator@@CA?AVDName@@XZ 00000001801be608 f   libvcruntime:undname.obj
 0001:001bd720       ?raw_length@pDNameNode@@UEBAHXZ 00000001801be720 f i libvcruntime:undname.obj
 0001:001bd724       ?raw_length@pairNode@@UEBAHXZ 00000001801be724 f i libvcruntime:undname.obj
 0001:001bd728       __unDName                  00000001801be728 f   libvcruntime:undname.obj
 0001:001bd750       __unDNameEx                00000001801be750 f   libvcruntime:undname.obj
 0001:001bd884       snprintf                   00000001801be884 f i libvcruntime:undname.obj
 0001:001bd8dc       sprintf_s                  00000001801be8dc f i libvcruntime:undname.obj
 0001:001bd930       __vcrt_freefls             00000001801be930 f   libvcruntime:per_thread_data.obj
 0001:001bd950       __vcrt_freeptd             00000001801be950 f   libvcruntime:per_thread_data.obj
 0001:001bd9a0       __vcrt_getptd              00000001801be9a0 f   libvcruntime:per_thread_data.obj
 0001:001bd9bc       __vcrt_getptd_noexit       00000001801be9bc f   libvcruntime:per_thread_data.obj
 0001:001bda7c       __vcrt_initialize_ptd      00000001801bea7c f   libvcruntime:per_thread_data.obj
 0001:001bdac4       __vcrt_uninitialize_ptd    00000001801beac4 f   libvcruntime:per_thread_data.obj
 0001:001bdae8       __vcrt_initialize_locks    00000001801beae8 f   libvcruntime:locks.obj
 0001:001bdb30       __vcrt_lock                00000001801beb30 f   libvcruntime:locks.obj
 0001:001bdb4c       __vcrt_uninitialize_locks  00000001801beb4c f   libvcruntime:locks.obj
 0001:001bdb84       __vcrt_unlock              00000001801beb84 f   libvcruntime:locks.obj
 0001:001bdbb0       _NLG_Notify                00000001801bebb0 f   libvcruntime:notify.obj
 0001:001bdbd0       __NLG_Dispatch2            00000001801bebd0 f   libvcruntime:notify.obj
 0001:001bdbe0       __NLG_Return2              00000001801bebe0 f   libvcruntime:notify.obj
 0001:001bdbe4       __except_validate_context_record 00000001801bebe4 f   libvcruntime:jbcxrval.obj
 0001:001bdc1c       ??$_CallSETranslator@V__FrameHandler3@@@@YAHPEAUEHExceptionRecord@@PEA_KPEAU_CONTEXT@@PEAU_xDISPATCHER_CONTEXT@@PEBU_s_FuncInfo@@K1H@Z 00000001801bec1c f i libvcruntime:risctrnsctrl.obj
 0001:001bdc70       ??$_CallSETranslator@V__FrameHandler4@@@@YAHPEAUEHExceptionRecord@@PEA_KPEAU_CONTEXT@@PEAU_xDISPATCHER_CONTEXT@@PEAUFuncInfo4@FH4@@K1H@Z 00000001801bec70 f i libvcruntime:risctrnsctrl.obj
 0001:001bdcc4       ?CatchTryBlock@__FrameHandler3@@SAPEBU_s_TryBlockMapEntry@@PEBU_s_FuncInfo@@H@Z 00000001801becc4 f   libvcruntime:risctrnsctrl.obj
 0001:001bdd28       ?DecompFuncInfo@FH4@@YA_JPEAEAEAUFuncInfo4@1@_KH_N@Z 00000001801bed28 f i libvcruntime:risctrnsctrl.obj
 0001:001bde4c       ?ExecutionInCatch@__FrameHandler3@@SA_NPEAU_xDISPATCHER_CONTEXT@@PEBU_s_FuncInfo@@@Z 00000001801bee4c f   libvcruntime:risctrnsctrl.obj
 0001:001bde78       ?ExecutionInCatch@__FrameHandler4@@SA_NPEAU_xDISPATCHER_CONTEXT@@PEAUFuncInfo4@FH4@@@Z 00000001801bee78 f   libvcruntime:risctrnsctrl.obj
 0001:001bde80       ?FrameUnwindToEmptyState@__FrameHandler3@@SAXPEA_KPEAU_xDISPATCHER_CONTEXT@@PEBU_s_FuncInfo@@@Z 00000001801bee80 f   libvcruntime:risctrnsctrl.obj
 0001:001bdee4       ?FrameUnwindToEmptyState@__FrameHandler4@@SAXPEA_KPEAU_xDISPATCHER_CONTEXT@@PEAUFuncInfo4@FH4@@@Z 00000001801beee4 f   libvcruntime:risctrnsctrl.obj
 0001:001bdf18       ?GetEstablisherFrame@__FrameHandler3@@SAPEA_KPEA_KPEAU_xDISPATCHER_CONTEXT@@PEBU_s_FuncInfo@@0@Z 00000001801bef18 f   libvcruntime:risctrnsctrl.obj
 0001:001bdfe4       ?GetEstablisherFrame@__FrameHandler4@@SAPEA_KPEA_KPEAU_xDISPATCHER_CONTEXT@@PEAUFuncInfo4@FH4@@0@Z 00000001801befe4 f   libvcruntime:risctrnsctrl.obj
 0001:001be008       ?GetRangeOfTrysToCheck@__FrameHandler3@@SA?AU?$pair@Viterator@TryBlockMap@__FrameHandler3@@V123@@std@@AEAVTryBlockMap@1@HPEAU_xDISPATCHER_CONTEXT@@PEBU_s_FuncInfo@@H@Z 00000001801bf008 f   libvcruntime:risctrnsctrl.obj
 0001:001be148       ?GetRangeOfTrysToCheck@__FrameHandler4@@SA?AU?$pair@Viterator@TryBlockMap4@FH4@@V123@@std@@AEAVTryBlockMap4@FH4@@HPEAU_xDISPATCHER_CONTEXT@@PEAUFuncInfo4@5@H@Z 00000001801bf148 f   libvcruntime:risctrnsctrl.obj
 0001:001be2b4       ?UnwindNestedFrames@__FrameHandler3@@SAXPEA_KPEAUEHExceptionRecord@@PEAU_CONTEXT@@0PEAXPEBU_s_FuncInfo@@HHPEBU_s_HandlerType@@PEAU_xDISPATCHER_CONTEXT@@E@Z 00000001801bf2b4 f   libvcruntime:risctrnsctrl.obj
 0001:001be3b8       ?UnwindNestedFrames@__FrameHandler4@@SAXPEA_KPEAUEHExceptionRecord@@PEAU_CONTEXT@@0PEAXPEAUFuncInfo4@FH4@@HHPEAUHandlerType4@5@PEAU_xDISPATCHER_CONTEXT@@E@Z 00000001801bf3b8 f   libvcruntime:risctrnsctrl.obj
 0001:001be4d8       ?setBuffer@TryBlockMap4@FH4@@QEAAXViterator@12@@Z 00000001801bf4d8 f i libvcruntime:risctrnsctrl.obj
 0001:001be69c       _CreateFrameInfo           00000001801bf69c f   libvcruntime:risctrnsctrl.obj
 0001:001be6d8       _FindAndUnlinkFrame        00000001801bf6d8 f   libvcruntime:risctrnsctrl.obj
 0001:001be72c       _GetImageBase              00000001801bf72c f   libvcruntime:risctrnsctrl.obj
 0001:001be740       _GetThrowImageBase         00000001801bf740 f   libvcruntime:risctrnsctrl.obj
 0001:001be754       _SetImageBase              00000001801bf754 f   libvcruntime:risctrnsctrl.obj
 0001:001be76c       _SetThrowImageBase         00000001801bf76c f   libvcruntime:risctrnsctrl.obj
 0001:001be784       __CxxFrameHandler3         00000001801bf784 f   libvcruntime:risctrnsctrl.obj
 0001:001be80c       __CxxFrameHandler4         00000001801bf80c f   libvcruntime:risctrnsctrl.obj
 0001:001bea1c       __vcrt_FlsAlloc            00000001801bfa1c f   libvcruntime:winapi_downlevel.obj
 0001:001bea64       __vcrt_FlsFree             00000001801bfa64 f   libvcruntime:winapi_downlevel.obj
 0001:001beaac       __vcrt_FlsGetValue         00000001801bfaac f   libvcruntime:winapi_downlevel.obj
 0001:001beaf4       __vcrt_FlsSetValue         00000001801bfaf4 f   libvcruntime:winapi_downlevel.obj
 0001:001beb48       __vcrt_InitializeCriticalSectionEx 00000001801bfb48 f   libvcruntime:winapi_downlevel.obj
 0001:001bebac       ?GetCurrentState@__FrameHandler3@@SAHPEA_KPEAU_xDISPATCHER_CONTEXT@@PEBU_s_FuncInfo@@@Z 00000001801bfbac f   libvcruntime:ehstate.obj
 0001:001bebd4       ?GetUnwindTryBlock@__FrameHandler3@@SAHPEA_KPEAU_xDISPATCHER_CONTEXT@@PEBU_s_FuncInfo@@@Z 00000001801bfbd4 f   libvcruntime:ehstate.obj
 0001:001bec00       ?SetState@__FrameHandler3@@SAXPEA_KPEBU_s_FuncInfo@@H@Z 00000001801bfc00 f   libvcruntime:ehstate.obj
 0001:001bec0c       ?SetUnwindTryBlock@__FrameHandler3@@SAXPEA_KPEAU_xDISPATCHER_CONTEXT@@PEBU_s_FuncInfo@@H@Z 00000001801bfc0c f   libvcruntime:ehstate.obj
 0001:001bec48       ?StateFromControlPc@__FrameHandler3@@SAHPEBU_s_FuncInfo@@PEAU_xDISPATCHER_CONTEXT@@@Z 00000001801bfc48 f   libvcruntime:ehstate.obj
 0001:001bec50       ?StateFromControlPc@__FrameHandler4@@SAHPEAUFuncInfo4@FH4@@PEAU_xDISPATCHER_CONTEXT@@@Z 00000001801bfc50 f   libvcruntime:ehstate.obj
 0001:001bec58       ?StateFromIp@__FrameHandler3@@SAHPEBU_s_FuncInfo@@PEAU_xDISPATCHER_CONTEXT@@_K@Z 00000001801bfc58 f   libvcruntime:ehstate.obj
 0001:001becc0       ?StateFromIp@__FrameHandler4@@SAHPEAUFuncInfo4@FH4@@PEAU_xDISPATCHER_CONTEXT@@_K@Z 00000001801bfcc0 f   libvcruntime:ehstate.obj
 0001:001c03c0       ??$TypeMatchHelper@V__FrameHandler3@@@@YAHPEBU_s_HandlerType@@PEBU_s_CatchableType@@PEBU_s_ThrowInfo@@@Z 00000001801c13c0 f i libvcruntime:frame.obj
 0001:001c0500       ??$TypeMatchHelper@V__FrameHandler4@@@@YAHPEAUHandlerType4@FH4@@PEBU_s_CatchableType@@PEBU_s_ThrowInfo@@@Z 00000001801c1500 f i libvcruntime:frame.obj
 0001:001c0644       ??$__InternalCxxFrameHandler@V__FrameHandler3@@@@YA?AW4_EXCEPTION_DISPOSITION@@PEAUEHExceptionRecord@@PEA_KPEAU_CONTEXT@@PEAU_xDISPATCHER_CONTEXT@@PEBU_s_FuncInfo@@H1E@Z 00000001801c1644 f i libvcruntime:frame.obj
 0001:001c087c       ??$__InternalCxxFrameHandler@V__FrameHandler4@@@@YA?AW4_EXCEPTION_DISPOSITION@@PEAUEHExceptionRecord@@PEA_KPEAU_CONTEXT@@PEAU_xDISPATCHER_CONTEXT@@PEAUFuncInfo4@FH4@@H1E@Z 00000001801c187c f i libvcruntime:frame.obj
 0001:001c0b10       ??$__InternalCxxFrameHandlerWrapper@V__FrameHandler3@@@@YA?AW4_EXCEPTION_DISPOSITION@@PEAUEHExceptionRecord@@PEA_KPEAU_CONTEXT@@PEAU_xDISPATCHER_CONTEXT@@PEBU_s_FuncInfo@@H1E@Z 00000001801c1b10 f i libvcruntime:frame.obj
 0001:001c0b18       ??$__InternalCxxFrameHandlerWrapper@V__FrameHandler4@@@@YA?AW4_EXCEPTION_DISPOSITION@@PEAUEHExceptionRecord@@PEA_KPEAU_CONTEXT@@PEAU_xDISPATCHER_CONTEXT@@PEAUFuncInfo4@FH4@@H1E@Z 00000001801c1b18 f i libvcruntime:frame.obj
 0001:001c0b74       ??0HandlerMap4@FH4@@QEAA@PEBUTryBlockMapEntry4@1@_KH@Z 00000001801c1b74 f i libvcruntime:frame.obj
 0001:001c0bf0       ??0TryBlockMap4@FH4@@QEAA@PEBUFuncInfo4@1@_K@Z 00000001801c1bf0 f i libvcruntime:frame.obj
 0001:001c0cc8       ??0bad_exception@std@@QEAA@AEBV01@@Z 00000001801c1cc8 f i libvcruntime:frame.obj
 0001:001c0d04       ??0bad_exception@std@@QEAA@XZ 00000001801c1d04 f i libvcruntime:frame.obj
 0001:001c0d24       ??0exception@std@@QEAA@AEBV01@@Z 00000001801c1d24 f i libvcruntime:frame.obj
 0001:001c0d58       ??1bad_exception@std@@UEAA@XZ 00000001801c1d58 f i libvcruntime:frame.obj
 0001:001c0d6c       ??_Ebad_exception@std@@UEAAPEAXI@Z 00000001801c1d6c f i libvcruntime:frame.obj
 0001:001c0d6c       ??_Eexception@std@@UEAAPEAXI@Z 00000001801c1d6c f i libvcruntime:frame.obj
 0001:001c0d6c       ??_Gbad_exception@std@@UEAAPEAXI@Z 00000001801c1d6c f i libvcruntime:frame.obj
 0001:001c0d6c       ??_Gexception@std@@UEAAPEAXI@Z 00000001801c1d6c f i libvcruntime:frame.obj
 0001:001c0db0       ?CxxCallCatchBlock@__FrameHandler3@@SAPEAXPEAU_EXCEPTION_RECORD@@@Z 00000001801c1db0 f   libvcruntime:frame.obj
 0001:001c0f9c       ?CxxCallCatchBlock@__FrameHandler4@@SAPEAXPEAU_EXCEPTION_RECORD@@@Z 00000001801c1f9c f   libvcruntime:frame.obj
 0001:001c11ec       ?DecompHandler@HandlerMap4@FH4@@AEAAXXZ 00000001801c21ec f i libvcruntime:frame.obj
 0001:001c1438       ?FrameUnwindToState@__FrameHandler3@@SAXPEA_KPEAU_xDISPATCHER_CONTEXT@@PEBU_s_FuncInfo@@H@Z 00000001801c2438 f   libvcruntime:frame.obj
 0001:001c15c4       ?FrameUnwindToState@__FrameHandler4@@SAXPEA_KPEAU_xDISPATCHER_CONTEXT@@PEAUFuncInfo4@FH4@@H@Z 00000001801c25c4 f   libvcruntime:frame.obj
 0001:001c18c0       ?GetHandlerSearchState@__FrameHandler3@@SAHPEA_KPEAU_xDISPATCHER_CONTEXT@@PEBU_s_FuncInfo@@@Z 00000001801c28c0 f i libvcruntime:frame.obj
 0001:001c1ad0       ?ReadEntry@UWMap4@FH4@@AEAAXPEAPEAE@Z 00000001801c2ad0 f i libvcruntime:frame.obj
 0001:001c1b6c       ?_CallMemberFunction1@@YAXQEAX00@Z 00000001801c2b6c f i libvcruntime:frame.obj
 0001:001c1b78       ?_CallMemberFunction2@@YAXQEAX00H@Z 00000001801c2b78 f i libvcruntime:frame.obj
 0001:001c1b88       ?getStartStop@UWMap4@FH4@@QEAAXHHAEAViterator@12@0@Z 00000001801c2b88 f i libvcruntime:frame.obj
 0001:001c1c58       ?getStateFromIterators@UWMap4@FH4@@SAHAEBViterator@12@H0H0@Z 00000001801c2c58 f i libvcruntime:frame.obj
 0001:001c1d08       ?what@exception@std@@UEBAPEBDXZ 00000001801c2d08 f i libvcruntime:frame.obj
 0001:001c1d30       _CallSettingFrame          00000001801c2d30 f   libvcruntime:handlers.obj
 0001:001c1d80       _CallSettingFrame_LookupContinuationIndex 00000001801c2d80 f   libvcruntime:handlers.obj
 0001:001c1db0       _CallSettingFrame_NotifyContinuationAddr 00000001801c2db0 f   libvcruntime:handlers.obj
 0001:001c1de0       _CallSettingFrameEncoded   00000001801c2de0 f   libvcruntime:handlers.obj
 0001:001c1e28       __std_exception_copy       00000001801c2e28 f   libvcruntime:std_exception.obj
 0001:001c1eb8       __std_exception_destroy    00000001801c2eb8 f   libvcruntime:std_exception.obj
 0001:001c1ee0       _CxxThrowException         00000001801c2ee0 f   libvcruntime:throw.obj
 0001:001c1f80       _local_unwind              00000001801c2f80 f   libvcruntime:jmpuwind.obj
 0001:001c1fb0       cosf                       00000001801c2fb0 f   libucrt:cosf.obj
 0001:001c24b0       sinf                       00000001801c34b0 f   libucrt:sinf.obj
 0001:001c2bb0       tanf                       00000001801c3bb0 f   libucrt:tanf.obj
 0001:001c3224       __acrt_initialize_stdio    00000001801c4224 f   libucrt:_file.obj
 0001:001c3344       __acrt_iob_func            00000001801c4344 f   libucrt:_file.obj
 0001:001c3358       __acrt_uninitialize_stdio  00000001801c4358 f   libucrt:_file.obj
 0001:001c33b4       _lock_file                 00000001801c43b4 f   libucrt:_file.obj
 0001:001c33c0       _unlock_file               00000001801c43c0 f   libucrt:_file.obj
 0001:001c35bc       ??$ensure_buffer_is_big_enough@D@formatting_buffer@__crt_stdio_output@@QEAA_N_KAEAV__crt_cached_ptd_host@@@Z 00000001801c45bc f i libucrt:output.obj
 0001:001c3664       ??$parse_integer@KV?$c_string_character_source@D@__crt_strtox@@$0A@@__crt_strtox@@YAKAEAV__crt_cached_ptd_host@@V?$c_string_character_source@D@0@H_N@Z 00000001801c4664 f i libucrt:output.obj
 0001:001c3914       ??$type_case_integer@$07@?$output_processor@DV?$stream_output_adapter@D@__crt_stdio_output@@V?$standard_base@DV?$stream_output_adapter@D@__crt_stdio_output@@@2@@__crt_stdio_output@@AEAA_N_N@Z 00000001801c4914 f i libucrt:output.obj
 0001:001c3914       ??$type_case_integer@$07@?$output_processor@DV?$string_output_adapter@D@__crt_stdio_output@@V?$format_validation_base@DV?$string_output_adapter@D@__crt_stdio_output@@@2@@__crt_stdio_output@@AEAA_N_N@Z 00000001801c4914 f i libucrt:output.obj
 0001:001c3914       ??$type_case_integer@$07@?$output_processor@DV?$string_output_adapter@D@__crt_stdio_output@@V?$standard_base@DV?$string_output_adapter@D@__crt_stdio_output@@@2@@__crt_stdio_output@@AEAA_N_N@Z 00000001801c4914 f i libucrt:output.obj
 0001:001c3afc       ??$type_case_integer@$09@?$output_processor@DV?$stream_output_adapter@D@__crt_stdio_output@@V?$standard_base@DV?$stream_output_adapter@D@__crt_stdio_output@@@2@@__crt_stdio_output@@AEAA_N_N@Z 00000001801c4afc f i libucrt:output.obj
 0001:001c3afc       ??$type_case_integer@$09@?$output_processor@DV?$string_output_adapter@D@__crt_stdio_output@@V?$format_validation_base@DV?$string_output_adapter@D@__crt_stdio_output@@@2@@__crt_stdio_output@@AEAA_N_N@Z 00000001801c4afc f i libucrt:output.obj
 0001:001c3afc       ??$type_case_integer@$09@?$output_processor@DV?$string_output_adapter@D@__crt_stdio_output@@V?$standard_base@DV?$string_output_adapter@D@__crt_stdio_output@@@2@@__crt_stdio_output@@AEAA_N_N@Z 00000001801c4afc f i libucrt:output.obj
 0001:001c3ce4       ??$type_case_integer@$0BA@@?$output_processor@DV?$stream_output_adapter@D@__crt_stdio_output@@V?$standard_base@DV?$stream_output_adapter@D@__crt_stdio_output@@@2@@__crt_stdio_output@@AEAA_N_N@Z 00000001801c4ce4 f i libucrt:output.obj
 0001:001c3ce4       ??$type_case_integer@$0BA@@?$output_processor@DV?$string_output_adapter@D@__crt_stdio_output@@V?$format_validation_base@DV?$string_output_adapter@D@__crt_stdio_output@@@2@@__crt_stdio_output@@AEAA_N_N@Z 00000001801c4ce4 f i libucrt:output.obj
 0001:001c3ce4       ??$type_case_integer@$0BA@@?$output_processor@DV?$string_output_adapter@D@__crt_stdio_output@@V?$standard_base@DV?$string_output_adapter@D@__crt_stdio_output@@@2@@__crt_stdio_output@@AEAA_N_N@Z 00000001801c4ce4 f i libucrt:output.obj
 0001:001c3ecc       ??$type_case_integer_parse_into_buffer@I$07@?$output_processor@DV?$stream_output_adapter@D@__crt_stdio_output@@V?$standard_base@DV?$stream_output_adapter@D@__crt_stdio_output@@@2@@__crt_stdio_output@@AEAAXI_N@Z 00000001801c4ecc f i libucrt:output.obj
 0001:001c3ecc       ??$type_case_integer_parse_into_buffer@I$07@?$output_processor@DV?$string_output_adapter@D@__crt_stdio_output@@V?$format_validation_base@DV?$string_output_adapter@D@__crt_stdio_output@@@2@@__crt_stdio_output@@AEAAXI_N@Z 00000001801c4ecc f i libucrt:output.obj
 0001:001c3ecc       ??$type_case_integer_parse_into_buffer@I$07@?$output_processor@DV?$string_output_adapter@D@__crt_stdio_output@@V?$standard_base@DV?$string_output_adapter@D@__crt_stdio_output@@@2@@__crt_stdio_output@@AEAAXI_N@Z 00000001801c4ecc f i libucrt:output.obj
 0001:001c3f48       ??$type_case_integer_parse_into_buffer@I$09@?$output_processor@DV?$stream_output_adapter@D@__crt_stdio_output@@V?$standard_base@DV?$stream_output_adapter@D@__crt_stdio_output@@@2@@__crt_stdio_output@@AEAAXI_N@Z 00000001801c4f48 f i libucrt:output.obj
 0001:001c3f48       ??$type_case_integer_parse_into_buffer@I$09@?$output_processor@DV?$string_output_adapter@D@__crt_stdio_output@@V?$format_validation_base@DV?$string_output_adapter@D@__crt_stdio_output@@@2@@__crt_stdio_output@@AEAAXI_N@Z 00000001801c4f48 f i libucrt:output.obj
 0001:001c3f48       ??$type_case_integer_parse_into_buffer@I$09@?$output_processor@DV?$string_output_adapter@D@__crt_stdio_output@@V?$standard_base@DV?$string_output_adapter@D@__crt_stdio_output@@@2@@__crt_stdio_output@@AEAAXI_N@Z 00000001801c4f48 f i libucrt:output.obj
 0001:001c3ff0       ??$type_case_integer_parse_into_buffer@I$0BA@@?$output_processor@DV?$stream_output_adapter@D@__crt_stdio_output@@V?$standard_base@DV?$stream_output_adapter@D@__crt_stdio_output@@@2@@__crt_stdio_output@@AEAAXI_N@Z 00000001801c4ff0 f i libucrt:output.obj
 0001:001c3ff0       ??$type_case_integer_parse_into_buffer@I$0BA@@?$output_processor@DV?$string_output_adapter@D@__crt_stdio_output@@V?$format_validation_base@DV?$string_output_adapter@D@__crt_stdio_output@@@2@@__crt_stdio_output@@AEAAXI_N@Z 00000001801c4ff0 f i libucrt:output.obj
 0001:001c3ff0       ??$type_case_integer_parse_into_buffer@I$0BA@@?$output_processor@DV?$string_output_adapter@D@__crt_stdio_output@@V?$standard_base@DV?$string_output_adapter@D@__crt_stdio_output@@@2@@__crt_stdio_output@@AEAAXI_N@Z 00000001801c4ff0 f i libucrt:output.obj
 0001:001c407c       ??$type_case_integer_parse_into_buffer@_K$07@?$output_processor@DV?$stream_output_adapter@D@__crt_stdio_output@@V?$standard_base@DV?$stream_output_adapter@D@__crt_stdio_output@@@2@@__crt_stdio_output@@AEAAX_K_N@Z 00000001801c507c f i libucrt:output.obj
 0001:001c407c       ??$type_case_integer_parse_into_buffer@_K$07@?$output_processor@DV?$string_output_adapter@D@__crt_stdio_output@@V?$format_validation_base@DV?$string_output_adapter@D@__crt_stdio_output@@@2@@__crt_stdio_output@@AEAAX_K_N@Z 00000001801c507c f i libucrt:output.obj
 0001:001c407c       ??$type_case_integer_parse_into_buffer@_K$07@?$output_processor@DV?$string_output_adapter@D@__crt_stdio_output@@V?$standard_base@DV?$string_output_adapter@D@__crt_stdio_output@@@2@@__crt_stdio_output@@AEAAX_K_N@Z 00000001801c507c f i libucrt:output.obj
 0001:001c40f8       ??$type_case_integer_parse_into_buffer@_K$09@?$output_processor@DV?$stream_output_adapter@D@__crt_stdio_output@@V?$standard_base@DV?$stream_output_adapter@D@__crt_stdio_output@@@2@@__crt_stdio_output@@AEAAX_K_N@Z 00000001801c50f8 f i libucrt:output.obj
 0001:001c40f8       ??$type_case_integer_parse_into_buffer@_K$09@?$output_processor@DV?$string_output_adapter@D@__crt_stdio_output@@V?$format_validation_base@DV?$string_output_adapter@D@__crt_stdio_output@@@2@@__crt_stdio_output@@AEAAX_K_N@Z 00000001801c50f8 f i libucrt:output.obj
 0001:001c40f8       ??$type_case_integer_parse_into_buffer@_K$09@?$output_processor@DV?$string_output_adapter@D@__crt_stdio_output@@V?$standard_base@DV?$string_output_adapter@D@__crt_stdio_output@@@2@@__crt_stdio_output@@AEAAX_K_N@Z 00000001801c50f8 f i libucrt:output.obj
 0001:001c41a4       ??$type_case_integer_parse_into_buffer@_K$0BA@@?$output_processor@DV?$stream_output_adapter@D@__crt_stdio_output@@V?$standard_base@DV?$stream_output_adapter@D@__crt_stdio_output@@@2@@__crt_stdio_output@@AEAAX_K_N@Z 00000001801c51a4 f i libucrt:output.obj
 0001:001c41a4       ??$type_case_integer_parse_into_buffer@_K$0BA@@?$output_processor@DV?$string_output_adapter@D@__crt_stdio_output@@V?$format_validation_base@DV?$string_output_adapter@D@__crt_stdio_output@@@2@@__crt_stdio_output@@AEAAX_K_N@Z 00000001801c51a4 f i libucrt:output.obj
 0001:001c41a4       ??$type_case_integer_parse_into_buffer@_K$0BA@@?$output_processor@DV?$string_output_adapter@D@__crt_stdio_output@@V?$standard_base@DV?$string_output_adapter@D@__crt_stdio_output@@@2@@__crt_stdio_output@@AEAAX_K_N@Z 00000001801c51a4 f i libucrt:output.obj
 0001:001c434c       ?crop_zeroes@__crt_stdio_output@@YAXPEADQEAU__crt_locale_pointers@@@Z 00000001801c534c f i libucrt:output.obj
 0001:001c43c0       ?get_raw_ptd@__crt_cached_ptd_host@@QEAAPEAU__acrt_ptd@@XZ 00000001801c53c0 f i libucrt:output.obj
 0001:001c4428       ?parse_int_from_format_string@?$output_processor@DV?$stream_output_adapter@D@__crt_stdio_output@@V?$standard_base@DV?$stream_output_adapter@D@__crt_stdio_output@@@2@@__crt_stdio_output@@AEAA_NQEAH@Z 00000001801c5428 f i libucrt:output.obj
 0001:001c4428       ?parse_int_from_format_string@?$output_processor@DV?$string_output_adapter@D@__crt_stdio_output@@V?$format_validation_base@DV?$string_output_adapter@D@__crt_stdio_output@@@2@@__crt_stdio_output@@AEAA_NQEAH@Z 00000001801c5428 f i libucrt:output.obj
 0001:001c4428       ?parse_int_from_format_string@?$output_processor@DV?$string_output_adapter@D@__crt_stdio_output@@V?$standard_base@DV?$string_output_adapter@D@__crt_stdio_output@@@2@@__crt_stdio_output@@AEAA_NQEAH@Z 00000001801c5428 f i libucrt:output.obj
 0001:001c44b8       ?process@?$output_processor@DV?$stream_output_adapter@D@__crt_stdio_output@@V?$standard_base@DV?$stream_output_adapter@D@__crt_stdio_output@@@2@@__crt_stdio_output@@QEAAHXZ 00000001801c54b8 f i libucrt:output.obj
 0001:001c4844       ?process@?$output_processor@DV?$string_output_adapter@D@__crt_stdio_output@@V?$format_validation_base@DV?$string_output_adapter@D@__crt_stdio_output@@@2@@__crt_stdio_output@@QEAAHXZ 00000001801c5844 f i libucrt:output.obj
 0001:001c4bd4       ?process@?$output_processor@DV?$string_output_adapter@D@__crt_stdio_output@@V?$standard_base@DV?$string_output_adapter@D@__crt_stdio_output@@@2@@__crt_stdio_output@@QEAAHXZ 00000001801c5bd4 f i libucrt:output.obj
 0001:001c4f58       ?state_case_size@?$output_processor@DV?$stream_output_adapter@D@__crt_stdio_output@@V?$standard_base@DV?$stream_output_adapter@D@__crt_stdio_output@@@2@@__crt_stdio_output@@AEAA_NXZ 00000001801c5f58 f i libucrt:output.obj
 0001:001c50dc       ?state_case_size@?$output_processor@DV?$string_output_adapter@D@__crt_stdio_output@@V?$format_validation_base@DV?$string_output_adapter@D@__crt_stdio_output@@@2@@__crt_stdio_output@@AEAA_NXZ 00000001801c60dc f i libucrt:output.obj
 0001:001c50dc       ?state_case_size@?$output_processor@DV?$string_output_adapter@D@__crt_stdio_output@@V?$standard_base@DV?$string_output_adapter@D@__crt_stdio_output@@@2@@__crt_stdio_output@@AEAA_NXZ 00000001801c60dc f i libucrt:output.obj
 0001:001c5260       ?state_case_type@?$output_processor@DV?$stream_output_adapter@D@__crt_stdio_output@@V?$standard_base@DV?$stream_output_adapter@D@__crt_stdio_output@@@2@@__crt_stdio_output@@AEAA_NXZ 00000001801c6260 f i libucrt:output.obj
 0001:001c5694       ?state_case_type@?$output_processor@DV?$string_output_adapter@D@__crt_stdio_output@@V?$format_validation_base@DV?$string_output_adapter@D@__crt_stdio_output@@@2@@__crt_stdio_output@@AEAA_NXZ 00000001801c6694 f i libucrt:output.obj
 0001:001c5694       ?state_case_type@?$output_processor@DV?$string_output_adapter@D@__crt_stdio_output@@V?$standard_base@DV?$string_output_adapter@D@__crt_stdio_output@@@2@@__crt_stdio_output@@AEAA_NXZ 00000001801c6694 f i libucrt:output.obj
 0001:001c5a60       ?type_case_Z@?$output_processor@DV?$stream_output_adapter@D@__crt_stdio_output@@V?$standard_base@DV?$stream_output_adapter@D@__crt_stdio_output@@@2@@__crt_stdio_output@@AEAA_NXZ 00000001801c6a60 f i libucrt:output.obj
 0001:001c5a60       ?type_case_Z@?$output_processor@DV?$string_output_adapter@D@__crt_stdio_output@@V?$format_validation_base@DV?$string_output_adapter@D@__crt_stdio_output@@@2@@__crt_stdio_output@@AEAA_NXZ 00000001801c6a60 f i libucrt:output.obj
 0001:001c5a60       ?type_case_Z@?$output_processor@DV?$string_output_adapter@D@__crt_stdio_output@@V?$standard_base@DV?$string_output_adapter@D@__crt_stdio_output@@@2@@__crt_stdio_output@@AEAA_NXZ 00000001801c6a60 f i libucrt:output.obj
 0001:001c5ad8       ?type_case_a@?$output_processor@DV?$stream_output_adapter@D@__crt_stdio_output@@V?$standard_base@DV?$stream_output_adapter@D@__crt_stdio_output@@@2@@__crt_stdio_output@@AEAA_NXZ 00000001801c6ad8 f i libucrt:output.obj
 0001:001c5ad8       ?type_case_a@?$output_processor@DV?$string_output_adapter@D@__crt_stdio_output@@V?$format_validation_base@DV?$string_output_adapter@D@__crt_stdio_output@@@2@@__crt_stdio_output@@AEAA_NXZ 00000001801c6ad8 f i libucrt:output.obj
 0001:001c5ad8       ?type_case_a@?$output_processor@DV?$string_output_adapter@D@__crt_stdio_output@@V?$standard_base@DV?$string_output_adapter@D@__crt_stdio_output@@@2@@__crt_stdio_output@@AEAA_NXZ 00000001801c6ad8 f i libucrt:output.obj
 0001:001c5d24       ?type_case_c_tchar@?$output_processor@DV?$stream_output_adapter@D@__crt_stdio_output@@V?$standard_base@DV?$stream_output_adapter@D@__crt_stdio_output@@@2@@__crt_stdio_output@@AEAA_ND@Z 00000001801c6d24 f i libucrt:output.obj
 0001:001c5d24       ?type_case_c_tchar@?$output_processor@DV?$string_output_adapter@D@__crt_stdio_output@@V?$format_validation_base@DV?$string_output_adapter@D@__crt_stdio_output@@@2@@__crt_stdio_output@@AEAA_ND@Z 00000001801c6d24 f i libucrt:output.obj
 0001:001c5d24       ?type_case_c_tchar@?$output_processor@DV?$string_output_adapter@D@__crt_stdio_output@@V?$standard_base@DV?$string_output_adapter@D@__crt_stdio_output@@@2@@__crt_stdio_output@@AEAA_ND@Z 00000001801c6d24 f i libucrt:output.obj
 0001:001c5de8       ?type_case_n@?$output_processor@DV?$stream_output_adapter@D@__crt_stdio_output@@V?$standard_base@DV?$stream_output_adapter@D@__crt_stdio_output@@@2@@__crt_stdio_output@@AEAA_NXZ 00000001801c6de8 f i libucrt:output.obj
 0001:001c5de8       ?type_case_n@?$output_processor@DV?$string_output_adapter@D@__crt_stdio_output@@V?$format_validation_base@DV?$string_output_adapter@D@__crt_stdio_output@@@2@@__crt_stdio_output@@AEAA_NXZ 00000001801c6de8 f i libucrt:output.obj
 0001:001c5de8       ?type_case_n@?$output_processor@DV?$string_output_adapter@D@__crt_stdio_output@@V?$standard_base@DV?$string_output_adapter@D@__crt_stdio_output@@@2@@__crt_stdio_output@@AEAA_NXZ 00000001801c6de8 f i libucrt:output.obj
 0001:001c5e9c       ?type_case_s@?$output_processor@DV?$stream_output_adapter@D@__crt_stdio_output@@V?$standard_base@DV?$stream_output_adapter@D@__crt_stdio_output@@@2@@__crt_stdio_output@@AEAA_NXZ 00000001801c6e9c f i libucrt:output.obj
 0001:001c5e9c       ?type_case_s@?$output_processor@DV?$string_output_adapter@D@__crt_stdio_output@@V?$format_validation_base@DV?$string_output_adapter@D@__crt_stdio_output@@@2@@__crt_stdio_output@@AEAA_NXZ 00000001801c6e9c f i libucrt:output.obj
 0001:001c5e9c       ?type_case_s@?$output_processor@DV?$string_output_adapter@D@__crt_stdio_output@@V?$standard_base@DV?$string_output_adapter@D@__crt_stdio_output@@@2@@__crt_stdio_output@@AEAA_NXZ 00000001801c6e9c f i libucrt:output.obj
 0001:001c5f40       ?update_locale_slow@__crt_cached_ptd_host@@AEAAXXZ 00000001801c6f40 f i libucrt:output.obj
 0001:001c5fb8       ?validate_stream_is_ansi_if_required@?$__acrt_stdio_char_traits@D@@SA_NQEAU_iobuf@@@Z 00000001801c6fb8 f i libucrt:output.obj
 0001:001c6054       ?write_string@?$string_output_adapter@D@__crt_stdio_output@@QEBAXQEBDHQEAHAEAV__crt_cached_ptd_host@@@Z 00000001801c7054 f i libucrt:output.obj
 0001:001c60f8       ?write_string_impl@?$output_adapter_common@DV?$stream_output_adapter@D@__crt_stdio_output@@@__crt_stdio_output@@IEBAXQEBDHQEAHAEAV__crt_cached_ptd_host@@@Z 00000001801c70f8 f i libucrt:output.obj
 0001:001c61c4       __stdio_common_vfprintf    00000001801c71c4 f   libucrt:output.obj
 0001:001c62e8       __stdio_common_vsprintf    00000001801c72e8 f   libucrt:output.obj
 0001:001c653c       __stdio_common_vsprintf_s  00000001801c753c f   libucrt:output.obj
 0001:001c6650       _fpclass                   00000001801c7650 f   libucrt:ieeemisc.obj
 0001:001c66e0       powf                       00000001801c76e0 f   libucrt:powf.obj
 0001:001c75a8       atan2f                     00000001801c85a8 f   libucrt:atan2f.obj
 0001:001c79a0       acosf                      00000001801c89a0 f   libucrt:acosf.obj
 0001:001c7bcc       free                       00000001801c8bcc f   libucrt:free.obj
 0001:001c7be0       _seh_filter_dll            00000001801c8be0 f   libucrt:exception_filter.obj
 0001:001c7bf4       _seh_filter_exe            00000001801c8bf4 f   libucrt:exception_filter.obj
 0001:001c8018       __acrt_initialize_thread_local_exit_callback 00000001801c9018 f   libucrt:exit.obj
 0001:001c8020       _cexit                     00000001801c9020 f   libucrt:exit.obj
 0001:001c8030       _exit                      00000001801c9030 f   libucrt:exit.obj
 0001:001c803c       _is_c_termination_complete 00000001801c903c f   libucrt:exit.obj
 0001:001c8204       __acrt_allocate_buffer_for_argv 00000001801c9204 f   libucrt:argv_parsing.obj
 0001:001c8264       _configure_narrow_argv     00000001801c9264 f   libucrt:argv_parsing.obj
 0001:001c85ec       __dcrt_uninitialize_environments_nolock 00000001801c95ec f   libucrt:environment_initialization.obj
 0001:001c8630       _initialize_narrow_environment 00000001801c9630 f   libucrt:environment_initialization.obj
 0001:001c8980       _crt_atexit                00000001801c9980 f   libucrt:onexit.obj
 0001:001c8990       _execute_onexit_table      00000001801c9990 f   libucrt:onexit.obj
 0001:001c89d4       _initialize_onexit_table   00000001801c99d4 f   libucrt:onexit.obj
 0001:001c89fc       _register_onexit_function  00000001801c99fc f   libucrt:onexit.obj
 0001:001c8a7c       __acrt_uninitialize_command_line 00000001801c9a7c f   libucrt:argv_data.obj
 0001:001c8b74       __acrt_initialize          00000001801c9b74 f   libucrt:initialization.obj
 0001:001c8b88       __acrt_thread_attach       00000001801c9b88 f   libucrt:initialization.obj
 0001:001c8b9c       __acrt_thread_detach       00000001801c9b9c f   libucrt:initialization.obj
 0001:001c8bac       __acrt_uninitialize        00000001801c9bac f   libucrt:initialization.obj
 0001:001c8be4       __acrt_uninitialize_critical 00000001801c9be4 f   libucrt:initialization.obj
 0001:001c8bf4       _initterm                  00000001801c9bf4 f   libucrt:initterm.obj
 0001:001c8c38       _initterm_e                00000001801c9c38 f   libucrt:initterm.obj
 0001:001c8c80       terminate                  00000001801c9c80 f   libucrt:terminate.obj
 0001:001c8cac       abort                      00000001801c9cac f   libucrt:abort.obj
 0001:001c8d04       malloc                     00000001801c9d04 f   libucrt:malloc.obj
 0001:001c8d0c       strcpy_s                   00000001801c9d0c f   libucrt:strcpy_s.obj
 0001:001c8d6c       ??$parse_integer@KV?$c_string_character_source@D@__crt_strtox@@$00@__crt_strtox@@YAKAEAV__crt_cached_ptd_host@@V?$c_string_character_source@D@0@H_N@Z 00000001801c9d6c f i libucrt:atox.obj
 0001:001c904c       _ischartype_l              00000001801ca04c f i libucrt:atox.obj
 0001:001c90c4       atol                       00000001801ca0c4 f   libucrt:atox.obj
 0001:001c9190       strncmp                    00000001801ca190 f   libucrt:strncmp.obj
 0001:001c9210       calloc                     00000001801ca210 f   libucrt:calloc.obj
 0001:001c9218       wcsncmp                    00000001801ca218 f   libucrt:wcsncmp.obj
 0001:001c9250       __remainder_piby2d2f_forAsm 00000001801ca250 f   libucrt:remainder_piby2f_forasm.obj
 0001:001c93a0       __remainder_piby2_fma3     00000001801ca3a0 f   libucrt:remainder_piby2_forfma3.obj
 0001:001c9590       __remainder_piby2_fma3_bdl 00000001801ca590 f   libucrt:remainder_piby2_forfma3.obj
 0001:001c9608       _cosf_special              00000001801ca608 f   libucrt:sincos_special.obj
 0001:001c96a8       _sinf_special              00000001801ca6a8 f   libucrt:sincos_special.obj
 0001:001c96bc       _tanf_special              00000001801ca6bc f   libucrt:sincos_special.obj
 0001:001c96d0       _clrfp                     00000001801ca6d0 f   libucrt:fpctrl.obj
 0001:001c96f0       _ctrlfp                    00000001801ca6f0 f   libucrt:fpctrl.obj
 0001:001c976c       _set_statfp                00000001801ca76c f   libucrt:fpctrl.obj
 0001:001c978c       _statfp                    00000001801ca78c f   libucrt:fpctrl.obj
 0001:001c97a0       __acrt_initialize_fma3     00000001801ca7a0 f   libucrt:fma3_available.obj
 0001:001c9810       __remainder_piby2d2f_forC  00000001801ca810 f   libucrt:remainder_piby2f_forc.obj
 0001:001c999c       ?get_raw_ptd_noexit@__crt_cached_ptd_host@@QEAAPEAU__acrt_ptd@@XZ 00000001801ca99c f i libucrt:invalid_parameter.obj
 0001:001c9a08       ?value@?$dual_state_global@P6AXPEB_W00I_K@Z@__crt_state_management@@QEAAAEAP6AXPEB_W00I_K@ZAEAV__crt_cached_ptd_host@@@Z 00000001801caa08 f i libucrt:invalid_parameter.obj
 0001:001c9a54       __acrt_call_reportfault    00000001801caa54 f   libucrt:invalid_parameter.obj
 0001:001c9bb0       __acrt_initialize_invalid_parameter_handler 00000001801cabb0 f   libucrt:invalid_parameter.obj
 0001:001c9bb8       _invalid_parameter         00000001801cabb8 f   libucrt:invalid_parameter.obj
 0001:001c9c54       _invalid_parameter_internal 00000001801cac54 f   libucrt:invalid_parameter.obj
 0001:001c9d24       _invalid_parameter_noinfo  00000001801cad24 f   libucrt:invalid_parameter.obj
 0001:001c9d44       _invoke_watson             00000001801cad44 f   libucrt:invalid_parameter.obj
 0001:001c9d8c       __acrt_errno_from_os_error 00000001801cad8c f   libucrt:errno.obj
 0001:001c9dd4       __acrt_errno_map_os_error  00000001801cadd4 f   libucrt:errno.obj
 0001:001c9e1c       __acrt_errno_map_os_error_ptd 00000001801cae1c f   libucrt:errno.obj
 0001:001c9e40       __doserrno                 00000001801cae40 f   libucrt:errno.obj
 0001:001c9e60       _errno                     00000001801cae60 f   libucrt:errno.obj
 0001:001c9e80       _calloc_base               00000001801cae80 f   libucrt:calloc_base.obj
 0001:001c9ef8       _free_base                 00000001801caef8 f   libucrt:free_base.obj
 0001:001ca0f4       __acrt_AppPolicyGetProcessTerminationMethodInternal 00000001801cb0f4 f   libucrt:winapi_thunks.obj
 0001:001ca14c       __acrt_AreFileApisANSI     00000001801cb14c f   libucrt:winapi_thunks.obj
 0001:001ca190       __acrt_FlsAlloc            00000001801cb190 f   libucrt:winapi_thunks.obj
 0001:001ca198       __acrt_FlsFree             00000001801cb198 f   libucrt:winapi_thunks.obj
 0001:001ca1a0       __acrt_FlsGetValue         00000001801cb1a0 f   libucrt:winapi_thunks.obj
 0001:001ca1a8       __acrt_FlsSetValue         00000001801cb1a8 f   libucrt:winapi_thunks.obj
 0001:001ca1b0       __acrt_InitializeCriticalSectionEx 00000001801cb1b0 f   libucrt:winapi_thunks.obj
 0001:001ca220       __acrt_LCMapStringEx       00000001801cb220 f   libucrt:winapi_thunks.obj
 0001:001ca30c       __acrt_LocaleNameToLCID    00000001801cb30c f   libucrt:winapi_thunks.obj
 0001:001ca36c       __acrt_initialize_winapi_thunks 00000001801cb36c f   libucrt:winapi_thunks.obj
 0001:001ca390       __acrt_uninitialize_winapi_thunks 00000001801cb390 f   libucrt:winapi_thunks.obj
 0001:001ca3d4       _fcloseall                 00000001801cb3d4 f   libucrt:closeall.obj
 0001:001ca664       __acrt_stdio_flush_nolock  00000001801cb664 f   libucrt:fflush.obj
 0001:001ca6f0       _fflush_nolock             00000001801cb6f0 f   libucrt:fflush.obj
 0001:001ca7c4       _flushall                  00000001801cb7c4 f   libucrt:fflush.obj
 0001:001ca7cc       __acrt_stdio_free_buffer_nolock 00000001801cb7cc f   libucrt:_freebuf.obj
 0001:001caa04       __acrt_initialize_lowio    00000001801cba04 f   libucrt:ioinit.obj
 0001:001caa40       __acrt_uninitialize_lowio  00000001801cba40 f   libucrt:ioinit.obj
 0001:001caa80       _malloc_base               00000001801cba80 f   libucrt:malloc_base.obj
 0001:001caae0       strnlen                    00000001801cbae0 f   libucrt:strnlen.obj
 0001:001cac30       wcsnlen                    00000001801cbc30 f   libucrt:strnlen.obj
 0001:001cae08       __acrt_update_locale_info  00000001801cbe08 f   libucrt:locale_update.obj
 0001:001cae3c       __acrt_update_locale_info_explicit 00000001801cbe3c f   libucrt:locale_update.obj
 0001:001cae74       __acrt_update_multibyte_info 00000001801cbe74 f   libucrt:locale_update.obj
 0001:001caea8       __acrt_update_multibyte_info_explicit 00000001801cbea8 f   libucrt:locale_update.obj
 0001:001cba10       __acrt_fp_format           00000001801cca10 f   libucrt:cvt.obj
 0001:001cbcf8       _wctomb_internal           00000001801cccf8 f   libucrt:wctomb.obj
 0001:001cbea8       _mbtowc_internal           00000001801ccea8 f   libucrt:mbtowc.obj
 0001:001cc020       _fileno                    00000001801cd020 f   libucrt:fileno.obj
 0001:001cc048       _get_printf_count_output   00000001801cd048 f   libucrt:printf_count_output.obj
 0001:001cc060       _fputc_nolock_internal     00000001801cd060 f   libucrt:fputc.obj
 0001:001cc078       __acrt_should_use_temporary_buffer 00000001801cd078 f   libucrt:_sftbuf.obj
 0001:001cc0c0       __acrt_stdio_begin_temporary_buffering_nolock 00000001801cd0c0 f   libucrt:_sftbuf.obj
 0001:001cc188       __acrt_stdio_end_temporary_buffering_nolock 00000001801cd188 f   libucrt:_sftbuf.obj
 0001:001cc53c       __acrt_freeptd             00000001801cd53c f   libucrt:per_thread_data.obj
 0001:001cc580       __acrt_getptd              00000001801cd580 f   libucrt:per_thread_data.obj
 0001:001cc654       __acrt_getptd_head         00000001801cd654 f   libucrt:per_thread_data.obj
 0001:001cc6f8       __acrt_getptd_noexit       00000001801cd6f8 f   libucrt:per_thread_data.obj
 0001:001cc7c0       __acrt_getptd_noexit_explicit 00000001801cd7c0 f   libucrt:per_thread_data.obj
 0001:001cc880       __acrt_initialize_ptd      00000001801cd880 f   libucrt:per_thread_data.obj
 0001:001cc8bc       __acrt_uninitialize_ptd    00000001801cd8bc f   libucrt:per_thread_data.obj
 0001:001cc950       __acrt_set_locale_changed  00000001801cd950 f   libucrt:wsetlocale.obj
 0001:001cc95c       __acrt_uninitialize_locale 00000001801cd95c f   libucrt:wsetlocale.obj
 0001:001ccab0       _handle_error              00000001801cdab0 f   libucrt:libm_error.obj
 0001:001ccbd8       _handle_errorf             00000001801cdbd8 f   libucrt:libm_error.obj
 0001:001ccd0c       _handle_nan                00000001801cdd0c f   libucrt:libm_error.obj
 0001:001ccd28       _handle_nanf               00000001801cdd28 f   libucrt:libm_error.obj
 0001:001ccd40       _powf_special              00000001801cdd40 f   libucrt:pow_special.obj
 0001:001cce90       __acrt_initialize_locks    00000001801cde90 f   libucrt:locks.obj
 0001:001cced8       __acrt_lock                00000001801cded8 f   libucrt:locks.obj
 0001:001ccef4       __acrt_uninitialize_locks  00000001801cdef4 f   libucrt:locks.obj
 0001:001ccf2c       __acrt_unlock              00000001801cdf2c f   libucrt:locks.obj
 0001:001ccf48       __acrt_get_process_end_policy 00000001801cdf48 f   libucrt:win_policies.obj
 0001:001ccf98       ??$__acrt_convert_wcs_mbs_cp@D_WV<lambda_7c9dea7b4ca7285d2cdb541a38da6275>@@U__crt_win32_buffer_internal_dynamic_resizing@@@@YAHQEBDAEAV?$__crt_win32_buffer@_WU__crt_win32_buffer_internal_dynamic_resizing@@@@AEBV<lambda_7c9dea7b4ca7285d2cdb541a38da6275>@@I@Z 00000001801cdf98 f i libucrt:argv_wildcards.obj
 0001:001cd114       ??$__acrt_convert_wcs_mbs_cp@_WDV<lambda_d8593a27d1aa8c02be35c86a17d324c4>@@U__crt_win32_buffer_internal_dynamic_resizing@@@@YAHQEB_WAEAV?$__crt_win32_buffer@DU__crt_win32_buffer_internal_dynamic_resizing@@@@AEBV<lambda_d8593a27d1aa8c02be35c86a17d324c4>@@I@Z 00000001801ce114 f i libucrt:argv_wildcards.obj
 0001:001cd9bc       ??0_LocaleUpdate@@QEAA@QEAU__crt_locale_pointers@@@Z 00000001801ce9bc f i libucrt:argv_wildcards.obj
 0001:001cda58       __acrt_expand_narrow_argv_wildcards 00000001801cea58 f   libucrt:argv_wildcards.obj
 0001:001cda60       ??$__acrt_convert_wcs_mbs_cp@_WDV<lambda_f788ae46380686e8b737efdd8c720d07>@@U__crt_win32_buffer_no_resizing@@@@YAHQEB_WAEAV?$__crt_win32_buffer@DU__crt_win32_buffer_no_resizing@@@@AEBV<lambda_f788ae46380686e8b737efdd8c720d07>@@I@Z 00000001801cea60 f i libucrt:getmodulefilenamea.obj
 0001:001cdb7c       __acrt_GetModuleFileNameA  00000001801ceb7c f   libucrt:getmodulefilenamea.obj
 0001:001ce498       __acrt_initialize_multibyte 00000001801cf498 f   libucrt:mbctype.obj
 0001:001ce4f8       __acrt_update_thread_multibyte_data 00000001801cf4f8 f   libucrt:mbctype.obj
 0001:001ce514       _setmbcp_nolock            00000001801cf514 f   libucrt:mbctype.obj
 0001:001ce848       _ismbblead                 00000001801cf848 f   libucrt:ismbbyte.obj
 0001:001ce85c       __acrt_initialize_command_line 00000001801cf85c f   libucrt:argv_data.obj
 0001:001ce884       __acrt_MultiByteToWideChar 00000001801cf884 f   libucrt:multibytetowidechar.obj
 0001:001ce8e0       __acrt_WideCharToMultiByte 00000001801cf8e0 f   libucrt:widechartomultibyte.obj
 0001:001ce990       __dcrt_get_narrow_environment_from_os 00000001801cf990 f   libucrt:get_environment_from_os.obj
 0001:001ceaa0       _recalloc_base             00000001801cfaa0 f   libucrt:recalloc.obj
 0001:001ceb38       __acrt_initialize_heap     00000001801cfb38 f   libucrt:heap_handle.obj
 0001:001ceb54       __acrt_uninitialize_heap   00000001801cfb54 f   libucrt:heap_handle.obj
 0001:001ceb60       __acrt_execute_initializers 00000001801cfb60 f   libucrt:shared_initialization.obj
 0001:001cebf4       __acrt_execute_uninitializers 00000001801cfbf4 f   libucrt:shared_initialization.obj
 0001:001cec3c       __acrt_initialize_new_handler 00000001801cfc3c f   libucrt:new_handler.obj
 0001:001cec44       _callnewh                  00000001801cfc44 f   libucrt:new_handler.obj
 0001:001cec80       _query_new_handler         00000001801cfc80 f   libucrt:new_handler.obj
 0001:001cecfc       __acrt_get_sigabrt_handler 00000001801cfcfc f   libucrt:signal.obj
 0001:001ced2c       __acrt_initialize_signal_handlers 00000001801cfd2c f   libucrt:signal.obj
 0001:001ced4c       raise                      00000001801cfd4c f   libucrt:signal.obj
 0001:001cefcc       __acrt_has_user_matherr    00000001801cffcc f   libucrt:matherr.obj
 0001:001cefec       __acrt_initialize_user_matherr 00000001801cffec f   libucrt:matherr.obj
 0001:001ceff4       __acrt_invoke_user_matherr 00000001801cfff4 f   libucrt:matherr.obj
 0001:001cf02c       __pctype_func              00000001801d002c f   libucrt:ctype.obj
 0001:001cf05c       _isctype_l                 00000001801d005c f   libucrt:isctype.obj
 0001:001cf180       _get_fpsr                  00000001801d0180 f   libucrt:fpsr.obj
 0001:001cf190       _set_fpsr                  00000001801d0190 f   libucrt:fpsr.obj
 0001:001cf19a       _fclrf                     00000001801d019a f   libucrt:fpsr.obj
 0001:001cf1ae       _frnd                      00000001801d01ae f   libucrt:fpsr.obj
 0001:001cf1d0       _query_new_mode            00000001801d01d0 f   libucrt:new_mode.obj
 0001:001cf1d8       __acrt_DownlevelLocaleNameToLCID 00000001801d01d8 f   libucrt:lcidtoname_downlevel.obj
 0001:001cf3a0       fclose                     00000001801d03a0 f   libucrt:fclose.obj
 0001:001cf4c4       _commit                    00000001801d04c4 f   libucrt:commit.obj
 0001:001cfd74       _write_internal            00000001801d0d74 f   libucrt:write.obj
 0001:001cfe9c       _write_nolock              00000001801d0e9c f   libucrt:write.obj
 0001:001d01ac       __acrt_lowio_create_handle_array 00000001801d11ac f   libucrt:osfinfo.obj
 0001:001d0254       __acrt_lowio_destroy_handle_array 00000001801d1254 f   libucrt:osfinfo.obj
 0001:001d02a4       __acrt_lowio_ensure_fh_exists 00000001801d12a4 f   libucrt:osfinfo.obj
 0001:001d034c       __acrt_lowio_lock_fh       00000001801d134c f   libucrt:osfinfo.obj
 0001:001d0374       __acrt_lowio_unlock_fh     00000001801d1374 f   libucrt:osfinfo.obj
 0001:001d039c       _free_osfhnd               00000001801d139c f   libucrt:osfinfo.obj
 0001:001d0458       _get_osfhandle             00000001801d1458 f   libucrt:osfinfo.obj
 0001:001d04d0       __acrt_add_locale_ref      00000001801d14d0 f   libucrt:locale_refcounting.obj
 0001:001d055c       __acrt_free_locale         00000001801d155c f   libucrt:locale_refcounting.obj
 0001:001d06d4       __acrt_locale_add_lc_time_reference 00000001801d16d4 f   libucrt:locale_refcounting.obj
 0001:001d06fc       __acrt_locale_free_lc_time_if_unreferenced 00000001801d16fc f   libucrt:locale_refcounting.obj
 0001:001d0734       __acrt_locale_release_lc_time_reference 00000001801d1734 f   libucrt:locale_refcounting.obj
 0001:001d075c       __acrt_release_locale_ref  00000001801d175c f   libucrt:locale_refcounting.obj
 0001:001d0804       __acrt_update_thread_locale_data 00000001801d1804 f   libucrt:locale_refcounting.obj
 0001:001d0874       _updatetlocinfoEx_nolock   00000001801d1874 f   libucrt:locale_refcounting.obj
 0001:001d08dc       __acrt_fp_strflt_to_string 00000001801d18dc f   libucrt:_fptostr.obj
 0001:001d0a60       ?divide@__crt_strtox@@YA_KAEAUbig_integer@1@AEBU21@@Z 00000001801d1a60 f i libucrt:cfout.obj
 0001:001d0eec       __acrt_fltout              00000001801d1eec f   libucrt:cfout.obj
 0001:001d21b4       fegetround                 00000001801d31b4 f   libucrt:fegetround.obj
 0001:001d21c8       ?__c32rtomb_utf8@__crt_mbstring@@YA_KPEAD_UPEAU_Mbstatet@@AEAV__crt_cached_ptd_host@@@Z 00000001801d31c8 f   libucrt:c32rtomb.obj
 0001:001d226c       ?__mbrtowc_utf8@__crt_mbstring@@YA_KPEA_WPEBD_KPEAU_Mbstatet@@AEAV__crt_cached_ptd_host@@@Z 00000001801d326c f   libucrt:mbrtowc.obj
 0001:001d22b0       ?__mbsrtowcs_utf8@__crt_mbstring@@YA_KPEA_WPEAPEBD_KPEAU_Mbstatet@@AEAV__crt_cached_ptd_host@@@Z 00000001801d32b0 f   libucrt:mbrtowc.obj
 0001:001d25c8       __acrt_stdio_flush_and_write_narrow_nolock 00000001801d35c8 f   libucrt:_flsbuf.obj
 0001:001d268c       _isatty                    00000001801d368c f   libucrt:isatty.obj
 0001:001d26ec       __acrt_locale_free_monetary 00000001801d36ec f   libucrt:initmon.obj
 0001:001d27f8       __acrt_locale_free_numeric 00000001801d37f8 f   libucrt:initnum.obj
 0001:001d2898       __acrt_locale_free_time    00000001801d3898 f   libucrt:inittime.obj
 0001:001d29a0       __acrt_GetStringTypeA      00000001801d39a0 f   libucrt:getstringtypea.obj
 0001:001d2b3c       _raise_exc                 00000001801d3b3c f   libucrt:fpexcept.obj
 0001:001d2b64       _raise_exc_ex              00000001801d3b64 f   libucrt:fpexcept.obj
 0001:001d2e74       _raise_excf                00000001801d3e74 f   libucrt:fpexcept.obj
 0001:001d2ea0       _set_errno_from_matherr    00000001801d3ea0 f   libucrt:fpexcept.obj
 0001:001d2ed0       qsort                      00000001801d3ed0 f   libucrt:qsort.obj
 0001:001d32e0       strncpy_s                  00000001801d42e0 f   libucrt:strncpy_s.obj
 0001:001d3470       strpbrk                    00000001801d4470 f   libucrt:strpbrk.obj
 0001:001d3838       _mbsdec                    00000001801d4838 f   libucrt:mbsdec.obj
 0001:001d3840       _mbsdec_l                  00000001801d4840 f   libucrt:mbsdec.obj
 0001:001d3bf4       __acrt_LCMapStringA        00000001801d4bf4 f   libucrt:lcmapstringa.obj
 0001:001d3ca4       _msize_base                00000001801d4ca4 f   libucrt:msize.obj
 0001:001d3ce0       _realloc_base              00000001801d4ce0 f   libucrt:realloc_base.obj
 0001:001d3d5c       __ascii_wcsnicmp           00000001801d4d5c f   libucrt:wcsnicmp.obj
 0001:001d3e20       _close_internal            00000001801d4e20 f   libucrt:close.obj
 0001:001d3ee4       _close_nolock_internal     00000001801d4ee4 f   libucrt:close.obj
 0001:001d3fb4       ?__acrt_stdio_free_stream@@YAXV__crt_stdio_stream@@@Z 00000001801d4fb4 f   libucrt:stream.obj
 0001:001d41a4       _lseeki64                  00000001801d51a4 f   libucrt:lseek.obj
 0001:001d4240       _lseeki64_nolock_internal  00000001801d5240 f   libucrt:lseek.obj
 0001:001d4248       _putwch_nolock             00000001801d5248 f   libucrt:putwch.obj
 0001:001d4284       _query_app_type            00000001801d5284 f   libucrt:report_runtime_error.obj
 0001:001d428c       _controlfp_s               00000001801d528c f   libucrt:contrlfp.obj
 0001:001d42f0       fegetenv                   00000001801d52f0 f   libucrt:fegetenv.obj
 0001:001d4310       fesetenv                   00000001801d5310 f   libucrt:fesetenv.obj
 0001:001d435c       feholdexcept               00000001801d535c f   libucrt:feholdexcept.obj
 0001:001d43ac       ceil                       00000001801d53ac f   libucrt:ceil.obj
 0001:001d4470       log10                      00000001801d5470 f   libucrt:log10.obj
 0001:001d4a1c       __acrt_fenv_get_common_round_control 00000001801d5a1c f   libucrt:_fenvutils.obj
 0001:001d4a28       __acrt_fenv_get_control    00000001801d5a28 f   libucrt:_fenvutils.obj
 0001:001d4b0c       __acrt_fenv_get_status     00000001801d5b0c f   libucrt:_fenvutils.obj
 0001:001d4b64       __acrt_fenv_set_control    00000001801d5b64 f   libucrt:_fenvutils.obj
 0001:001d4ca0       __acrt_fenv_set_status     00000001801d5ca0 f   libucrt:_fenvutils.obj
 0001:001d4d14       ?reset_and_return@__crt_mbstring@@YA_K_KPEAU_Mbstatet@@@Z 00000001801d5d14 f   libucrt:common_utf8.obj
 0001:001d4d1c       ?return_illegal_sequence@__crt_mbstring@@YA_KPEAU_Mbstatet@@AEAV__crt_cached_ptd_host@@@Z 00000001801d5d1c f   libucrt:common_utf8.obj
 0001:001d4d30       ?__mbrtoc32_utf8@__crt_mbstring@@YA_KPEA_UPEBD_KPEAU_Mbstatet@@AEAV__crt_cached_ptd_host@@@Z 00000001801d5d30 f   libucrt:mbrtoc32.obj
 0001:001d4f0c       __acrt_stdio_allocate_buffer_nolock 00000001801d5f0c f   libucrt:_getbuf.obj
 0001:001d4f78       __strncnt                  00000001801d5f78 f   libucrt:strncnt.obj
 0001:001d4f90       __dcrt_lowio_ensure_console_output_initialized 00000001801d5f90 f   libucrt:initcon.obj
 0001:001d4fe4       __dcrt_terminate_console_output 00000001801d5fe4 f   libucrt:initcon.obj
 0001:001d5000       __dcrt_write_console       00000001801d6000 f   libucrt:initcon.obj
 0001:001d50c0       _clearfp                   00000001801d60c0 f   libucrt:ieee.obj
 0001:001d5130       _control87                 00000001801d6130 f   libucrt:ieee.obj
 0001:001d5400       _log10_special             00000001801d6400 f   libucrt:log_special.obj
 0001:001d54c0       _FindPESection             00000001801d64c0 f   LIBCMT:pesect.obj
 0001:001d5510       _IsNonwritableInCurrentImage 00000001801d6510 f   LIBCMT:pesect.obj
 0001:001d5560       _ValidateImageBase         00000001801d6560 f   LIBCMT:pesect.obj
 0001:001d558c       __GSHandlerCheck           00000001801d658c f   LIBCMT:gshandler.obj
 0001:001d55ac       __GSHandlerCheckCommon     00000001801d65ac f   LIBCMT:gshandler.obj
 0001:001d5620       __security_check_cookie    00000001801d6620 f   LIBCMT:amdsecgs.obj
 0001:001d5640       __GSHandlerCheck_SEH       00000001801d6640 f   LIBCMT:gshandlerseh.obj
 0001:001d56c8       __raise_securityfailure    00000001801d66c8 f   LIBCMT:gs_report.obj
 0001:001d56fc       __report_gsfailure         00000001801d66fc f   LIBCMT:gs_report.obj
 0001:001d57d0       __report_rangecheckfailure 00000001801d67d0 f   LIBCMT:gs_report.obj
 0001:001d57e4       __report_securityfailure   00000001801d67e4 f   LIBCMT:gs_report.obj
 0001:001d5964       __GSHandlerCheck_EH        00000001801d6964 f   LIBCMT:gshandlereh.obj
 0001:001d59e4       __C_specific_handler_noexcept 00000001801d69e4 f   libvcruntime:chandler_noexcept.obj
 0001:001d5a30       strrchr                    00000001801d6a30 f   libvcruntime:strrchr.obj
 0001:001d5b80       memcmp                     00000001801d6b80 f   libvcruntime:memcmp.obj
 0001:001d5c60       _guard_dispatch_icall_nop  00000001801d6c60 f   LIBCMT:guard_dispatch.obj
 0001:001d5c80       _guard_xfg_dispatch_icall_nop 00000001801d6c80 f   LIBCMT:guard_xfg_dispatch.obj
 0002:00000000       __imp_GetLastError         00000001801d8000     kernel32:KERNEL32.dll
 0002:00000008       __imp_FreeLibrary          00000001801d8008     kernel32:KERNEL32.dll
 0002:00000010       __imp_GetProcAddress       00000001801d8010     kernel32:KERNEL32.dll
 0002:00000018       __imp_LoadLibraryA         00000001801d8018     kernel32:KERNEL32.dll
 0002:00000020       __imp_WriteConsoleW        00000001801d8020     kernel32:KERNEL32.dll
 0002:00000028       __imp_RaiseException       00000001801d8028     kernel32:KERNEL32.dll
 0002:00000030       __imp_GetSystemInfo        00000001801d8030     kernel32:KERNEL32.dll
 0002:00000038       __imp_VirtualProtect       00000001801d8038     kernel32:KERNEL32.dll
 0002:00000040       __imp_VirtualQuery         00000001801d8040     kernel32:KERNEL32.dll
 0002:00000048       __imp_GetModuleHandleW     00000001801d8048     kernel32:KERNEL32.dll
 0002:00000050       __imp_LoadLibraryExA       00000001801d8050     kernel32:KERNEL32.dll
 0002:00000058       __imp_InitializeSListHead  00000001801d8058     kernel32:KERNEL32.dll
 0002:00000060       __imp_RtlCaptureContext    00000001801d8060     kernel32:KERNEL32.dll
 0002:00000068       __imp_RtlLookupFunctionEntry 00000001801d8068     kernel32:KERNEL32.dll
 0002:00000070       __imp_RtlVirtualUnwind     00000001801d8070     kernel32:KERNEL32.dll
 0002:00000078       __imp_IsDebuggerPresent    00000001801d8078     kernel32:KERNEL32.dll
 0002:00000080       __imp_UnhandledExceptionFilter 00000001801d8080     kernel32:KERNEL32.dll
 0002:00000088       __imp_SetUnhandledExceptionFilter 00000001801d8088     kernel32:KERNEL32.dll
 0002:00000090       __imp_GetStartupInfoW      00000001801d8090     kernel32:KERNEL32.dll
 0002:00000098       __imp_IsProcessorFeaturePresent 00000001801d8098     kernel32:KERNEL32.dll
 0002:000000a0       __imp_QueryPerformanceCounter 00000001801d80a0     kernel32:KERNEL32.dll
 0002:000000a8       __imp_GetCurrentProcessId  00000001801d80a8     kernel32:KERNEL32.dll
 0002:000000b0       __imp_GetCurrentThreadId   00000001801d80b0     kernel32:KERNEL32.dll
 0002:000000b8       __imp_GetSystemTimeAsFileTime 00000001801d80b8     kernel32:KERNEL32.dll
 0002:000000c0       __imp_InterlockedPushEntrySList 00000001801d80c0     kernel32:KERNEL32.dll
 0002:000000c8       __imp_InterlockedFlushSList 00000001801d80c8     kernel32:KERNEL32.dll
 0002:000000d0       __imp_RtlUnwindEx          00000001801d80d0     kernel32:KERNEL32.dll
 0002:000000d8       __imp_SetLastError         00000001801d80d8     kernel32:KERNEL32.dll
 0002:000000e0       __imp_EnterCriticalSection 00000001801d80e0     kernel32:KERNEL32.dll
 0002:000000e8       __imp_LeaveCriticalSection 00000001801d80e8     kernel32:KERNEL32.dll
 0002:000000f0       __imp_DeleteCriticalSection 00000001801d80f0     kernel32:KERNEL32.dll
 0002:000000f8       __imp_InitializeCriticalSectionAndSpinCount 00000001801d80f8     kernel32:KERNEL32.dll
 0002:00000100       __imp_TlsAlloc             00000001801d8100     kernel32:KERNEL32.dll
 0002:00000108       __imp_TlsGetValue          00000001801d8108     kernel32:KERNEL32.dll
 0002:00000110       __imp_TlsSetValue          00000001801d8110     kernel32:KERNEL32.dll
 0002:00000118       __imp_TlsFree              00000001801d8118     kernel32:KERNEL32.dll
 0002:00000120       __imp_LoadLibraryExW       00000001801d8120     kernel32:KERNEL32.dll
 0002:00000128       __imp_EncodePointer        00000001801d8128     kernel32:KERNEL32.dll
 0002:00000130       __imp_RtlPcToFileHeader    00000001801d8130     kernel32:KERNEL32.dll
 0002:00000138       __imp_RtlUnwind            00000001801d8138     kernel32:KERNEL32.dll
 0002:00000140       __imp_GetCurrentProcess    00000001801d8140     kernel32:KERNEL32.dll
 0002:00000148       __imp_ExitProcess          00000001801d8148     kernel32:KERNEL32.dll
 0002:00000150       __imp_TerminateProcess     00000001801d8150     kernel32:KERNEL32.dll
 0002:00000158       __imp_GetModuleHandleExW   00000001801d8158     kernel32:KERNEL32.dll
 0002:00000160       __imp_GetModuleFileNameW   00000001801d8160     kernel32:KERNEL32.dll
 0002:00000168       __imp_HeapAlloc            00000001801d8168     kernel32:KERNEL32.dll
 0002:00000170       __imp_HeapFree             00000001801d8170     kernel32:KERNEL32.dll
 0002:00000178       __imp_FlsAlloc             00000001801d8178     kernel32:KERNEL32.dll
 0002:00000180       __imp_FlsGetValue          00000001801d8180     kernel32:KERNEL32.dll
 0002:00000188       __imp_FlsSetValue          00000001801d8188     kernel32:KERNEL32.dll
 0002:00000190       __imp_FlsFree              00000001801d8190     kernel32:KERNEL32.dll
 0002:00000198       __imp_LCMapStringW         00000001801d8198     kernel32:KERNEL32.dll
 0002:000001a0       __imp_GetStdHandle         00000001801d81a0     kernel32:KERNEL32.dll
 0002:000001a8       __imp_GetFileType          00000001801d81a8     kernel32:KERNEL32.dll
 0002:000001b0       __imp_FindClose            00000001801d81b0     kernel32:KERNEL32.dll
 0002:000001b8       __imp_FindFirstFileExW     00000001801d81b8     kernel32:KERNEL32.dll
 0002:000001c0       __imp_FindNextFileW        00000001801d81c0     kernel32:KERNEL32.dll
 0002:000001c8       __imp_IsValidCodePage      00000001801d81c8     kernel32:KERNEL32.dll
 0002:000001d0       __imp_GetACP               00000001801d81d0     kernel32:KERNEL32.dll
 0002:000001d8       __imp_GetOEMCP             00000001801d81d8     kernel32:KERNEL32.dll
 0002:000001e0       __imp_GetCPInfo            00000001801d81e0     kernel32:KERNEL32.dll
 0002:000001e8       __imp_GetCommandLineA      00000001801d81e8     kernel32:KERNEL32.dll
 0002:000001f0       __imp_GetCommandLineW      00000001801d81f0     kernel32:KERNEL32.dll
 0002:000001f8       __imp_MultiByteToWideChar  00000001801d81f8     kernel32:KERNEL32.dll
 0002:00000200       __imp_WideCharToMultiByte  00000001801d8200     kernel32:KERNEL32.dll
 0002:00000208       __imp_GetEnvironmentStringsW 00000001801d8208     kernel32:KERNEL32.dll
 0002:00000210       __imp_FreeEnvironmentStringsW 00000001801d8210     kernel32:KERNEL32.dll
 0002:00000218       __imp_GetProcessHeap       00000001801d8218     kernel32:KERNEL32.dll
 0002:00000220       __imp_FlushFileBuffers     00000001801d8220     kernel32:KERNEL32.dll
 0002:00000228       __imp_WriteFile            00000001801d8228     kernel32:KERNEL32.dll
 0002:00000230       __imp_GetConsoleOutputCP   00000001801d8230     kernel32:KERNEL32.dll
 0002:00000238       __imp_GetConsoleMode       00000001801d8238     kernel32:KERNEL32.dll
 0002:00000240       __imp_SetStdHandle         00000001801d8240     kernel32:KERNEL32.dll
 0002:00000248       __imp_GetFileSizeEx        00000001801d8248     kernel32:KERNEL32.dll
 0002:00000250       __imp_SetFilePointerEx     00000001801d8250     kernel32:KERNEL32.dll
 0002:00000258       __imp_GetStringTypeW       00000001801d8258     kernel32:KERNEL32.dll
 0002:00000260       __imp_HeapSize             00000001801d8260     kernel32:KERNEL32.dll
 0002:00000268       __imp_HeapReAlloc          00000001801d8268     kernel32:KERNEL32.dll
 0002:00000270       __imp_CloseHandle          00000001801d8270     kernel32:KERNEL32.dll
 0002:00000278       __imp_CreateFileW          00000001801d8278     kernel32:KERNEL32.dll
 0002:00000280       \177KERNEL32_NULL_THUNK_DATA 00000001801d8280     kernel32:KERNEL32.dll
 0002:00000288       __guard_check_icall_fptr   00000001801d8288     LIBCMT:guard_support.obj
 0002:00000290       __guard_xfg_check_icall_fptr 00000001801d8290     LIBCMT:guard_support.obj
 0002:00000298       __guard_dispatch_icall_fptr 00000001801d8298     LIBCMT:guard_support.obj
 0002:000002a0       __guard_xfg_dispatch_icall_fptr 00000001801d82a0     LIBCMT:guard_support.obj
 0002:000002a8       __guard_xfg_table_dispatch_icall_fptr 00000001801d82a8     LIBCMT:guard_support.obj
 0002:000002b0       __castguard_check_failure_os_handled_fptr 00000001801d82b0     LIBCMT:guard_support.obj
 0002:000002b8       __guard_memcpy_fptr        00000001801d82b8     libvcruntime:softmemtag.obj
 0002:000002c0       __xc_a                     00000001801d82c0     LIBCMT:initializers.obj
 0002:00001c98       __xc_z                     00000001801d9c98     LIBCMT:initializers.obj
 0002:00001ca0       __xi_a                     00000001801d9ca0     LIBCMT:initializers.obj
 0002:00001ca8       __acrt_stdio_initializer   00000001801d9ca8     libucrt:stdio_initializer.obj
 0002:00001cb0       __acrt_tran_fma3_initializer 00000001801d9cb0     libucrt:fma3_initializer.obj
 0002:00001cb8       __acrt_multibyte_initializer 00000001801d9cb8     libucrt:multibyte_initializer.obj
 0002:00001cc0       __xi_z                     00000001801d9cc0     LIBCMT:initializers.obj
 0002:00001cc8       __xp_a                     00000001801d9cc8     LIBCMT:initializers.obj
 0002:00001cd0       __acrt_locale_terminator   00000001801d9cd0     libucrt:locale_initializer.obj
 0002:00001cd8       __dcrt_console_output_terminator 00000001801d9cd8     libucrt:console_output_initializer.obj
 0002:00001ce0       __acrt_stdio_terminator    00000001801d9ce0     libucrt:stdio_initializer.obj
 0002:00001ce8       __xp_z                     00000001801d9ce8     LIBCMT:initializers.obj
 0002:00001cf0       __xt_a                     00000001801d9cf0     LIBCMT:initializers.obj
 0002:00001cf8       __xt_z                     00000001801d9cf8     LIBCMT:initializers.obj
 0002:00001d00       ??_C@_08MDGMHCHN@PtrTable@ 00000001801d9d00     CmPtrTable.obj
 0002:00001d0c       ??_C@_04GKJNKENE@void@     00000001801d9d0c     CmPtrTable.obj
 0002:00001d18       ??_C@_07DFEBJDHE@mSingle@  00000001801d9d18     CmPtrTable.obj
 0002:00001d20       ??_C@_05NLHHBMOH@PxU16@    00000001801d9d20     CmPtrTable.obj
 0002:00001d28       ??_C@_06EPKHJPIM@mCount@   00000001801d9d28     CmPtrTable.obj
 0002:00001d30       ??_C@_04DDKJGDCM@bool@     00000001801d9d30     CmPtrTable.obj
 0002:00001d38       ??_C@_0M@DAGELID@mOwnsMemory@ 00000001801d9d38     CmPtrTable.obj
 0002:00001d48       ??_C@_0M@MMPOMMLP@mBufferUsed@ 00000001801d9d48     CmPtrTable.obj
 0002:00001d54       ??_C@_05LMJPANIN@PxU32@    00000001801d9d54     CmPtrTable.obj
 0002:00001d60       ??_C@_09PMLNMEMN@mFreeSlot@ 00000001801d9d60     CmPtrTable.obj
 0002:00001d70       ??_7PxCollection@physx@@6B@ 00000001801d9d70     CmCollection.obj
 0002:00001df0       ??_C@_00CNPNBAHC@@         00000001801d9df0     CmCollection.obj
 0002:00001df8       ??_7Collection@Cm@physx@@6B@ 00000001801d9df8     CmCollection.obj
 0002:00001e80       ??_C@_0GE@GBACBMOC@PxCollection?3?3add?5called?5for?5an@ 00000001801d9e80     CmCollection.obj
 0002:00001ef0       ??_C@_0GJ@IDEKJMKI@C?3?2Users?2mecha?2CLionProjects?2XP@ 00000001801d9ef0     CmCollection.obj
 0002:00001f60       ??_C@_0EM@OMMGDOMK@PxCollection?3?3add?5called?5with?5a@ 00000001801d9f60     CmCollection.obj
 0002:00001fb0       ??_C@_0GL@BKHBBIC@C?3?2Users?2mecha?2CLionProjects?2XP@ 00000001801d9fb0     CmCollection.obj
 0002:00002020       ??_C@_0BM@OIFKLHDN@?$DMallocation?5names?5disabled?$DO@ 00000001801da020     CmCollection.obj
 0002:00002040       ??_7RadixSort@Cm@physx@@6B@ 00000001801da040     CmRadixSort.obj
 0002:00002048       ??_7RadixSortBuffered@Cm@physx@@6B@ 00000001801da048     CmRadixSort.obj
 0002:00002050       ??_C@_0GI@EBIJANCG@C?3?2Users?2mecha?2CLionProjects?2XP@ 00000001801da050     CmRadixSort.obj
 0002:000020c0       __xmm@00000001000000010000000100000001 00000001801da0c0     CmRadixSort.obj
 0002:000020d0       __xmm@00000003000000020000000100000000 00000001801da0d0     CmRadixSort.obj
 0002:000020e0       __real@3d4ccccd            00000001801da0e0     CmVisualization.obj
 0002:000020e4       __real@3e19999a            00000001801da0e4     CmVisualization.obj
 0002:000020e8       __real@3e490fdb            00000001801da0e8     CmVisualization.obj
 0002:000020ec       __real@3e800000            00000001801da0ec     CmVisualization.obj
 0002:000020f0       __real@3e99999a            00000001801da0f0     CmVisualization.obj
 0002:000020f4       __real@3ea0d97c            00000001801da0f4     CmVisualization.obj
 0002:000020f8       __real@3eddb3d7            00000001801da0f8     CmVisualization.obj
 0002:000020fc       __real@3f3504f3            00000001801da0fc     CmVisualization.obj
 0002:00002100       __real@3f800000            00000001801da100     CmVisualization.obj
 0002:00002104       __real@3fc00000            00000001801da104     CmVisualization.obj
 0002:00002108       __real@3fddb3d7            00000001801da108     CmVisualization.obj
 0002:0000210c       __real@40100000            00000001801da10c     CmVisualization.obj
 0002:00002110       __real@40c90fdb            00000001801da110     CmVisualization.obj
 0002:00002114       __real@bfddb3d7            00000001801da114     CmVisualization.obj
 0002:00002118       __real@c0000000            00000001801da118     CmVisualization.obj
 0002:00002120       __xmm@3f800000000000000000000000000000 00000001801da120     CmVisualization.obj
 0002:00002130       __xmm@7fffffff7fffffff7fffffff7fffffff 00000001801da130     CmVisualization.obj
 0002:00002140       __xmm@80000000800000008000000080000000 00000001801da140     CmVisualization.obj
 0002:00002150       ??_C@_0BB@CPDDPFKD@GetUpdatedModule@ 00000001801da150     CmWindowsModuleUpdateLoader.obj
 0002:00002170       ??_C@_0IA@PLKFFDPA@C?3?2Users?2mecha?2CLionProjects?2XP@ 00000001801da170     CmWindowsModuleUpdateLoader.obj
 0002:000021f0       ??_C@_0CP@PGOIOJOO@?$CFs?3?$CFi?3?5loadLibrary?5error?5when?5l@ 00000001801da1f0     CmWindowsModuleUpdateLoader.obj
 0002:00002220       ??_C@_0BA@EGLNOO@PhysXFoundation@ 00000001801da220     CmWindowsDelayLoadHook.obj
 0002:00002230       ??_C@_0M@ILKNCJKN@PhysXCommon@ 00000001801da230     CmWindowsDelayLoadHook.obj
 0002:00002260       __real@3f000000            00000001801da260     GuBox.obj
 0002:00002264       __real@3f7ff972            00000001801da264     GuBox.obj
 0002:00002270       __xmm@000000003a83126f3a83126f3a83126f 00000001801da270     GuBox.obj
 0002:00002280       __xmm@00000000ba83126fba83126fba83126f 00000001801da280     GuBox.obj
 0002:00002290       __xmm@3a83126f3a83126f3a83126f3a83126f 00000001801da290     GuBox.obj
 0002:000022a0       __xmm@ba83126fba83126fba83126fba83126f 00000001801da2a0     GuBox.obj
 0002:000022d0       ??_7EntityReport@Gu@physx@@6B@ 00000001801da2d0     GuSweepsHF.obj
 0002:000022d0       ??_7OverlapCallback@PxBVH@physx@@6B@ 00000001801da2d0     GuQuerySystem.obj
 0002:000022d0       ??_7OverlapReport@Gu@physx@@6B@ 00000001801da2d0     GuCCTSweepTests.obj
 0002:000022d0       ??_7RaycastCallback@PxBVH@physx@@6B@ 00000001801da2d0     GuQuerySystem.obj
 0002:000022d0       ??_7RemapCallback@RTreeCooker@physx@@6B@ 00000001801da2d0     GuCookingTriangleMesh.obj
 0002:000022f0       __real@3b03126f            00000001801da2f0     GuCCTSweepTests.obj
 0002:000022f4       __real@40000000            00000001801da2f4     GuCCTSweepTests.obj
 0002:00002330       ??_7SupportLocal@Gu@physx@@6B@ 00000001801da330     GuGeometryQuery.obj
 0002:00002350       ??_7?$SupportLocalImpl@VBoxV@Gu@physx@@@Gu@physx@@6B@ 00000001801da350     GuGeometryQuery.obj
 0002:00002370       ??_7?$SupportLocalImpl@VConvexHullV@Gu@physx@@@Gu@physx@@6B@ 00000001801da370     GuGeometryQuery.obj
 0002:00002390       ??_C@_0GD@GNNJEEDM@C?3?2Users?2mecha?2CLionProjects?2XP@ 00000001801da390     GuGeometryQuery.obj
 0002:000023f4       __real@30d1b7e9            00000001801da3f4     GuGeometryQuery.obj
 0002:000023f8       __real@322bcc77            00000001801da3f8     GuGeometryQuery.obj
 0002:000023fc       __real@358637bd            00000001801da3fc     GuGeometryQuery.obj
 0002:00002400       __real@3a83126f            00000001801da400     GuGeometryQuery.obj
 0002:00002404       __real@3ccccccd            00000001801da404     GuGeometryQuery.obj
 0002:00002408       __real@3dcccccd            00000001801da408     GuGeometryQuery.obj
 0002:0000240c       __real@49742400            00000001801da40c     GuGeometryQuery.obj
 0002:00002410       __real@7f7fffff            00000001801da410     GuGeometryQuery.obj
 0002:00002414       __real@bf800000            00000001801da414     GuGeometryQuery.obj
 0002:00002420       __xmm@0000000000000000000000003f800000 00000001801da420     GuGeometryQuery.obj
 0002:00002430       __xmm@00000000000000003f80000000000000 00000001801da430     GuGeometryQuery.obj
 0002:00002440       __xmm@00000000000000003f8000003f800000 00000001801da440     GuGeometryQuery.obj
 0002:00002450       __xmm@000000003f8000000000000000000000 00000001801da450     GuGeometryQuery.obj
 0002:00002460       __xmm@000000003f8000003f8000003f800000 00000001801da460     GuGeometryQuery.obj
 0002:00002470       __xmm@00000000ffffffffffffffffffffffff 00000001801da470     GuGeometryQuery.obj
 0002:00002480       __xmm@3d4ccccd3d4ccccd3d4ccccd3d4ccccd 00000001801da480     GuGeometryQuery.obj
 0002:00002490       __xmm@3e19999a3e19999a3e19999a3e19999a 00000001801da490     GuGeometryQuery.obj
 0002:000024a0       __xmm@3e4ccccd3e4ccccd3e4ccccd3e4ccccd 00000001801da4a0     GuGeometryQuery.obj
 0002:000024b0       __xmm@3e8000003e8000003e8000003e800000 00000001801da4b0     GuGeometryQuery.obj
 0002:000024c0       __xmm@3f7ef9db3f7ef9db3f7ef9db3f7ef9db 00000001801da4c0     GuGeometryQuery.obj
 0002:000024d0       __xmm@3f7ff2e53f7ff2e53f7ff2e53f7ff2e5 00000001801da4d0     GuGeometryQuery.obj
 0002:000024e0       __xmm@7f7fffff7f7fffff7f7fffff7f7fffff 00000001801da4e0     GuGeometryQuery.obj
 0002:000024f0       __xmm@bf000000bf000000bf000000bf000000 00000001801da4f0     GuGeometryQuery.obj
 0002:00002520       ??_C@_0GN@OBHDNJEO@C?3?2Users?2mecha?2CLionProjects?2XP@ 00000001801da520     GuMeshFactory.obj
 0002:000025a0       ??_C@_0EM@BDFDGBD@Inserting?5object?5failed?3?5Object@ 00000001801da5a0     GuMeshFactory.obj
 0002:00002610       ??_7CallbackRaycast@RTree@Gu@physx@@6B@ 00000001801da610     GuMidphaseRTree.obj
 0002:00002610       ??_7CallbackRefit@RTree@Gu@physx@@6B@ 00000001801da610     GuTriangleMeshRTree.obj
 0002:00002610       ??_7PxInsertionCallback@physx@@6B@ 00000001801da610     GuMeshFactory.obj
 0002:00002620       ??_7PxCollisionMeshMappingData@physx@@6B@ 00000001801da620     GuMeshFactory.obj
 0002:00002630       ??_7MeshFactory@Gu@physx@@6B@ 00000001801da630     GuMeshFactory.obj
 0002:00002638       ??_7MeshDataBase@Gu@physx@@6B@ 00000001801da638     GuMeshFactory.obj
 0002:00002640       ??_C@_0GN@PKFNHMJ@C?3?2Users?2mecha?2CLionProjects?2XP@ 00000001801da640     GuMeshFactory.obj
 0002:000026b0       ??_7TriangleMeshData@Gu@physx@@6B@ 00000001801da6b0     GuMeshFactory.obj
 0002:000026b8       ??_7RTreeTriangleData@Gu@physx@@6B@ 00000001801da6b8     GuMeshFactory.obj
 0002:000026c0       ??_7BV4TriangleData@Gu@physx@@6B@ 00000001801da6c0     GuMeshFactory.obj
 0002:000026c8       ??_7SoftBodyCollisionData@Gu@physx@@6B@ 00000001801da6c8     GuMeshFactory.obj
 0002:000026d0       ??_7CollisionMeshMappingData@Gu@physx@@6B@ 00000001801da6d0     GuMeshFactory.obj
 0002:000026e0       ??_7SoftBodySimulationData@Gu@physx@@6B@ 00000001801da6e0     GuMeshFactory.obj
 0002:000026f0       ??_C@_0GP@NHELMDAL@Loading?5triangle?5mesh?5failed?3?5D@ 00000001801da6f0     GuMeshFactory.obj
 0002:00002760       ??_C@_0BP@CDOKDACA@RTree?5binary?5image?5load?5error?4@ 00000001801da760     GuMeshFactory.obj
 0002:00002780       ??_C@_0BN@MJPNIELF@BV4?5binary?5image?5load?5error?4@ 00000001801da780     GuMeshFactory.obj
 0002:000027a0       ??_C@_0BO@JDPABAOF@BV32?5binary?5image?5load?5error?4@ 00000001801da7a0     GuMeshFactory.obj
 0002:000027c0       ??_C@_0GD@GELEENEF@C?3?2Users?2mecha?2CLionProjects?2XP@ 00000001801da7c0     GuMeshFactory.obj
 0002:00002830       __xmm@fe7fffff7e7fffff7e7fffff7e7fffff 00000001801da830     GuMeshFactory.obj
 0002:00002860       ??_C@_06EJKDJEDO@PxBase@   00000001801da860     GuMetaData.obj
 0002:00002868       ??_C@_07GFCEJNGM@Valency@  00000001801da868     GuMetaData.obj
 0002:00002870       ??_C@_07NHGKEEIN@mOffset@  00000001801da870     GuMetaData.obj
 0002:00002878       ??_C@_0BB@BAGHBMNJ@BigConvexRawData@ 00000001801da878     GuMetaData.obj
 0002:00002890       ??_C@_07PBDEJAAC@mSubdiv@  00000001801da890     GuMetaData.obj
 0002:00002898       ??_C@_0L@HNPACPGH@mNbSamples@ 00000001801da898     GuMetaData.obj
 0002:000028a4       ??_C@_04NCKNBPPK@PxU8@     00000001801da8a4     GuMetaData.obj
 0002:000028b0       ??_C@_08DEPEKJNI@mSamples@ 00000001801da8b0     GuMetaData.obj
 0002:000028c0       ??_C@_08IJDNJBMI@mNbVerts@ 00000001801da8c0     GuMetaData.obj
 0002:000028d0       ??_C@_0M@MMKMIJAF@mNbAdjVerts@ 00000001801da8d0     GuMetaData.obj
 0002:000028e0       ??_C@_0L@EOKMNILC@mValencies@ 00000001801da8e0     GuMetaData.obj
 0002:000028f0       ??_C@_0P@DLGEAMHJ@mAdjacentVerts@ 00000001801da8f0     GuMetaData.obj
 0002:00002900       ??_C@_03NGLDENDA@SDF@      00000001801da900     GuMetaData.obj
 0002:00002904       ??_C@_06KDGGGLIJ@PxVec3@   00000001801da904     GuMetaData.obj
 0002:0000290c       ??_C@_06GIEBFILM@PxReal@   00000001801da90c     GuMetaData.obj
 0002:00002918       ??_C@_0O@PFOPBKAM@BigConvexData@ 00000001801da918     GuMetaData.obj
 0002:00002928       ??_C@_05PLKALGFN@mData@    00000001801da928     GuMetaData.obj
 0002:00002930       ??_C@_08PEMCLHEM@mVBuffer@ 00000001801da930     GuMetaData.obj
 0002:00002940       ??_C@_09FBMAGD@Alignment@  00000001801da940     GuMetaData.obj
 0002:00002950       ??_C@_0BE@KFHIBEEA@InternalObjectsData@ 00000001801da950     GuMetaData.obj
 0002:00002968       ??_C@_07NKGFFIBH@mRadius@  00000001801da968     GuMetaData.obj
 0002:00002970       ??_C@_08EHFCACAE@mExtents@ 00000001801da970     GuMetaData.obj
 0002:00002980       ??_C@_0BA@LFMGGCBK@HullPolygonData@ 00000001801da980     GuMetaData.obj
 0002:00002990       ??_C@_06BOHHGLB@mPlane@    00000001801da990     GuMetaData.obj
 0002:00002998       ??_C@_06EHMLHGLN@mVRef8@   00000001801da998     GuMetaData.obj
 0002:000029a0       ??_C@_09BAHHHINI@mMinIndex@ 00000001801da9a0     GuMetaData.obj
 0002:000029b0       ??_C@_0P@GBLBPIPB@ConvexHullData@ 00000001801da9b0     GuMetaData.obj
 0002:000029c0       ??_C@_09JDCJAPKD@PxBounds3@ 00000001801da9c0     GuMetaData.obj
 0002:000029cc       ??_C@_05NDNHIFA@mAABB@     00000001801da9cc     GuMetaData.obj
 0002:000029d8       ??_C@_0O@LNOGEMJI@mCenterOfMass@ 00000001801da9d8     GuMetaData.obj
 0002:000029e8       ??_C@_09CNMCBBKH@mPolygons@ 00000001801da9e8     GuMetaData.obj
 0002:000029f8       ??_C@_0BC@KKPDCFJC@mBigConvexRawData@ 00000001801da9f8     GuMetaData.obj
 0002:00002a10       ??_C@_08MPNAAJLD@mSdfData@ 00000001801daa10     GuMetaData.obj
 0002:00002a20       ??_C@_08ELDMKGKH@mNbEdges@ 00000001801daa20     GuMetaData.obj
 0002:00002a30       ??_C@_0BA@CGLOHBAC@mNbHullVertices@ 00000001801daa30     GuMetaData.obj
 0002:00002a40       ??_C@_0M@HGFFLLDM@mNbPolygons@ 00000001801daa40     GuMetaData.obj
 0002:00002a50       ??_C@_09BHJEMDGO@mInternal@ 00000001801daa50     GuMetaData.obj
 0002:00002a60       ??_C@_0L@GMFHOMKA@ConvexMesh@ 00000001801daa60     GuMetaData.obj
 0002:00002a70       ??_C@_09ILEBDLJH@mHullData@ 00000001801daa70     GuMetaData.obj
 0002:00002a7c       ??_C@_03DKDIKGNC@mNb@      00000001801daa7c     GuMetaData.obj
 0002:00002a80       ??_C@_0P@ENLHFHMD@mBigConvexData@ 00000001801daa80     GuMetaData.obj
 0002:00002a90       ??_C@_05ILALLCHK@mMass@    00000001801daa90     GuMetaData.obj
 0002:00002a98       ??_C@_07DBPDADGB@PxMat33@  00000001801daa98     GuMetaData.obj
 0002:00002aa0       ??_C@_08FNBHNDBI@mInertia@ 00000001801daaa0     GuMetaData.obj
 0002:00002ab0       ??_C@_0O@FCKNKLMJ@GuMeshFactory@ 00000001801daab0     GuMetaData.obj
 0002:00002ac0       ??_C@_0N@EGBCLMAK@mMeshFactory@ 00000001801daac0     GuMetaData.obj
 0002:00002ad0       ??_C@_0BE@CJJAMAMK@PxHeightFieldSample@ 00000001801daad0     GuMetaData.obj
 0002:00002ae4       ??_C@_05MBLIPEMA@PxI16@    00000001801daae4     GuMetaData.obj
 0002:00002aec       ??_C@_06LNLHEAAG@height@   00000001801daaec     GuMetaData.obj
 0002:00002af8       ??_C@_0N@HHDGHJN@PxBitAndByte@ 00000001801daaf8     GuMetaData.obj
 0002:00002b08       ??_C@_0P@MBBMLBO@materialIndex0@ 00000001801dab08     GuMetaData.obj
 0002:00002b18       ??_C@_0P@BFAKPKFP@materialIndex1@ 00000001801dab18     GuMetaData.obj
 0002:00002b28       ??_C@_0BD@EBLPJEOE@PxHeightFieldFlags@ 00000001801dab28     GuMetaData.obj
 0002:00002b40       ??_C@_0BK@FNNCFFCN@PxHeightFieldFormat?3?3Enum@ 00000001801dab40     GuMetaData.obj
 0002:00002b60       ??_C@_0BA@CLNFMAAA@HeightFieldData@ 00000001801dab60     GuMetaData.obj
 0002:00002b70       ??_C@_04IMCGAIPI@rows@     00000001801dab70     GuMetaData.obj
 0002:00002b78       ??_C@_07HIFEPIJN@columns@  00000001801dab78     GuMetaData.obj
 0002:00002b80       ??_C@_08MOAGOABI@rowLimit@ 00000001801dab80     GuMetaData.obj
 0002:00002b90       ??_C@_08BAGEHOBO@colLimit@ 00000001801dab90     GuMetaData.obj
 0002:00002ba0       ??_C@_09LKDBLADF@nbColumns@ 00000001801daba0     GuMetaData.obj
 0002:00002bb0       ??_C@_07ODIFGGLK@samples@  00000001801dabb0     GuMetaData.obj
 0002:00002bb8       ??_C@_0BE@POHEGOJG@convexEdgeThreshold@ 00000001801dabb8     GuMetaData.obj
 0002:00002bcc       ??_C@_05GECEPKB@flags@     00000001801dabcc     GuMetaData.obj
 0002:00002bd4       ??_C@_06DLEPGFEF@format@   00000001801dabd4     GuMetaData.obj
 0002:00002be0       ??_C@_0BF@MOGDNMPL@PxMaterialTableIndex@ 00000001801dabe0     GuMetaData.obj
 0002:00002bf8       ??_C@_0M@JMJICJJO@HeightField@ 00000001801dabf8     GuMetaData.obj
 0002:00002c08       ??_C@_0O@ENGHMLJP@mSampleStride@ 00000001801dac08     GuMetaData.obj
 0002:00002c18       ??_C@_0L@EBEEMFFB@mMinHeight@ 00000001801dac18     GuMetaData.obj
 0002:00002c28       ??_C@_0L@EAEIFPOF@mMaxHeight@ 00000001801dac28     GuMetaData.obj
 0002:00002c38       ??_C@_0N@FEFJOKKE@mModifyCount@ 00000001801dac38     GuMetaData.obj
 0002:00002c48       ??_C@_09PHDKHCK@RTreePage@ 00000001801dac48     GuMetaData.obj
 0002:00002c54       ??_C@_04LLPOBGED@minx@     00000001801dac54     GuMetaData.obj
 0002:00002c5c       ??_C@_04KCOFCHAC@miny@     00000001801dac5c     GuMetaData.obj
 0002:00002c64       ??_C@_04IJMIHEMB@minz@     00000001801dac64     GuMetaData.obj
 0002:00002c6c       ??_C@_04GGOBOBGO@maxx@     00000001801dac6c     GuMetaData.obj
 0002:00002c74       ??_C@_04HPPKNACP@maxy@     00000001801dac74     GuMetaData.obj
 0002:00002c7c       ??_C@_04FENHIDOM@maxz@     00000001801dac7c     GuMetaData.obj
 0002:00002c84       ??_C@_04HHDFEJON@ptrs@     00000001801dac84     GuMetaData.obj
 0002:00002c8c       ??_C@_05FFEIGAJF@RTree@    00000001801dac8c     GuMetaData.obj
 0002:00002c94       ??_C@_06OMCHPNEO@PxVec4@   00000001801dac94     GuMetaData.obj
 0002:00002ca0       ??_C@_0L@NBIFEFLN@mBoundsMin@ 00000001801daca0     GuMetaData.obj
 0002:00002cb0       ??_C@_0L@MDAOKBNC@mBoundsMax@ 00000001801dacb0     GuMetaData.obj
 0002:00002cc0       ??_C@_0N@NJEHLCOF@mInvDiagonal@ 00000001801dacc0     GuMetaData.obj
 0002:00002cd0       ??_C@_0BA@BEFIGPFG@mDiagonalScaler@ 00000001801dacd0     GuMetaData.obj
 0002:00002ce0       ??_C@_09DICGGKGO@mPageSize@ 00000001801dace0     GuMetaData.obj
 0002:00002cf0       ??_C@_0O@BOFFCNOL@mNumRootPages@ 00000001801dacf0     GuMetaData.obj
 0002:00002d00       ??_C@_0L@JKLGBKAE@mNumLevels@ 00000001801dad00     GuMetaData.obj
 0002:00002d10       ??_C@_0M@PHDOHJGK@mTotalNodes@ 00000001801dad10     GuMetaData.obj
 0002:00002d20       ??_C@_0M@GDGHALAO@mTotalPages@ 00000001801dad20     GuMetaData.obj
 0002:00002d2c       ??_C@_06MHCBBJGP@mFlags@   00000001801dad2c     GuMetaData.obj
 0002:00002d34       ??_C@_06MMNBLHOK@mPages@   00000001801dad34     GuMetaData.obj
 0002:00002d40       ??_C@_0P@JNLGHJNH@SourceMeshBase@ 00000001801dad40     GuMetaData.obj
 0002:00002d50       ??_C@_06JFCLJMNN@mVerts@   00000001801dad50     GuMetaData.obj
 0002:00002d58       ??_C@_05GNIIDDHH@mType@    00000001801dad58     GuMetaData.obj
 0002:00002d60       ??_C@_06DHAAKLFK@mRemap@   00000001801dad60     GuMetaData.obj
 0002:00002d68       ??_C@_0L@LEOGNOEC@SourceMesh@ 00000001801dad68     GuMetaData.obj
 0002:00002d78       ??_C@_07MPIKOOAP@mNbTris@  00000001801dad78     GuMetaData.obj
 0002:00002d80       ??_C@_0N@FBMOMEHF@mTriangles32@ 00000001801dad80     GuMetaData.obj
 0002:00002d90       ??_C@_0N@DGCGNFBP@mTriangles16@ 00000001801dad90     GuMetaData.obj
 0002:00002da0       ??_C@_0O@NLNHFNO@QuantizedAABB@ 00000001801dada0     GuMetaData.obj
 0002:00002db0       ??_C@_0BC@OOGBEMHH@mData?$FL0?$FN?4mExtents@ 00000001801dadb0     GuMetaData.obj
 0002:00002dc8       ??_C@_0BB@OCEDKIEF@mData?$FL0?$FN?4mCenter@ 00000001801dadc8     GuMetaData.obj
 0002:00002de0       ??_C@_0BC@HFMEAABI@mData?$FL1?$FN?4mExtents@ 00000001801dade0     GuMetaData.obj
 0002:00002df8       ??_C@_0BB@CDMNHHIF@mData?$FL1?$FN?4mCenter@ 00000001801dadf8     GuMetaData.obj
 0002:00002e10       ??_C@_0BC@CFKNCOI@mData?$FL2?$FN?4mExtents@ 00000001801dae10     GuMetaData.obj
 0002:00002e28       ??_C@_0BB@LKCPBBIE@mData?$FL2?$FN?4mCenter@ 00000001801dae28     GuMetaData.obj
 0002:00002e40       ??_C@_0O@MJJKKPFN@BVDataPackedQ@ 00000001801dae40     GuMetaData.obj
 0002:00002e50       ??_C@_0O@JFMLAIPJ@CenterExtents@ 00000001801dae50     GuMetaData.obj
 0002:00002e60       ??_C@_07GNKDIIKJ@mCenter@  00000001801dae60     GuMetaData.obj
 0002:00002e68       ??_C@_0P@KBMJDPLO@BVDataPackedNQ@ 00000001801dae68     GuMetaData.obj
 0002:00002e78       ??_C@_0M@PNCEBOG@LocalBounds@ 00000001801dae78     GuMetaData.obj
 0002:00002e84       ??_C@_05KNFBNCOH@float@    00000001801dae84     GuMetaData.obj
 0002:00002e90       ??_C@_0BC@LADJKHPL@mExtentsMagnitude@ 00000001801dae90     GuMetaData.obj
 0002:00002ea8       ??_C@_07HELIOLAF@BV4Tree@  00000001801daea8     GuMetaData.obj
 0002:00002eb0       ??_C@_0P@EMMDNPMH@mMeshInterface@ 00000001801daeb0     GuMetaData.obj
 0002:00002ec0       ??_C@_0N@DCKMHLCL@mLocalBounds@ 00000001801daec0     GuMetaData.obj
 0002:00002ed0       ??_C@_08EEJOMIJL@mNbNodes@ 00000001801daed0     GuMetaData.obj
 0002:00002edc       ??_C@_06FIIIMFIO@mNodes@   00000001801daedc     GuMetaData.obj
 0002:00002ee8       ??_C@_09FGKNPI@mInitData@  00000001801daee8     GuMetaData.obj
 0002:00002ef8       ??_C@_0BC@CLDEHKCO@mCenterOrMinCoeff@ 00000001801daef8     GuMetaData.obj
 0002:00002f10       ??_C@_0BD@LAOLBNJ@mExtentsOrMaxCoeff@ 00000001801daf10     GuMetaData.obj
 0002:00002f28       ??_C@_0P@JEECKKBL@mUserAllocated@ 00000001801daf28     GuMetaData.obj
 0002:00002f38       ??_C@_0L@GLIMNECG@mQuantized@ 00000001801daf38     GuMetaData.obj
 0002:00002f48       ??_C@_0L@CCOJDAID@mIsEdgeSet@ 00000001801daf48     GuMetaData.obj
 0002:00002f58       ??_C@_08BNDBAGDH@mPadding@ 00000001801daf58     GuMetaData.obj
 0002:00002f68       ??_C@_0N@OJNNNLIB@TriangleMesh@ 00000001801daf68     GuMetaData.obj
 0002:00002f78       ??_C@_0M@OGEDMEAL@mNbVertices@ 00000001801daf78     GuMetaData.obj
 0002:00002f88       ??_C@_0N@MGGDNHNI@mNbTriangles@ 00000001801daf88     GuMetaData.obj
 0002:00002f98       ??_C@_09LNNEGOJA@mVertices@ 00000001801daf98     GuMetaData.obj
 0002:00002fa8       ??_C@_0L@KBOFAKLO@mTriangles@ 00000001801dafa8     GuMetaData.obj
 0002:00002fb8       ??_C@_0P@MHDFIHLD@mExtraTrigData@ 00000001801dafb8     GuMetaData.obj
 0002:00002fc8       ??_C@_0N@MGIKKCI@mGeomEpsilon@ 00000001801dafc8     GuMetaData.obj
 0002:00002fd8       ??_C@_0BB@IFLOOCNA@mMaterialIndices@ 00000001801dafd8     GuMetaData.obj
 0002:00002ff0       ??_C@_0L@OPJMBFMI@mFaceRemap@ 00000001801daff0     GuMetaData.obj
 0002:00003000       ??_C@_0N@BIOECAPM@mAdjacencies@ 00000001801db000     GuMetaData.obj
 0002:00003010       ??_C@_09CICJHLPI@mEdgeList@ 00000001801db010     GuMetaData.obj
 0002:00003020       ??_C@_0BD@IPKCNNIK@mLocalCenterOfMass@ 00000001801db020     GuMetaData.obj
 0002:00003038       ??_C@_0BA@OCOIGPII@mGRB_triIndices@ 00000001801db038     GuMetaData.obj
 0002:00003048       ??_C@_0BE@JPINNDAH@mGRB_triAdjacencies@ 00000001801db048     GuMetaData.obj
 0002:00003060       ??_C@_0P@EDFJJHEF@mGRB_faceRemap@ 00000001801db060     GuMetaData.obj
 0002:00003070       ??_C@_0BG@EEALPPCP@mGRB_faceRemapInverse@ 00000001801db070     GuMetaData.obj
 0002:00003088       ??_C@_0O@CKMBAIFN@mGRB_BV32Tree@ 00000001801db088     GuMetaData.obj
 0002:00003098       ??_C@_0BE@MGIOIICI@mSdfData?4mMeshLower@ 00000001801db098     GuMetaData.obj
 0002:000030b0       ??_C@_0BC@NNEDELGI@mSdfData?4mSpacing@ 00000001801db0b0     GuMetaData.obj
 0002:000030c8       ??_C@_0BB@OHOFDAIL@mSdfData?4mDims?4x@ 00000001801db0c8     GuMetaData.obj
 0002:000030e0       ??_C@_0BB@POPOABMK@mSdfData?4mDims?4y@ 00000001801db0e0     GuMetaData.obj
 0002:000030f8       ??_C@_0BB@NFNDFCAJ@mSdfData?4mDims?4z@ 00000001801db0f8     GuMetaData.obj
 0002:00003110       ??_C@_0BC@GMPBGGPI@mSdfData?4mNumSdfs@ 00000001801db110     GuMetaData.obj
 0002:00003128       ??_C@_0O@BCEBBLNE@mSdfData?4mSdf@ 00000001801db128     GuMetaData.obj
 0002:00003138       ??_C@_0BG@HMHEFHIE@mSdfData?4mSubgridSize@ 00000001801db138     GuMetaData.obj
 0002:00003150       ??_C@_0BI@OFJBKPGB@mSdfData?4mNumStartSlots@ 00000001801db150     GuMetaData.obj
 0002:00003168       ??_C@_0BM@MGEPBEON@mSdfData?4mSubgridStartSlots@ 00000001801db168     GuMetaData.obj
 0002:00003188       ??_C@_0BJ@PKKGJLNM@mSdfData?4mNumSubgridSdfs@ 00000001801db188     GuMetaData.obj
 0002:000031a8       ??_C@_0BF@HLMPGIBH@mSdfData?4mSubgridSdf@ 00000001801db1a8     GuMetaData.obj
 0002:000031c0       ??_C@_0CF@GMJNHGOK@mSdfData?4mSdfSubgrids3DTexBlock@ 00000001801db1c0     GuMetaData.obj
 0002:000031e8       ??_C@_0CF@HFIGEHKL@mSdfData?4mSdfSubgrids3DTexBlock@ 00000001801db1e8     GuMetaData.obj
 0002:00003210       ??_C@_0CF@FOKLBEGI@mSdfData?4mSdfSubgrids3DTexBlock@ 00000001801db210     GuMetaData.obj
 0002:00003238       ??_C@_0BO@EIPCIOJH@mSdfData?4mSubgridsMinSdfValue@ 00000001801db238     GuMetaData.obj
 0002:00003258       ??_C@_0BO@NIIBJOHN@mSdfData?4mSubgridsMaxSdfValue@ 00000001801db258     GuMetaData.obj
 0002:00003278       ??_C@_0BO@GKGODKFG@mSdfData?4mBytesPerSparsePixel@ 00000001801db278     GuMetaData.obj
 0002:00003298       ??_C@_0BJ@LEBGJKBE@mAccumulatedTrianglesRef@ 00000001801db298     GuMetaData.obj
 0002:000032b8       ??_C@_0BF@OJMCNCDP@mTrianglesReferences@ 00000001801db2b8     GuMetaData.obj
 0002:000032d0       ??_C@_0BH@LDGPOFA@mNbTrianglesReferences@ 00000001801db2d0     GuMetaData.obj
 0002:000032e8       ??_C@_0BC@IFGECKF@RTreeTriangleMesh@ 00000001801db2e8     GuMetaData.obj
 0002:000032fc       ??_C@_06JDIHDDGN@mRTree@   00000001801db2fc     GuMetaData.obj
 0002:00003308       ??_C@_0BA@LNNFPOKA@BV4TriangleMesh@ 00000001801db308     GuMetaData.obj
 0002:00003318       ??_C@_08FKLPEGDB@mBV4Tree@ 00000001801db318     GuMetaData.obj
 0002:00003328       ??_7?$SupportLocalImpl@VConvexHullNoScaleV@Gu@physx@@@Gu@physx@@6B@ 00000001801db328     GuMTD.obj
 0002:00003370       ?absMask@?1??FAbs@aos@physx@@YA?AT__m128@@T4@@Z@4QBIB 00000001801db370     GuMTD.obj
 0002:00003380       ??_7GjkConvex@Gu@physx@@6B@ 00000001801db380     GuMTD.obj
 0002:000033b0       ??_7?$LocalConvex@VCapsuleV@Gu@physx@@@Gu@physx@@6B@ 00000001801db3b0     GuMTD.obj
 0002:000033e0       ??_7?$LocalConvex@VConvexHullV@Gu@physx@@@Gu@physx@@6B@ 00000001801db3e0     GuMTD.obj
 0002:00003410       __real@2edbe6ff            00000001801db410     GuMTD.obj
 0002:00003414       __real@34000000            00000001801db414     GuMTD.obj
 0002:00003418       __real@ff7fffff            00000001801db418     GuMTD.obj
 0002:00003420       __xmm@34000000340000003400000034000000 00000001801db420     GuMTD.obj
 0002:00003430       __xmm@358637bd358637bd358637bd358637bd 00000001801db430     GuMTD.obj
 0002:00003440       __xmm@3dcccccd3dcccccd3dcccccd3dcccccd 00000001801db440     GuMTD.obj
 0002:00003450       __xmm@3f7ff1413f7ff1413f7ff1413f7ff141 00000001801db450     GuMTD.obj
 0002:00003460       __xmm@3f8000003f8000003f8000003f800000 00000001801db460     GuMTD.obj
 0002:00003490       ??_7?$RelativeConvex@VBoxV@Gu@physx@@@Gu@physx@@6B@ 00000001801db490     GuOverlapTests.obj
 0002:000034c0       ??_7?$RelativeConvex@VConvexHullV@Gu@physx@@@Gu@physx@@6B@ 00000001801db4c0     GuOverlapTests.obj
 0002:00003520       __real@1e3ce508            00000001801db520     GuRaycastTests.obj
 0002:00003524       __real@28800000            00000001801db524     GuRaycastTests.obj
 0002:00003528       __real@33d6bf95            00000001801db528     GuRaycastTests.obj
 0002:0000352c       __real@3727c5ac            00000001801db52c     GuRaycastTests.obj
 0002:00003530       __real@38d1b717            00000001801db530     GuRaycastTests.obj
 0002:00003534       __real@3f0147ae            00000001801db534     GuRaycastTests.obj
 0002:00003538       __real@3f7ffffe            00000001801db538     GuRaycastTests.obj
 0002:0000353c       __real@3f800347            00000001801db53c     GuRaycastTests.obj
 0002:00003540       __real@41200000            00000001801db540     GuRaycastTests.obj
 0002:00003544       __real@80000000            00000001801db544     GuRaycastTests.obj
 0002:00003548       __real@b3d6bf95            00000001801db548     GuRaycastTests.obj
 0002:0000354c       __real@b8d1b717            00000001801db54c     GuRaycastTests.obj
 0002:00003550       __real@c1200000            00000001801db550     GuRaycastTests.obj
 0002:00003590       ??_7?$MeshHitCallback@UPxGeomRaycastHit@physx@@@Gu@physx@@6B@ 00000001801db590     GuSweepMTD.obj
 0002:000035a0       ??_7MeshMTDGenerationCallback@@6B@ 00000001801db5a0     GuSweepMTD.obj
 0002:000035b0       ??_7MidPhaseQueryLocalReport@@6B@ 00000001801db5b0     GuSweepMTD.obj
 0002:000035c0       __real@3f8147ae            00000001801db5c0     GuSweepMTD.obj
 0002:000035c4       __real@3f933333            00000001801db5c4     GuSweepMTD.obj
 0002:000035f0       __real@3c23d70a            00000001801db5f0     GuSweepSharedTests.obj
 0002:000035f4       __real@42c80000            00000001801db5f4     GuSweepSharedTests.obj
 0002:00003600       __xmm@ffffffffffffffffffffffffffffffff 00000001801db600     GuSweepSharedTests.obj
 0002:00003630       ??_7?$LocalConvex@VBoxV@Gu@physx@@@Gu@physx@@6B@ 00000001801db630     GuSweepTests.obj
 0002:00003660       ??_7?$LocalConvex@VTriangleV@Gu@physx@@@Gu@physx@@6B@ 00000001801db660     GuSweepTests.obj
 0002:00003690       __real@00000000            00000001801db690     GuSweepTests.obj
 0002:000036a0       __xmm@00000002000000020000000200000002 00000001801db6a0     GuSweepTests.obj
 0002:000036b0       __xmm@3eaaaa9f3eaaaa9f3eaaaa9f3eaaaa9f 00000001801db6b0     GuSweepTests.obj
 0002:00003768       ??_7PxRunnable@physx@@6B@  00000001801db768     GuSDF.obj
 0002:00003780       ??_C@_0GF@HDOMHLJG@C?3?2Users?2mecha?2CLionProjects?2XP@ 00000001801db780     GuSDF.obj
 0002:000037e8       ??_7PointOntoTriangleMeshProjector@Gu@physx@@6B@ 00000001801db7e8     GuSDF.obj
 0002:00003800       ??_7?$PxThreadT@V?$PxReflectionAllocator@VPxThreadImpl@physx@@@physx@@@physx@@6B@ 00000001801db800     GuSDF.obj
 0002:00003810       ??_C@_06FJHNOCKE@thread@   00000001801db810     GuSDF.obj
 0002:00003820       ??_C@_0BAK@OPLLKLNG@SDF?5creation?3?5Mesh?5is?5not?5suita@ 00000001801db820     GuSDF.obj
 0002:00003930       ??_C@_0FB@OMEANACP@SDF?5creation?3?5Input?5mesh?5is?5not@ 00000001801db930     GuSDF.obj
 0002:00003990       ??_C@_0GE@MCLFLJMP@C?3?2Users?2mecha?2CLionProjects?2XP@ 00000001801db990     GuSDF.obj
 0002:00003a00       ??_C@_0GC@KANHNFMG@C?3?2Users?2mecha?2CLionProjects?2XP@ 00000001801dba00     GuSDF.obj
 0002:00003a70       ??_C@_0GL@ODJKOCID@C?3?2Users?2mecha?2CLionProjects?2XP@ 00000001801dba70     GuSDF.obj
 0002:00003adc       __real@37800080            00000001801dbadc     GuSDF.obj
 0002:00003ae0       __real@3b808081            00000001801dbae0     GuSDF.obj
 0002:00003ae4       __real@3e2aaaab            00000001801dbae4     GuSDF.obj
 0002:00003ae8       __real@3eaaaaab            00000001801dbae8     GuSDF.obj
 0002:00003aec       __real@3f400000            00000001801dbaec     GuSDF.obj
 0002:00003af0       __real@3f7d70a4            00000001801dbaf0     GuSDF.obj
 0002:00003af4       __real@4996b438            00000001801dbaf4     GuSDF.obj
 0002:00003af8       __real@7e7fffff            00000001801dbaf8     GuSDF.obj
 0002:00003afc       __real@bf000000            00000001801dbafc     GuSDF.obj
 0002:00003b00       __real@fe7fffff            00000001801dbb00     GuSDF.obj
 0002:00003b10       __xmm@00000001000000010000000100000000 00000001801dbb10     GuSDF.obj
 0002:00003b20       __real@437f0000            00000001801dbb20     GuCookingSDF.obj
 0002:00003b24       __real@477fff00            00000001801dbb24     GuCookingSDF.obj
 0002:00003b50       ??_7?$RelativeConvex@UCustomConvexV@@@Gu@physx@@6B@ 00000001801dbb50     GuGjkQuery.obj
 0002:00003b80       ??_7?$LocalConvex@UCustomConvexV@@@Gu@physx@@6B@ 00000001801dbb80     GuGjkQuery.obj
 0002:00003bb0       ??_7?$LocalConvex@UPointConvexV@@@Gu@physx@@6B@ 00000001801dbbb0     GuGjkQuery.obj
 0002:00003be0       __xmm@3f0000003f0000003f0000003f000000 00000001801dbbe0     GuGjkQuery.obj
 0002:00003c10       __real@3da2f983            00000001801dbc10     GuWindingNumber.obj
 0002:00003c14       __real@3e22f983            00000001801dbc14     GuWindingNumber.obj
 0002:00003c18       __real@3f99999a            00000001801dbc18     GuWindingNumber.obj
 0002:00003c80       __real@3c343958            00000001801dbc80     GuCCDSweepConvexMesh.obj
 0002:00003c84       __real@3ca3d70a            00000001801dbc84     GuCCDSweepConvexMesh.obj
 0002:00003c88       __real@3f0ccccd            00000001801dbc88     GuCCDSweepConvexMesh.obj
 0002:00003c8c       __real@3f8ccccd            00000001801dbc8c     GuCCDSweepConvexMesh.obj
 0002:00003c90       __real@b58637bd            00000001801dbc90     GuCCDSweepConvexMesh.obj
 0002:00003cc0       ??_7?$RelativeConvex@VCapsuleV@Gu@physx@@@Gu@physx@@6B@ 00000001801dbcc0     GuCCDSweepPrimitives.obj
 0002:00003cf0       ??_7?$RelativeConvex@VTriangleV@Gu@physx@@@Gu@physx@@6B@ 00000001801dbcf0     GuCCDSweepPrimitives.obj
 0002:00003d20       __real@3ba3d70a            00000001801dbd20     GuCCDSweepPrimitives.obj
 0002:00003d24       __real@501502f9            00000001801dbd24     GuCCDSweepPrimitives.obj
 0002:00003d50       ??_C@_0HE@LDCBHDDP@C?3?2Users?2mecha?2CLionProjects?2XP@ 00000001801dbd50     GuAdjacencies.obj
 0002:00003dc8       ??_C@_0DA@FMEHLBKI@Adjacencies?3?3UpdateLink?3?5invali@ 00000001801dbdc8     GuAdjacencies.obj
 0002:00003e00       ??_C@_0EA@CPHOACLK@Adjacencies?3?3CreateDatabase?3?5ca@ 00000001801dbe00     GuAdjacencies.obj
 0002:00003e40       ??_C@_0HB@PIEGKINK@C?3?2Users?2mecha?2CLionProjects?2XP@ 00000001801dbe40     GuEdgeList.obj
 0002:00003eb8       ??_C@_0CO@GBNJFPN@EdgeList?3?3CreateFacesToEdges?3?5N@ 00000001801dbeb8     GuEdgeList.obj
 0002:00003ee8       ??_C@_0CO@EHJBBMNK@EdgeList?3?3ComputeActiveEdges?3?5N@ 00000001801dbee8     GuEdgeList.obj
 0002:00003f18       ??_C@_0DI@GBHLFOFP@ActiveEdges?3?3ComputeConvexEdges@ 00000001801dbf18     GuEdgeList.obj
 0002:00003f50       ??_C@_0DM@JOGBLHDI@ActiveEdges?3?3ComputeConvexEdges@ 00000001801dbf50     GuEdgeList.obj
 0002:00003f90       ??_C@_0ED@FEMJKPEL@ActiveEdges?3?3ComputeConvexEdges@ 00000001801dbf90     GuEdgeList.obj
 0002:00003fe0       ??_C@_0EB@BFDPMFCD@ActiveEdges?3?3ComputeConvexEdges@ 00000001801dbfe0     GuEdgeList.obj
 0002:00004024       __real@bf7fbe77            00000001801dc024     GuEdgeList.obj
 0002:00004028       ??_7Quantizer@Gu@physx@@6B@ 00000001801dc028     GuQuantizer.obj
 0002:00004050       ??_7QuantizerImpl@@6B@     00000001801dc050     GuQuantizer.obj
 0002:00004080       ??_C@_0HC@KPBDAIIA@C?3?2Users?2mecha?2CLionProjects?2XP@ 00000001801dc080     GuQuantizer.obj
 0002:000040f4       __real@3f0020c5            00000001801dc0f4     GuQuantizer.obj
 0002:000040f8       __real@3f8020c5            00000001801dc0f8     GuQuantizer.obj
 0002:00004100       ??_C@_0HE@JGHKFOGL@C?3?2Users?2mecha?2CLionProjects?2XP@ 00000001801dc100     GuMeshCleaner.obj
 0002:00004174       __real@40800000            00000001801dc174     GuMeshCleaner.obj
 0002:00004180       ??_C@_0HG@NMBFAIEP@C?3?2Users?2mecha?2CLionProjects?2XP@ 00000001801dc180     GuVertexReducer.obj
 0002:000042f0       __real@3f7fbe77            00000001801dc2f0     GuContactBoxBox.obj
 0002:00004340       __real@3f7ff2e5            00000001801dc340     GuContactCapsuleCapsule.obj
 0002:000043d0       __real@358637be            00000001801dc3d0     GuContactCapsuleMesh.obj
 0002:000043d4       __real@ba83126f            00000001801dc3d4     GuContactCapsuleMesh.obj
 0002:00004430       ??_7ConvexMeshContactGenerationCallback@@6B@ 00000001801dc430     GuContactConvexMesh.obj
 0002:000044b0       __real@3ec90fdb            00000001801dc4b0     GuContactPolygonPolygon.obj
 0002:000044b4       __real@3f490fdb            00000001801dc4b4     GuContactPolygonPolygon.obj
 0002:000044b8       __real@3f96cbe4            00000001801dc4b8     GuContactPolygonPolygon.obj
 0002:000044bc       __real@3fc90fdb            00000001801dc4bc     GuContactPolygonPolygon.obj
 0002:000044c0       __real@3ffb53d2            00000001801dc4c0     GuContactPolygonPolygon.obj
 0002:000044c4       __real@4016cbe4            00000001801dc4c4     GuContactPolygonPolygon.obj
 0002:000044c8       __real@402feddf            00000001801dc4c8     GuContactPolygonPolygon.obj
 0002:00004530       ??_C@_0HG@IOJGGMGL@C?3?2Users?2mecha?2CLionProjects?2XP@ 00000001801dc530     GuBigConvexData.obj
 0002:000045d0       ??_C@_0N@CDGINLLF@PxConvexMesh@ 00000001801dc5d0     GuConvexMesh.obj
 0002:000045e0       ??_7PxBase@physx@@6B@      00000001801dc5e0     GuConvexMesh.obj
 0002:00004608       ??_C@_0CE@IDAGNPDH@isKindOf?5called?5with?5invalid?5st@ 00000001801dc608     GuConvexMesh.obj
 0002:00004630       ??_C@_0N@OPPDBGAG@PxRefCounted@ 00000001801dc630     GuConvexMesh.obj
 0002:00004640       ??_C@_0GG@PKAEDAEP@C?3?2Users?2mecha?2CLionProjects?2XP@ 00000001801dc640     GuConvexMesh.obj
 0002:000046a8       ??_7ConvexMesh@Gu@physx@@6B@ 00000001801dc6a8     GuConvexMesh.obj
 0002:00004740       ??_C@_0HD@DCCLBBFE@C?3?2Users?2mecha?2CLionProjects?2XP@ 00000001801dc740     GuConvexMesh.obj
 0002:000047b8       ??_C@_0DM@NEJKOFIP@Loading?5convex?5mesh?5failed?3?5Dep@ 00000001801dc7b8     GuConvexMesh.obj
 0002:000047f8       ??_C@_0DB@PAHEPIEL@PxConvexMesh?3?3release?3?5double?5d@ 00000001801dc7f8     GuConvexMesh.obj
 0002:00004830       ??_C@_0GL@PFDJFCAI@C?3?2Users?2mecha?2CLionProjects?2XP@ 00000001801dc830     GuConvexMesh.obj
 0002:000048c0       __xmm@000000000000000000000000ffffffff 00000001801dc8c0     GuConvexSupportTable.obj
 0002:000048d0       __xmm@0000000000000000ffffffff00000000 00000001801dc8d0     GuConvexSupportTable.obj
 0002:000048e0       __xmm@0000000000000000ffffffffffffffff 00000001801dc8e0     GuConvexSupportTable.obj
 0002:000048f0       __xmm@00000000ffffffff0000000000000000 00000001801dc8f0     GuConvexSupportTable.obj
 0002:00004900       __xmm@00000000ffffffff00000000ffffffff 00000001801dc900     GuConvexSupportTable.obj
 0002:00004910       __xmm@00000000ffffffffffffffff00000000 00000001801dc910     GuConvexSupportTable.obj
 0002:000049a0       __xmm@2b8cbccc2b8cbccc2b8cbccc2b8cbccc 00000001801dc9a0     GuDistancePointTriangle.obj
 0002:00004a10       __real@2b8cbccc            00000001801dca10     GuDistanceSegmentTriangle.obj
 0002:00004a20       __xmm@3f8000013f8000013f8000013f800001 00000001801dca20     GuDistanceSegmentTriangle.obj
 0002:00004a30       __xmm@b4000000b4000000b4000000b4000000 00000001801dca30     GuDistanceSegmentTriangle.obj
 0002:00004a60       __real@26901d7d            00000001801dca60     GuDistanceTriangleTriangle.obj
 0002:00004ae0       __xmm@38d1b71738d1b71738d1b71738d1b717 00000001801dcae0     GuGJKSimplex.obj
 0002:00004b10       ??_C@_0O@PBAKPCEC@PxHeightField@ 00000001801dcb10     GuHeightField.obj
 0002:00004b20       ??_C@_0GH@MILBGDK@C?3?2Users?2mecha?2CLionProjects?2XP@ 00000001801dcb20     GuHeightField.obj
 0002:00004b88       ??_7HeightField@Gu@physx@@6B@ 00000001801dcb88     GuHeightField.obj
 0002:00004c40       ??_C@_0DC@BDMMBOKH@PxHeightField?3?3release?3?5double?5@ 00000001801dcc40     GuHeightField.obj
 0002:00004c80       ??_C@_0HA@LHLKGDMO@C?3?2Users?2mecha?2CLionProjects?2XP@ 00000001801dcc80     GuHeightField.obj
 0002:00004cf0       ??_C@_0CI@DMKEKGNK@Gu?3?3HeightField?3?3load?3?5PX_ALLOC@ 00000001801dccf0     GuHeightField.obj
 0002:00004d20       ??_C@_0GE@IGJBPAAD@C?3?2Users?2mecha?2CLionProjects?2XP@ 00000001801dcd20     GuHeightField.obj
 0002:00004db0       __real@3a03126f            00000001801dcdb0     GuHeightFieldUtil.obj
 0002:00004db4       __real@3f19999a            00000001801dcdb4     GuHeightFieldUtil.obj
 0002:00004dc0       __xmm@40000000000000000000000000000000 00000001801dcdc0     GuHeightFieldUtil.obj
 0002:00004e50       ??_7HeightFieldTraceSegmentReport@@6B@ 00000001801dce50     GuSweepsHF.obj
 0002:00004e60       ??_7CapsuleTraceSegmentReport@@6B@ 00000001801dce60     GuSweepsHF.obj
 0002:00004e70       ??_7ConvexTraceSegmentReport@@6B@ 00000001801dce70     GuSweepsHF.obj
 0002:00004e80       ??_7BoxTraceSegmentReport@@6B@ 00000001801dce80     GuSweepsHF.obj
 0002:00004e90       __real@aedbe6ff            00000001801dce90     GuSweepsHF.obj
 0002:00004ec0       __real@3089705f            00000001801dcec0     GuIntersectionRayBox.obj
 0002:00004ec4       __real@b4000000            00000001801dcec4     GuIntersectionRayBox.obj
 0002:00004ed0       __xmm@000000003089705f3089705f3089705f 00000001801dced0     GuIntersectionRayBox.obj
 0002:00004ee0       __xmm@00000000bf800000bf800000bf800000 00000001801dcee0     GuIntersectionRayBox.obj
 0002:00004f30       ??_7SourceMeshBase@Gu@physx@@6B@ 00000001801dcf30     GuBV4.obj
 0002:00004f58       ??_7SourceMesh@Gu@physx@@6B@ 00000001801dcf58     GuBV4.obj
 0002:00004f80       ??_7TetrahedronSourceMesh@Gu@physx@@6B@ 00000001801dcf80     GuBV4.obj
 0002:00004fb0       ??_C@_0GK@HBMBJIJ@C?3?2Users?2mecha?2CLionProjects?2XP@ 00000001801dcfb0     GuBV4.obj
 0002:00005020       __xmm@ff7fffffff7fffffff7fffffff7fffff 00000001801dd020     GuBV4.obj
 0002:00005050       ??_C@_0GP@KDNIJAPI@C?3?2Users?2mecha?2CLionProjects?2XP@ 00000001801dd050     GuBV4Build.obj
 0002:000050c0       __real@38000100            00000001801dd0c0     GuBV4Build.obj
 0002:000050c4       __real@3e93cd3a            00000001801dd0c4     GuBV4Build.obj
 0002:000050c8       __real@46fffe00            00000001801dd0c8     GuBV4Build.obj
 0002:000050cc       __real@be93cd3a            00000001801dd0cc     GuBV4Build.obj
 0002:000050f0       __xmm@0000ffff0000ffff0000ffff0000ffff 00000001801dd0f0     GuBV4_AABBSweep.obj
 0002:00005100       __xmm@3089705f3089705f3089705f3089705f 00000001801dd100     GuBV4_AABBSweep.obj
 0002:00005110       __xmm@33d6bf9533d6bf9533d6bf9533d6bf95 00000001801dd110     GuBV4_AABBSweep.obj
 0002:00005120       __xmm@40000000400000004000000040000000 00000001801dd120     GuBV4_AABBSweep.obj
 0002:000051b0       __xmm@322bcc77322bcc77322bcc77322bcc77 00000001801dd1b0     GuBV4_MeshMeshOverlap.obj
 0002:00005220       __real@4f7fffff            00000001801dd220     GuBV4_SphereOverlap.obj
 0002:00005270       __xmm@000000007f7fffff0000000000000000 00000001801dd270     GuMidphaseBV4.obj
 0002:000052e0       ??_C@_0FD@EHCCILIF@Adjacency?5information?5not?5creat@ 00000001801dd2e0     GuMeshQuery.obj
 0002:00005340       ??_C@_0HA@LEFCJLKF@C?3?2Users?2mecha?2CLionProjects?2XP@ 00000001801dd340     GuMeshQuery.obj
 0002:000053b0       ??_C@_0FL@BKNMAHIA@PxMeshQuery?3?3findOverlapTriangl@ 00000001801dd3b0     GuMeshQuery.obj
 0002:0000540c       __real@4cbebc20            00000001801dd40c     GuMeshQuery.obj
 0002:00005430       ??_7Callback@RTree@Gu@physx@@6B@ 00000001801dd430     GuMidphaseRTree.obj
 0002:00005448       ??_7?$RayRTreeCallback@$00$0A@@@6BCallbackRaycast@RTree@Gu@physx@@@ 00000001801dd448     GuMidphaseRTree.obj
 0002:00005448       ??_7?$RayRTreeCallback@$0A@$0A@@@6BCallbackRaycast@RTree@Gu@physx@@@ 00000001801dd448     GuMidphaseRTree.obj
 0002:00005458       ??_7?$RayRTreeCallback@$00$0A@@@6BCallback@RTree@Gu@physx@@@ 00000001801dd458     GuMidphaseRTree.obj
 0002:00005458       ??_7?$RayRTreeCallback@$0A@$0A@@@6BCallback@RTree@Gu@physx@@@ 00000001801dd458     GuMidphaseRTree.obj
 0002:00005470       ??_7RayMeshColliderCallback@@6B@ 00000001801dd470     GuMidphaseRTree.obj
 0002:00005480       ??_C@_0EN@DPPFLBLF@Point?9mesh?5distance?5query?5not?5s@ 00000001801dd480     GuMidphaseRTree.obj
 0002:000054d0       ??_C@_0HE@PHPJJNEN@C?3?2Users?2mecha?2CLionProjects?2XP@ 00000001801dd4d0     GuMidphaseRTree.obj
 0002:00005548       ??_7?$RayRTreeCallback@$0A@$00@@6BCallbackRaycast@RTree@Gu@physx@@@ 00000001801dd548     GuMidphaseRTree.obj
 0002:00005558       ??_7?$RayRTreeCallback@$0A@$00@@6BCallback@RTree@Gu@physx@@@ 00000001801dd558     GuMidphaseRTree.obj
 0002:00005570       ??_7?$RayRTreeCallback@$00$00@@6BCallbackRaycast@RTree@Gu@physx@@@ 00000001801dd570     GuMidphaseRTree.obj
 0002:00005580       ??_7?$RayRTreeCallback@$00$00@@6BCallback@RTree@Gu@physx@@@ 00000001801dd580     GuMidphaseRTree.obj
 0002:00005600       __xmm@7f7fffff000000000000000000000000 00000001801dd600     GuMidphaseRTree.obj
 0002:00005680       ??_7?$PxReportCallback@UPxGeomIndexPair@physx@@@physx@@6B@ 00000001801dd680     GuOverlapTestsMesh.obj
 0002:000056a0       ??_C@_0EP@CEFGCJKJ@PxGeometryQuery?3?3overlap?$CI?$CJ?3?5onl@ 00000001801dd6a0     GuOverlapTestsMesh.obj
 0002:000056f0       ??_C@_0HH@ECJGEBGI@C?3?2Users?2mecha?2CLionProjects?2XP@ 00000001801dd6f0     GuOverlapTestsMesh.obj
 0002:00005790       ?MN@RTreePage@Gu@physx@@2MB 00000001801dd790     GuRTree.obj
 0002:00005794       ?MX@RTreePage@Gu@physx@@2MB 00000001801dd794     GuRTree.obj
 0002:000057a0       ??_C@_0GM@EGJELEDJ@C?3?2Users?2mecha?2CLionProjects?2XP@ 00000001801dd7a0     GuRTree.obj
 0002:00005880       ??_7SweepShapeMeshHitCallback@Gu@physx@@6B@ 00000001801dd880     GuSweepsMesh.obj
 0002:00005890       ??_7SweepCapsuleMeshHitCallback@Gu@physx@@6B@ 00000001801dd890     GuSweepsMesh.obj
 0002:000058a0       ??_7SweepBoxMeshHitCallback@Gu@physx@@6B@ 00000001801dd8a0     GuSweepsMesh.obj
 0002:000058b0       ??_7SweepConvexMeshHitCallback@Gu@physx@@6B@ 00000001801dd8b0     GuSweepsMesh.obj
 0002:000058e0       ??_C@_0P@GGNFNHKF@PxTriangleMesh@ 00000001801dd8e0     GuTriangleMesh.obj
 0002:000058f0       ??_C@_0GI@CBFIMAAE@C?3?2Users?2mecha?2CLionProjects?2XP@ 00000001801dd8f0     GuTriangleMesh.obj
 0002:00005958       ??_7TriangleMesh@Gu@physx@@6B@ 00000001801dd958     GuTriangleMesh.obj
 0002:00005a30       ??_C@_0DD@LOOPMCGG@PxTriangleMesh?3?3release?3?5double@ 00000001801dda30     GuTriangleMesh.obj
 0002:00005a70       ??_C@_0FH@PMPAJDGI@PxTriangleMesh?3?3getVerticesForM@ 00000001801dda70     GuTriangleMesh.obj
 0002:00005ad0       ??_C@_0HD@MHLLOLF@C?3?2Users?2mecha?2CLionProjects?2XP@ 00000001801ddad0     GuTriangleMesh.obj
 0002:00005b50       ??_C@_0EF@GMNFLDH@PxTriangleMesh?3?3refitBVH?$CI?$CJ?5is?5n@ 00000001801ddb50     GuTriangleMesh.obj
 0002:00005ba0       __xmm@38383838383838383838383838383838 00000001801ddba0     GuTriangleMesh.obj
 0002:00005bd0       ??_C@_0BE@CNJKIINO@PxBVH34TriangleMesh@ 00000001801ddbd0     GuTriangleMeshBV4.obj
 0002:00005be8       ??_7BV4TriangleMesh@Gu@physx@@6B@ 00000001801ddbe8     GuTriangleMeshBV4.obj
 0002:00005cc0       ??_C@_0EF@JLFNNPLP@BVH34?5trees?3?5refit?5operation?5on@ 00000001801ddcc0     GuTriangleMeshBV4.obj
 0002:00005d10       ??_C@_0HG@ECKMFIOP@C?3?2Users?2mecha?2CLionProjects?2XP@ 00000001801ddd10     GuTriangleMeshBV4.obj
 0002:00005d88       __real@3951b717            00000001801ddd88     GuTriangleMeshBV4.obj
 0002:00005db0       ??_C@_0BE@EIFHCCBO@PxBVH33TriangleMesh@ 00000001801dddb0     GuTriangleMeshRTree.obj
 0002:00005dc8       ??_7RTreeTriangleMesh@Gu@physx@@6B@ 00000001801dddc8     GuTriangleMeshRTree.obj
 0002:00005ea0       ??_7?$RefitCallback@G@physx@@6B@ 00000001801ddea0     GuTriangleMeshRTree.obj
 0002:00005eb0       ??_7?$RefitCallback@I@physx@@6B@ 00000001801ddeb0     GuTriangleMeshRTree.obj
 0002:00005ee0       ??_C@_0GL@OICAMGIM@C?3?2Users?2mecha?2CLionProjects?2XP@ 00000001801ddee0     GuBV32.obj
 0002:00005f70       ??_C@_0HA@OBJIEFJA@C?3?2Users?2mecha?2CLionProjects?2XP@ 00000001801ddf70     GuBV32Build.obj
 0002:00006000       ??_C@_0BC@FDAIDHBP@PxTetrahedronMesh@ 00000001801de000     GuTetrahedronMesh.obj
 0002:00006020       ??_C@_0GL@GMBGCGFP@C?3?2Users?2mecha?2CLionProjects?2XP@ 00000001801de020     GuTetrahedronMesh.obj
 0002:00006090       ??_C@_0BC@FBICGJIB@PxSoftBodyAuxData@ 00000001801de090     GuTetrahedronMesh.obj
 0002:000060a8       ??_C@_0P@CLLFGFAA@PxSoftBodyMesh@ 00000001801de0a8     GuTetrahedronMesh.obj
 0002:000060b8       ??_7SoftBodyAuxData@Gu@physx@@6B@ 00000001801de0b8     GuTetrahedronMesh.obj
 0002:00006100       ??_7TetrahedronMesh@Gu@physx@@6B@ 00000001801de100     GuTetrahedronMesh.obj
 0002:00006178       ??_7BVTetrahedronMesh@Gu@physx@@6B@ 00000001801de178     GuTetrahedronMesh.obj
 0002:000061f0       ??_7SoftBodyMesh@Gu@physx@@6B@ 00000001801de1f0     GuTetrahedronMesh.obj
 0002:00006270       ??_C@_0DG@JJNMDPMD@PxTetrahedronMesh?3?3release?3?5dou@ 00000001801de270     GuTetrahedronMesh.obj
 0002:000062a8       ??_C@_0DD@GGFGEPII@PxSoftBodyMesh?3?3release?3?5double@ 00000001801de2a8     GuTetrahedronMesh.obj
 0002:000062e0       ??_C@_0HG@KAOPLCHL@C?3?2Users?2mecha?2CLionProjects?2XP@ 00000001801de2e0     GuTetrahedronMesh.obj
 0002:000063a0       __xmm@00000000358637bd358637bd358637bd 00000001801de3a0     GuPCMContactBoxBox.obj
 0002:000063b0       __xmm@3f4ccccd3f4ccccd3f4ccccd3f4ccccd 00000001801de3b0     GuPCMContactBoxBox.obj
 0002:000063c0       __xmm@3f8003473f8003473f8003473f800347 00000001801de3c0     GuPCMContactBoxBox.obj
 0002:000063d0       __xmm@ffffffff00000000ffffffffffffffff 00000001801de3d0     GuPCMContactBoxBox.obj
 0002:00006400       ??_7?$LocalConvex@VConvexHullNoScaleV@Gu@physx@@@Gu@physx@@6B@ 00000001801de400     GuPCMContactBoxConvex.obj
 0002:00006430       __xmm@3f3504f33f3504f33f3504f33f3504f3 00000001801de430     GuPCMContactBoxConvex.obj
 0002:00006480       __xmm@ffffffffffffffffffffffff00000000 00000001801de480     GuPCMContactCapsuleCapsule.obj
 0002:000064b0       __xmm@3fa000003fa000003fa000003fa00000 00000001801de4b0     GuPCMContactCapsuleConvex.obj
 0002:000064e0       ??_7PCMCapsuleVsHeightfieldContactGenerationCallback@@6B@ 00000001801de4e0     GuPCMContactCapsuleHeightField.obj
 0002:000064f0       __real@3f7f3b64            00000001801de4f0     GuPCMContactCapsuleHeightField.obj
 0002:00006540       __xmm@3f7ff9723f7ff9723f7ff9723f7ff972 00000001801de540     GuPCMContactCapsuleMesh.obj
 0002:00006550       __xmm@3f7fffef3f7fffef3f7fffef3f7fffef 00000001801de550     GuPCMContactCapsuleMesh.obj
 0002:00006560       __xmm@60ad78ec60ad78ec60ad78ec60ad78ec 00000001801de560     GuPCMContactCapsuleMesh.obj
 0002:00006590       ??_7?$SupportLocalImpl@VTriangleV@Gu@physx@@@Gu@physx@@6B@ 00000001801de590     GuPCMContactConvexCommon.obj
 0002:000065b0       __xmm@3cf5c2803cf5c2803cf5c2803cf5c280 00000001801de5b0     GuPCMContactConvexCommon.obj
 0002:000065c0       __xmm@3f7851ec3f7851ec3f7851ec3f7851ec 00000001801de5c0     GuPCMContactConvexCommon.obj
 0002:000065f0       ??_7?$RelativeConvex@VConvexHullNoScaleV@Gu@physx@@@Gu@physx@@6B@ 00000001801de5f0     GuPCMContactConvexConvex.obj
 0002:00006650       __xmm@3f19999a3f19999a3f19999a3f19999a 00000001801de650     GuPCMContactConvexHeightField.obj
 0002:000066c0       __xmm@3f34fdf43f34fdf43f34fdf43f34fdf4 00000001801de6c0     GuPCMContactGenBoxConvex.obj
 0002:000066f0       __xmm@3f80a3d73f80a3d73f80a3d73f80a3d7 00000001801de6f0     GuPCMContactGenSphereCapsule.obj
 0002:00006700       __xmm@bba3d70abba3d70abba3d70abba3d70a 00000001801de700     GuPCMContactGenSphereCapsule.obj
 0002:00006730       __xmm@3f7ffd613f7ffd613f7ffd613f7ffd61 00000001801de730     GuPCMContactPlaneBox.obj
 0002:00006760       __real@3b23d70b            00000001801de760     GuPCMContactPlaneCapsule.obj
 0002:00006770       __xmm@3ca3d70a3ca3d70a3ca3d70a3ca3d70a 00000001801de770     GuPCMContactPlaneCapsule.obj
 0002:000067a0       __xmm@3a03126f3a03126f3a03126f3a03126f 00000001801de7a0     GuPCMContactPlaneConvex.obj
 0002:000068c0       __xmm@3727c5ac3727c5ac3727c5ac3727c5ac 00000001801de8c0     GuPCMContactSphereSphere.obj
 0002:000068f0       __xmm@3f7f06f73f7f06f73f7f06f73f7f06f7 00000001801de8f0     GuPCMContactCustomGeometry.obj
 0002:00006900       ?gPCMBoxPolygonData@Gu@physx@@3QBEB 00000001801de900     GuPCMShapeConvex.obj
 0002:00006980       ?invalidateThresholds@Gu@physx@@3QBMB 00000001801de980     GuPersistentContactManifold.obj
 0002:00006998       ?invalidateQuatThresholds@Gu@physx@@3QBMB 00000001801de998     GuPersistentContactManifold.obj
 0002:000069b0       ?invalidateThresholds2@Gu@physx@@3QBMB 00000001801de9b0     GuPersistentContactManifold.obj
 0002:000069c0       ?invalidateQuatThresholds2@Gu@physx@@3QBMB 00000001801de9c0     GuPersistentContactManifold.obj
 0002:000069d0       __xmm@00000000340000003400000034000000 00000001801de9d0     GuPersistentContactManifold.obj
 0002:000069e0       __xmm@000000003f8000003f80000000000000 00000001801de9e0     GuPersistentContactManifold.obj
 0002:000069f0       __xmm@00000000bf8000003f80000000000000 00000001801de9f0     GuPersistentContactManifold.obj
 0002:00006a00       __xmm@ffffffffffffffff00000000ffffffff 00000001801dea00     GuPersistentContactManifold.obj
 0002:00006a30       __xmm@c1200000c1200000c1200000c1200000 00000001801dea30     GuPCMContactGenUtil.obj
 0002:00006a80       __real@b727c5ac            00000001801dea80     GuSweepBoxSphere.obj
 0002:00006af0       ??_C@_0HH@IALMCEDK@C?3?2Users?2mecha?2CLionProjects?2XP@ 00000001801deaf0     GuSweepCapsuleBox.obj
 0002:00006bb0       __real@3f7fff58            00000001801debb0     GuSweepCapsuleTriangle.obj
 0002:00006c20       ??_C@_0CH@DHJGKCPD@Gu?3?3computeBounds?3?5Unknown?5shap@ 00000001801dec20     GuBounds.obj
 0002:00006c50       ??_C@_0GI@OMEAGDEI@C?3?2Users?2mecha?2CLionProjects?2XP@ 00000001801dec50     GuBounds.obj
 0002:00006cb8       __real@34800000            00000001801decb8     GuBounds.obj
 0002:00006cbc       __real@3f7fffef            00000001801decbc     GuBounds.obj
 0002:00006cc0       __xmm@3f8147ae3f8147ae3f8147ae3f8147ae 00000001801decc0     GuBounds.obj
 0002:00006cf0       ??_C@_0GK@DIGOFKOJ@C?3?2Users?2mecha?2CLionProjects?2XP@ 00000001801decf0     GuAABBTree.obj
 0002:00006d60       __xmm@5a60b17f5a60b17f5a60b17f5a60b17f 00000001801ded60     GuAABBTree.obj
 0002:00006d70       __xmm@da60b17fda60b17fda60b17fda60b17f 00000001801ded70     GuAABBTree.obj
 0002:00006de0       ??_C@_0HF@HOAHLPHO@C?3?2Users?2mecha?2CLionProjects?2XP@ 00000001801dede0     GuIncrementalAABBTree.obj
 0002:00006e60       ??_C@_0GC@JMOCODBI@C?3?2Users?2mecha?2CLionProjects?2XP@ 00000001801dee60     GuIncrementalAABBTree.obj
 0002:00006ec4       __real@40400000            00000001801deec4     GuIncrementalAABBTree.obj
 0002:00006ed0       ??_C@_0GF@BLNODFEB@C?3?2Users?2mecha?2CLionProjects?2XP@ 00000001801deed0     GuSAH.obj
 0002:00006f60       ??_7PxBVH@physx@@6B@       00000001801def60     GuBVH.obj
 0002:00006fd8       ??_C@_05OKJNPKBM@PxBVH@    00000001801defd8     GuBVH.obj
 0002:00006fe0       ??_C@_0FP@FEBKKIHD@C?3?2Users?2mecha?2CLionProjects?2XP@ 00000001801defe0     GuBVH.obj
 0002:00007040       ??_7RefCountable@Cm@physx@@6B@ 00000001801df040     GuBVH.obj
 0002:00007050       ??_7BVH@Gu@physx@@6BPxBVH@2@@ 00000001801df050     GuBVH.obj
 0002:000070c8       ??_7BVH@Gu@physx@@6BRefCountable@Cm@2@@ 00000001801df0c8     GuBVH.obj
 0002:000070e0       ??_C@_0GF@JLGKGLE@C?3?2Users?2mecha?2CLionProjects?2XP@ 00000001801df0e0     GuBVH.obj
 0002:00007148       ??_C@_0CK@HAIOEINI@PxBVH?3?3release?3?5double?5deletion@ 00000001801df148     GuBVH.obj
 0002:000071a0       ??_C@_0HL@KPKOMFAI@C?3?2Users?2mecha?2CLionProjects?2XP@ 00000001801df1a0     GuIncrementalAABBPrunerCore.obj
 0002:0000721c       __real@3f80a3d7            00000001801df21c     GuIncrementalAABBPrunerCore.obj
 0002:00007240       ??_7BasePruner@Gu@physx@@6B@ 00000001801df240     GuIncrementalAABBPruner.obj
 0002:00007258       ??_7IncrementalAABBPruner@Gu@physx@@6B@ 00000001801df258     GuIncrementalAABBPruner.obj
 0002:000072e0       ??_C@_0HH@JLNGMBAH@C?3?2Users?2mecha?2CLionProjects?2XP@ 00000001801df2e0     GuIncrementalAABBPruner.obj
 0002:00007380       ??_C@_0GN@PDODAMAL@C?3?2Users?2mecha?2CLionProjects?2XP@ 00000001801df380     GuPruningPool.obj
 0002:00007430       ??_7BucketPruner@Gu@physx@@6B@ 00000001801df430     GuBucketPruner.obj
 0002:000074c0       ??_C@_0GO@KLICIHNO@C?3?2Users?2mecha?2CLionProjects?2XP@ 00000001801df4c0     GuBucketPruner.obj
 0002:00007530       __real@bf13cd3a            00000001801df530     GuBucketPruner.obj
 0002:00007540       __xmm@000000007e7fffff7e7fffff7e7fffff 00000001801df540     GuBucketPruner.obj
 0002:00007550       __xmm@00000000fe7ffffffe7ffffffe7fffff 00000001801df550     GuBucketPruner.obj
 0002:00007560       __xmm@3f13cd3a3f13cd3a3f13cd3a3f13cd3a 00000001801df560     GuBucketPruner.obj
 0002:00007570       __xmm@bf13cd3abf13cd3abf13cd3a3f13cd3a 00000001801df570     GuBucketPruner.obj
 0002:00007580       __xmm@bf8000003f8000003f800000bf800000 00000001801df580     GuBucketPruner.obj
 0002:00007590       __xmm@bf8000003f800000bf8000003f800000 00000001801df590     GuBucketPruner.obj
 0002:000075a0       __xmm@bf800000bf8000003f8000003f800000 00000001801df5a0     GuBucketPruner.obj
 0002:000075b0       __xmm@bf800000bf800000bf8000003f800000 00000001801df5b0     GuBucketPruner.obj
 0002:000075c0       ?mIndices@MaverickNode@Gu@physx@@2QBIB 00000001801df5c0     GuMaverickNode.obj
 0002:00007620       ??_C@_0HG@PEKFHBJG@C?3?2Users?2mecha?2CLionProjects?2XP@ 00000001801df620     GuExtendedBucketPruner.obj
 0002:000076c0       ??_7CompanionPruner@Gu@physx@@6B@ 00000001801df6c0     GuSecondaryPruner.obj
 0002:00007740       ??_7CompanionPrunerBucket@@6B@ 00000001801df740     GuSecondaryPruner.obj
 0002:000077c0       ??_7CompanionPrunerIncremental@@6B@ 00000001801df7c0     GuSecondaryPruner.obj
 0002:00007840       ??_7CompanionPrunerAABBTree@@6B@ 00000001801df840     GuSecondaryPruner.obj
 0002:000078c0       ??_C@_0HB@DBBGNNHJ@C?3?2Users?2mecha?2CLionProjects?2XP@ 00000001801df8c0     GuSecondaryPruner.obj
 0002:00007960       ??_7AABBPruner@Gu@physx@@6B@ 00000001801df960     GuAABBPruner.obj
 0002:00007a00       ??_C@_0LA@IHBEIKND@SceneQuery?5static?5AABB?5Tree?5reb@ 00000001801dfa00     GuAABBPruner.obj
 0002:00007ab0       ??_C@_0GM@HFLGINEE@C?3?2Users?2mecha?2CLionProjects?2XP@ 00000001801dfab0     GuAABBPruner.obj
 0002:00007b20       ??_C@_0GP@KBGPMKCL@C?3?2Users?2mecha?2CLionProjects?2XP@ 00000001801dfb20     GuActorShapeMap.obj
 0002:00007bb0       ??_C@_0BF@DNABLJAF@Invalid?5pruner?5index@ 00000001801dfbb0     GuQuerySystem.obj
 0002:00007bd0       ??_C@_0GN@KNIFPEIB@C?3?2Users?2mecha?2CLionProjects?2XP@ 00000001801dfbd0     GuQuerySystem.obj
 0002:00007c90       ??_C@_0GJ@BNKDJCCK@C?3?2Users?2mecha?2CLionProjects?2XP@ 00000001801dfc90     GuFactory.obj
 0002:00007d00       ?reductionFactors@SubSortQuick@physx@@2QBMB 00000001801dfd00     GuRTreeCooking.obj
 0002:00007d10       ?stopAtTrisPerLeaf1@SubSortQuick@physx@@2QBIB 00000001801dfd10     GuRTreeCooking.obj
 0002:00007de0       ??_C@_0HG@BCHBDLGD@C?3?2Users?2mecha?2CLionProjects?2XP@ 00000001801dfde0     GuRTreeCooking.obj
 0002:00007e58       __real@41100000            00000001801dfe58     GuRTreeCooking.obj
 0002:00007e5c       __real@41700000            00000001801dfe5c     GuRTreeCooking.obj
 0002:00007e60       __real@42200000            00000001801dfe60     GuRTreeCooking.obj
 0002:00007e70       __xmm@00000004000000030000000200000001 00000001801dfe70     GuRTreeCooking.obj
 0002:00007ea0       ??_C@_0HE@DBIIOEDN@C?3?2Users?2mecha?2CLionProjects?2XP@ 00000001801dfea0     GuCookingBVH.obj
 0002:00007f18       ??_C@_0DL@JHPKHGFA@Cooking?3?3cookBVH?3?5user?9provided@ 00000001801dff18     GuCookingBVH.obj
 0002:00007f58       ??_C@_0DN@PLNPGFEB@Cooking?3?3createBVH?3?5user?9provid@ 00000001801dff58     GuCookingBVH.obj
 0002:00007fa0       ??_C@_0EL@JCJBAPHL@Cooking?3?3cookHeightField?3?5user?9@ 00000001801dffa0     GuCookingHF.obj
 0002:00007ff0       ??_C@_0HD@HAKFOBGD@C?3?2Users?2mecha?2CLionProjects?2XP@ 00000001801dfff0     GuCookingHF.obj
 0002:00008070       ??_C@_0EN@FCEPCAFC@Cooking?3?3createHeightField?3?5use@ 00000001801e0070     GuCookingHF.obj
 0002:000080c0       ??_C@_0EK@EKAIJEBL@Cooking?3?3cookConvexMesh?3?5user?9p@ 00000001801e00c0     GuCookingConvexMesh.obj
 0002:00008110       ??_C@_0FA@GFFGAPML@Cooking?3?3cookConvexMesh?3?5provid@ 00000001801e0110     GuCookingConvexMesh.obj
 0002:00008160       ??_C@_0EP@PKDCPNNO@Cooking?3?3cookConvexMesh?3?5provid@ 00000001801e0160     GuCookingConvexMesh.obj
 0002:000081b0       ??_C@_0EO@LKFMMDE@Cooking?3?3cookConvexMesh?3?5user?9p@ 00000001801e01b0     GuCookingConvexMesh.obj
 0002:00008200       ??_C@_0EL@KJEPJALG@Cooking?3?3cookConvexMesh?3?5user?9p@ 00000001801e0200     GuCookingConvexMesh.obj
 0002:00008250       ??_C@_0FM@LHMEBKMM@Cooking?3?3cookConvexMesh?3?5GPU?9co@ 00000001801e0250     GuCookingConvexMesh.obj
 0002:000082b0       ??_C@_0FJ@FHCFFABE@Cooking?3?3cookConvexMesh?3?5GPU?9co@ 00000001801e02b0     GuCookingConvexMesh.obj
 0002:00008310       ??_C@_0LM@CHONPBFM@Cooking?3?3cookConvexMesh?3?5GPU?9co@ 00000001801e0310     GuCookingConvexMesh.obj
 0002:000083d0       ??_C@_0HL@LBGLLNBF@C?3?2Users?2mecha?2CLionProjects?2XP@ 00000001801e03d0     GuCookingConvexMesh.obj
 0002:00008470       ??_7TriangleMeshBuilder@physx@@6B@ 00000001801e0470     GuCookingTriangleMesh.obj
 0002:00008498       ??_7RTreeTriangleMeshBuilder@physx@@6B@ 00000001801e0498     GuCookingTriangleMesh.obj
 0002:000084c0       ??_7BV4TriangleMeshBuilder@physx@@6B@ 00000001801e04c0     GuCookingTriangleMesh.obj
 0002:000084f0       ??_C@_0HN@PHJAOLGI@C?3?2Users?2mecha?2CLionProjects?2XP@ 00000001801e04f0     GuCookingTriangleMesh.obj
 0002:00008570       ??_C@_0EM@DBPINPE@TriangleMeshBuilder?3?3cleanMesh?3@ 00000001801e0570     GuCookingTriangleMesh.obj
 0002:000085c0       ??_C@_0EF@MLNDPEDJ@TriangleMeshBuilder?3?3cleanMesh?3@ 00000001801e05c0     GuCookingTriangleMesh.obj
 0002:00008610       ??_C@_0FJ@HHJLKGDF@TriangleMesh?3?5triangles?5are?5too@ 00000001801e0610     GuCookingTriangleMesh.obj
 0002:00008670       ??_C@_0CN@KGPHHHLK@TriangleMesh?3?5mesh?5is?5too?5big?5f@ 00000001801e0670     GuCookingTriangleMesh.obj
 0002:000086a0       ??_C@_0DD@CMJGDCNN@TriangleMesh?3?3loadFromDesc?3?5des@ 00000001801e06a0     GuCookingTriangleMesh.obj
 0002:000086e0       ??_C@_0ED@ILJJNHIP@TriangleMesh?3?3loadFromDesc?3?5mPa@ 00000001801e06e0     GuCookingTriangleMesh.obj
 0002:00008728       ??_C@_0BK@JIDHMMCE@BV4?5tree?5failed?5to?5build?4@ 00000001801e0728     GuCookingTriangleMesh.obj
 0002:00008748       ??_C@_0BL@DHNECNBE@BV32?5tree?5failed?5to?5build?4@ 00000001801e0748     GuCookingTriangleMesh.obj
 0002:00008768       ??_7RTreeCookerRemap@@6B@  00000001801e0768     GuCookingTriangleMesh.obj
 0002:00008780       ??_C@_0FC@PJIHAFK@Cooking?3?3validateTriangleMesh?3?5@ 00000001801e0780     GuCookingTriangleMesh.obj
 0002:00008860       ??_7PxCollisionTetrahedronMeshData@physx@@6B@ 00000001801e0860     GuCookingTetrahedronMesh.obj
 0002:00008890       ??_7PxSimulationTetrahedronMeshData@physx@@6B@ 00000001801e0890     GuCookingTetrahedronMesh.obj
 0002:000088b0       ??_7CollisionTetrahedronMeshData@Gu@physx@@6B@ 00000001801e08b0     GuCookingTetrahedronMesh.obj
 0002:000088e0       ??_7SimulationTetrahedronMeshData@Gu@physx@@6B@ 00000001801e08e0     GuCookingTetrahedronMesh.obj
 0002:00008900       ??_C@_0IA@NFKKIGAC@C?3?2Users?2mecha?2CLionProjects?2XP@ 00000001801e0900     GuCookingTetrahedronMesh.obj
 0002:00008980       ??_7?$LocalConvex@VTetrahedronV@Gu@physx@@@Gu@physx@@6B@ 00000001801e0980     GuCookingTetrahedronMesh.obj
 0002:000089b0       ??_C@_0CD@OJGNHLOE@BV4_AABBTree?5tree?5failed?5to?5bui@ 00000001801e09b0     GuCookingTetrahedronMesh.obj
 0002:000089d8       ??_C@_0DG@NCNIEEHB@TetrahedronMesh?3?3loadFromDesc?3?5@ 00000001801e09d8     GuCookingTetrahedronMesh.obj
 0002:00008a10       ??_C@_0EG@CJIFGLMC@TetrahedronMesh?3?3loadFromDesc?3?5@ 00000001801e0a10     GuCookingTetrahedronMesh.obj
 0002:00008a58       __real@be2aaaab            00000001801e0a58     GuCookingTetrahedronMesh.obj
 0002:00008a60       __xmm@00000003000000030000000300000003 00000001801e0a60     GuCookingTetrahedronMesh.obj
 0002:00008a90       __real@3bc79ca10c924223    00000001801e0a90     GuCookingVolumeIntegration.obj
 0002:00008a98       __real@3f91111111111111    00000001801e0a98     GuCookingVolumeIntegration.obj
 0002:00008aa0       __real@3fa5555555555555    00000001801e0aa0     GuCookingVolumeIntegration.obj
 0002:00008aa8       __real@3fa999999999999a    00000001801e0aa8     GuCookingVolumeIntegration.obj
 0002:00008ab0       __real@3fb5555555555555    00000001801e0ab0     GuCookingVolumeIntegration.obj
 0002:00008ab8       __real@3fc5555555555555    00000001801e0ab8     GuCookingVolumeIntegration.obj
 0002:00008ac0       __real@3fe0000000000000    00000001801e0ac0     GuCookingVolumeIntegration.obj
 0002:00008ac8       __real@3ff0000000000000    00000001801e0ac8     GuCookingVolumeIntegration.obj
 0002:00008ad0       __real@4008000000000000    00000001801e0ad0     GuCookingVolumeIntegration.obj
 0002:00008ad8       __real@4010000000000000    00000001801e0ad8     GuCookingVolumeIntegration.obj
 0002:00008ae0       __real@bf91111111111111    00000001801e0ae0     GuCookingVolumeIntegration.obj
 0002:00008ae8       __real@bfa999999999999a    00000001801e0ae8     GuCookingVolumeIntegration.obj
 0002:00008af0       __real@bfb5555555555555    00000001801e0af0     GuCookingVolumeIntegration.obj
 0002:00008af8       __real@bfc5555555555555    00000001801e0af8     GuCookingVolumeIntegration.obj
 0002:00008b00       __xmm@3c0888893c0888893c0888893c088889 00000001801e0b00     GuCookingVolumeIntegration.obj
 0002:00008b10       __xmm@3c8888893c8888893c8888893c888889 00000001801e0b10     GuCookingVolumeIntegration.obj
 0002:00008b20       __xmm@3d2aaaab3d2aaaab3d2aaaab3d2aaaab 00000001801e0b20     GuCookingVolumeIntegration.obj
 0002:00008b30       __xmm@3e2aaaab3e2aaaab3e2aaaab3e2aaaab 00000001801e0b30     GuCookingVolumeIntegration.obj
 0002:00008b40       __xmm@3f811111111111113f81111111111111 00000001801e0b40     GuCookingVolumeIntegration.obj
 0002:00008b50       __xmm@3f811111111111113f91111111111111 00000001801e0b50     GuCookingVolumeIntegration.obj
 0002:00008b60       __xmm@3f911111111111113f91111111111111 00000001801e0b60     GuCookingVolumeIntegration.obj
 0002:00008b70       __xmm@3fa55555555555553fa5555555555555 00000001801e0b70     GuCookingVolumeIntegration.obj
 0002:00008b80       __xmm@3fa55555555555553fc5555555555555 00000001801e0b80     GuCookingVolumeIntegration.obj
 0002:00008b90       __xmm@3fd55555555555553fd5555555555555 00000001801e0b90     GuCookingVolumeIntegration.obj
 0002:00008ba0       __xmm@3fe00000000000003fe0000000000000 00000001801e0ba0     GuCookingVolumeIntegration.obj
 0002:00008bb0       __xmm@7fffffffffffffff7fffffffffffffff 00000001801e0bb0     GuCookingVolumeIntegration.obj
 0002:00008bc0       __xmm@80000000000000008000000000000000 00000001801e0bc0     GuCookingVolumeIntegration.obj
 0002:00008bd0       ??_7ConvexHullLib@physx@@6B@ 00000001801e0bd0     GuCookingQuickHullConvexHullLib.obj
 0002:00008bf0       ??_7QuickHullConvexHullLib@physx@@6B@ 00000001801e0bf0     GuCookingQuickHullConvexHullLib.obj
 0002:00008c10       ??_C@_0IH@EJGAMCLM@C?3?2Users?2mecha?2CLionProjects?2XP@ 00000001801e0c10     GuCookingQuickHullConvexHullLib.obj
 0002:00008ca0       ??_C@_0GA@EPPAEJPM@QuickHullConvexHullLib?3?3findSim@ 00000001801e0ca0     GuCookingQuickHullConvexHullLib.obj
 0002:00008d00       ??_C@_0FB@NEBIJMML@QuickHullConvexHullLib?3?3findSim@ 00000001801e0d00     GuCookingQuickHullConvexHullLib.obj
 0002:00008d60       ??_C@_0FB@CLLCBEMM@QuickHullConvexHullLib?3?3findSim@ 00000001801e0d60     GuCookingQuickHullConvexHullLib.obj
 0002:00008db4       __real@34c00000            00000001801e0db4     GuCookingQuickHullConvexHullLib.obj
 0002:00008db8       ??_C@_0DP@PJBJBEGF@Meshmerizer?3?3extractHullPolygon@ 00000001801e0db8     GuCookingConvexPolygonsBuilder.obj
 0002:00008e00       ??_C@_0IG@IGJINKCD@C?3?2Users?2mecha?2CLionProjects?2XP@ 00000001801e0e00     GuCookingConvexPolygonsBuilder.obj
 0002:00008e88       ??_C@_0DL@IAFKOCCK@ConvexHullBuilder?3?5convex?5hull?5@ 00000001801e0e88     GuCookingConvexPolygonsBuilder.obj
 0002:00008ed0       ??_C@_0GF@OJLJHAMH@ConvexHullBuilder?3?3CreateTriang@ 00000001801e0ed0     GuCookingConvexPolygonsBuilder.obj
 0002:00008f60       ??_C@_0DF@LLFJIJGM@Gu?3?3ConvexMesh?3?3loadFromDesc?3?5d@ 00000001801e0f60     GuCookingConvexMeshBuilder.obj
 0002:00008fa0       ??_C@_0HK@JOGKIEAA@Gu?3?3ConvexMesh?3?5Mesh?5has?5a?5nega@ 00000001801e0fa0     GuCookingConvexMeshBuilder.obj
 0002:00009020       ??_C@_0DH@NJPPHFFD@Gu?3?3ConvexMesh?3?5Error?5computing@ 00000001801e1020     GuCookingConvexMeshBuilder.obj
 0002:00009058       ??_C@_0DJ@LJDLGLDJ@Gu?3?3ConvexMesh?3?3loadConvexHull?3@ 00000001801e1058     GuCookingConvexMeshBuilder.obj
 0002:000090a0       ??_C@_0HJ@KJANPPOE@ConvexMeshBuilder?3?3computeHullP@ 00000001801e10a0     GuCookingConvexMeshBuilder.obj
 0002:00009120       ??_C@_0IC@MFKDFBMA@C?3?2Users?2mecha?2CLionProjects?2XP@ 00000001801e1120     GuCookingConvexMeshBuilder.obj
 0002:000091a8       ??_C@_0O@JMAGMMGG@PxHullPolygon@ 00000001801e11a8     GuCookingConvexMeshBuilder.obj
 0002:000091b8       __real@3f13cd3a            00000001801e11b8     GuCookingConvexMeshBuilder.obj
 0002:000091e0       ??_C@_0IA@KECNNGBJ@C?3?2Users?2mecha?2CLionProjects?2XP@ 00000001801e11e0     GuCookingConvexHullUtils.obj
 0002:00009260       __real@3e20d97c            00000001801e1260     GuCookingConvexHullUtils.obj
 0002:00009270       ??_C@_0HO@IBCEFCEE@C?3?2Users?2mecha?2CLionProjects?2XP@ 00000001801e1270     GuCookingConvexHullLib.obj
 0002:000092f0       ??_C@_0JE@PABBNGEL@ConvexHullLib?3?3cleanupVertices?3@ 00000001801e12f0     GuCookingConvexHullLib.obj
 0002:000093b0       ??_C@_0IC@LAHPBJF@C?3?2Users?2mecha?2CLionProjects?2XP@ 00000001801e13b0     GuCookingConvexHullBuilder.obj
 0002:00009440       ??_C@_0EB@DCEIFDGC@ConvexHullBuilder?3?3init?3?5convex@ 00000001801e1440     GuCookingConvexHullBuilder.obj
 0002:00009490       ??_C@_0FM@KICBLCBH@Gu?3?3ConvexMesh?3?3checkHullPolygo@ 00000001801e1490     GuCookingConvexHullBuilder.obj
 0002:000094f0       ??_C@_0GO@HBFIOGLL@Gu?3?3ConvexMesh?3?3checkHullPolygo@ 00000001801e14f0     GuCookingConvexHullBuilder.obj
 0002:00009560       ??_C@_0HF@OLJFBIEL@ConvexHullBuilder?3?5convex?5hull?5@ 00000001801e1560     GuCookingConvexHullBuilder.obj
 0002:000095e0       ??_C@_0OG@JNHFOIL@ConvexHullBuilder?3?5convex?5hull?5@ 00000001801e15e0     GuCookingConvexHullBuilder.obj
 0002:000096d0       ??_C@_0EJ@NIOIBAKH@Cooking?3?3cookConvexMesh?3?5non?9ma@ 00000001801e16d0     GuCookingConvexHullBuilder.obj
 0002:00009740       ??_C@_0IF@FLPBGGMD@C?3?2Users?2mecha?2CLionProjects?2XP@ 00000001801e1740     GuCookingBigConvexDataBuilder.obj
 0002:000097d0       __sz_PhysXFoundation_64_dll 00000001801e17d0     PhysXFoundation_64:PhysXFoundation_64.dll
 0002:000097e8       ??_C@_1BK@DBDEIDLH@?$AAK?$AAE?$AAR?$AAN?$AAE?$AAL?$AA3?$AA2?$AA?4?$AAD?$AAL?$AAL@ 00000001801e17e8     Delayimp:delayhlp.obj
 0002:00009808       ??_C@_0BI@OMNLIJDB@AcquireSRWLockExclusive@ 00000001801e1808     Delayimp:delayhlp.obj
 0002:00009820       ??_C@_0BI@HMIEPCNJ@ReleaseSRWLockExclusive@ 00000001801e1820     Delayimp:delayhlp.obj
 0002:00009838       __pfnDliFailureHook2       00000001801e1838     Delayimp:delayhk1.obj
 0002:00009848       ??_7type_info@@6B@         00000001801e1848     LIBCMT:std_type_info_static.obj
 0002:000098b0       _pDefaultRawDllMain        00000001801e18b0     LIBCMT:dll_dllmain.obj
 0002:000098b0       _pRawDllMain               00000001801e18b0     LIBCMT:dll_dllmain.obj
 0002:000098c0       _load_config_used          00000001801e18c0     LIBCMT:loadcfg.obj
 0002:00009a00       _pDestructExceptionObject  00000001801e1a00     libvcruntime:ehhelpers.obj
 0002:0000a120       ??_C@_08EHJDFFNH@__based?$CI@ 00000001801e2120     libvcruntime:undname.obj
 0002:0000a130       ??_C@_07KOLFKCDI@__cdecl@  00000001801e2130     libvcruntime:undname.obj
 0002:0000a138       ??_C@_08GHMPAG@__pascal@   00000001801e2138     libvcruntime:undname.obj
 0002:0000a148       ??_C@_09IFJBGAPI@__stdcall@ 00000001801e2148     libvcruntime:undname.obj
 0002:0000a158       ??_C@_0L@NPHFGOKO@__thiscall@ 00000001801e2158     libvcruntime:undname.obj
 0002:0000a168       ??_C@_0L@JMKHOMEK@__fastcall@ 00000001801e2168     libvcruntime:undname.obj
 0002:0000a178       ??_C@_0N@BCKKPABJ@__vectorcall@ 00000001801e2178     libvcruntime:undname.obj
 0002:0000a188       ??_C@_09HIJEGCPM@__clrcall@ 00000001801e2188     libvcruntime:undname.obj
 0002:0000a194       ??_C@_06GHPCKEAG@__eabi@   00000001801e2194     libvcruntime:undname.obj
 0002:0000a1a0       ??_C@_09IOPIDJLG@__swift_1@ 00000001801e21a0     libvcruntime:undname.obj
 0002:0000a1b0       ??_C@_09KFNFGKHF@__swift_2@ 00000001801e21b0     libvcruntime:undname.obj
 0002:0000a1c0       ??_C@_09LMMOFLDE@__swift_3@ 00000001801e21c0     libvcruntime:undname.obj
 0002:0000a1d0       ??_C@_07JOMMBBKO@__ptr64@  00000001801e21d0     libvcruntime:undname.obj
 0002:0000a1d8       ??_C@_0L@PILCLIHE@__restrict@ 00000001801e21d8     libvcruntime:undname.obj
 0002:0000a1e8       ??_C@_0M@GFIIJFMG@__unaligned@ 00000001801e21e8     libvcruntime:undname.obj
 0002:0000a1f8       ??_C@_09DHDLOLLB@restrict?$CI@ 00000001801e21f8     libvcruntime:undname.obj
 0002:0000a204       ??_C@_04NIHEBCM@?5new@     00000001801e2204     libvcruntime:undname.obj
 0002:0000a210       ??_C@_07FPCDHGMM@?5delete@ 00000001801e2210     libvcruntime:undname.obj
 0002:0000a218       ??_C@_01NEMOKFLO@?$DN@     00000001801e2218     libvcruntime:undname.obj
 0002:0000a21c       ??_C@_02GPIOPFAK@?$DO?$DO@ 00000001801e221c     libvcruntime:undname.obj
 0002:0000a220       ??_C@_02FODMEDOG@?$DM?$DM@ 00000001801e2220     libvcruntime:undname.obj
 0002:0000a224       ??_C@_01DCLJPIOD@?$CB@     00000001801e2224     libvcruntime:undname.obj
 0002:0000a228       ??_C@_02EGOFBIJA@?$DN?$DN@ 00000001801e2228     libvcruntime:undname.obj
 0002:0000a22c       ??_C@_02FDNJECIE@?$CB?$DN@ 00000001801e222c     libvcruntime:undname.obj
 0002:0000a230       ??_C@_02GPECMEKF@?$FL?$FN@ 00000001801e2230     libvcruntime:undname.obj
 0002:0000a238       ??_C@_08LHJFAFGD@operator@ 00000001801e2238     libvcruntime:undname.obj
 0002:0000a244       ??_C@_02HBOOOICD@?9?$DO@   00000001801e2244     libvcruntime:undname.obj
 0002:0000a248       ??_C@_01NBENCBCI@?$CK@     00000001801e2248     libvcruntime:undname.obj
 0002:0000a24c       ??_C@_02ECNGHCIF@?$CL?$CL@ 00000001801e224c     libvcruntime:undname.obj
 0002:0000a250       ??_C@_02BAABKJLB@?9?9@     00000001801e2250     libvcruntime:undname.obj
 0002:0000a254       ??_C@_01JOAMLHOP@?9@       00000001801e2254     libvcruntime:undname.obj
 0002:0000a258       ??_C@_01MIFGBAGJ@?$CL@     00000001801e2258     libvcruntime:undname.obj
 0002:0000a25c       ??_C@_01HNPIGOCE@?$CG@     00000001801e225c     libvcruntime:undname.obj
 0002:0000a260       ??_C@_03MNHNFDLC@?9?$DO?$CK@ 00000001801e2260     libvcruntime:undname.obj
 0002:0000a264       ??_C@_01KMDKNFGN@?1@       00000001801e2264     libvcruntime:undname.obj
 0002:0000a268       ??_C@_01FGNFDNOH@?$CF@     00000001801e2268     libvcruntime:undname.obj
 0002:0000a26c       ??_C@_01MNNFJEPP@?$DM@     00000001801e226c     libvcruntime:undname.obj
 0002:0000a270       ??_C@_02EHCHHCKH@?$DM?$DN@ 00000001801e2270     libvcruntime:undname.obj
 0002:0000a274       ??_C@_01PPODPGHN@?$DO@     00000001801e2274     libvcruntime:undname.obj
 0002:0000a278       ??_C@_02EEKDKGMJ@?$DO?$DN@ 00000001801e2278     libvcruntime:undname.obj
 0002:0000a27c       ??_C@_01IHBHIGKO@?0@       00000001801e227c     libvcruntime:undname.obj
 0002:0000a280       ??_C@_02HCKGKOFO@?$CI?$CJ@ 00000001801e2280     libvcruntime:undname.obj
 0002:0000a284       ??_C@_01PJKLJHI@?$HO@      00000001801e2284     libvcruntime:undname.obj
 0002:0000a288       ??_C@_01JKBOJNNK@?$FO@     00000001801e2288     libvcruntime:undname.obj
 0002:0000a28c       ??_C@_01DNKMNLPK@?$HM@     00000001801e228c     libvcruntime:undname.obj
 0002:0000a290       ??_C@_02PPKAJPJL@?$CG?$CG@ 00000001801e2290     libvcruntime:undname.obj
 0002:0000a294       ??_C@_02NONPIBCD@?$HM?$HM@ 00000001801e2294     libvcruntime:undname.obj
 0002:0000a298       ??_C@_02FPIMKNGF@?$CK?$DN@ 00000001801e2298     libvcruntime:undname.obj
 0002:0000a29c       ??_C@_02FOEOMHFC@?$CL?$DN@ 00000001801e229c     libvcruntime:undname.obj
 0002:0000a2a0       ??_C@_02FKMDLLOA@?9?$DN@   00000001801e22a0     libvcruntime:undname.obj
 0002:0000a2a4       ??_C@_02FJEHGPIO@?1?$DN@   00000001801e22a4     libvcruntime:undname.obj
 0002:0000a2a8       ??_C@_02FENAOKFI@?$CF?$DN@ 00000001801e22a8     libvcruntime:undname.obj
 0002:0000a2ac       ??_C@_03IKFCCPFF@?$DO?$DO?$DN@ 00000001801e22ac     libvcruntime:undname.obj
 0002:0000a2b0       ??_C@_03CDNPDDLA@?$DM?$DM?$DN@ 00000001801e22b0     libvcruntime:undname.obj
 0002:0000a2b4       ??_C@_02FGJGFEAB@?$CG?$DN@ 00000001801e22b4     libvcruntime:undname.obj
 0002:0000a2b8       ??_C@_02DHLNPPGH@?$HM?$DN@ 00000001801e22b8     libvcruntime:undname.obj
 0002:0000a2bc       ??_C@_02MHEGNOJ@?$FO?$DN@  00000001801e22bc     libvcruntime:undname.obj
 0002:0000a2c0       ??_C@_09IFPLHPGF@?$GAvftable?8@ 00000001801e22c0     libvcruntime:undname.obj
 0002:0000a2d0       ??_C@_09BLBHBJP@?$GAvbtable?8@ 00000001801e22d0     libvcruntime:undname.obj
 0002:0000a2e0       ??_C@_07FEEIOKP@?$GAvcall?8@ 00000001801e22e0     libvcruntime:undname.obj
 0002:0000a2e8       ??_C@_08LLFFHHDJ@?$GAtypeof?8@ 00000001801e22e8     libvcruntime:undname.obj
 0002:0000a2f8       ??_C@_0BF@KDPPACIK@?$GAlocal?5static?5guard?8@ 00000001801e22f8     libvcruntime:undname.obj
 0002:0000a310       ??_C@_08OBABFOLI@?$GAstring?8@ 00000001801e2310     libvcruntime:undname.obj
 0002:0000a320       ??_C@_0BD@JDLKDPAB@?$GAvbase?5destructor?8@ 00000001801e2320     libvcruntime:undname.obj
 0002:0000a338       ??_C@_0BN@DEGPLNFK@?$GAvector?5deleting?5destructor?8@ 00000001801e2338     libvcruntime:undname.obj
 0002:0000a358       ??_C@_0BO@OBMKPJIG@?$GAdefault?5constructor?5closure?8@ 00000001801e2358     libvcruntime:undname.obj
 0002:0000a378       ??_C@_0BN@IMDCHIKM@?$GAscalar?5deleting?5destructor?8@ 00000001801e2378     libvcruntime:undname.obj
 0002:0000a398       ??_C@_0BO@PFGOCPJJ@?$GAvector?5constructor?5iterator?8@ 00000001801e2398     libvcruntime:undname.obj
 0002:0000a3b8       ??_C@_0BN@LFPFMEDL@?$GAvector?5destructor?5iterator?8@ 00000001801e23b8     libvcruntime:undname.obj
 0002:0000a3d8       ??_C@_0CE@IKBNEHA@?$GAvector?5vbase?5constructor?5itera@ 00000001801e23d8     libvcruntime:undname.obj
 0002:0000a400       ??_C@_0BL@NILFHHPC@?$GAvirtual?5displacement?5map?8@ 00000001801e2400     libvcruntime:undname.obj
 0002:0000a420       ??_C@_0CB@JONCMFFK@?$GAeh?5vector?5constructor?5iterator@ 00000001801e2420     libvcruntime:undname.obj
 0002:0000a448       ??_C@_0CA@GCEOPDGL@?$GAeh?5vector?5destructor?5iterator?8@ 00000001801e2448     libvcruntime:undname.obj
 0002:0000a468       ??_C@_0CH@OOJPLCPH@?$GAeh?5vector?5vbase?5constructor?5it@ 00000001801e2468     libvcruntime:undname.obj
 0002:0000a490       ??_C@_0BL@LLKPOHJI@?$GAcopy?5constructor?5closure?8@ 00000001801e2490     libvcruntime:undname.obj
 0002:0000a4b0       ??_C@_0BA@KBCDOMBN@?$GAudt?5returning?8@ 00000001801e24b0     libvcruntime:undname.obj
 0002:0000a4c0       ??_C@_03KLGMFNMG@?$GAEH@   00000001801e24c0     libvcruntime:undname.obj
 0002:0000a4c4       ??_C@_05KHLCHHI@?$GARTTI@  00000001801e24c4     libvcruntime:undname.obj
 0002:0000a4d0       ??_C@_0BA@KKLDJDLB@?$GAlocal?5vftable?8@ 00000001801e24d0     libvcruntime:undname.obj
 0002:0000a4e0       ??_C@_0CE@IIHCMGGL@?$GAlocal?5vftable?5constructor?5clos@ 00000001801e24e0     libvcruntime:undname.obj
 0002:0000a504       ??_C@_06FHBGPFGH@?5new?$FL?$FN@ 00000001801e2504     libvcruntime:undname.obj
 0002:0000a510       ??_C@_09LBNFPBCA@?5delete?$FL?$FN@ 00000001801e2510     libvcruntime:undname.obj
 0002:0000a520       ??_C@_0P@HJKNJFNN@?$GAomni?5callsig?8@ 00000001801e2520     libvcruntime:undname.obj
 0002:0000a530       ??_C@_0BL@CNOONJFP@?$GAplacement?5delete?5closure?8@ 00000001801e2530     libvcruntime:undname.obj
 0002:0000a550       ??_C@_0BN@CKNJLHMB@?$GAplacement?5delete?$FL?$FN?5closure?8@ 00000001801e2550     libvcruntime:undname.obj
 0002:0000a570       ??_C@_0CG@CFDHKGGD@?$GAmanaged?5vector?5constructor?5ite@ 00000001801e2570     libvcruntime:undname.obj
 0002:0000a598       ??_C@_0CF@IMGKMJNO@?$GAmanaged?5vector?5destructor?5iter@ 00000001801e2598     libvcruntime:undname.obj
 0002:0000a5c0       ??_C@_0CG@HLDDJMAG@?$GAeh?5vector?5copy?5constructor?5ite@ 00000001801e25c0     libvcruntime:undname.obj
 0002:0000a5e8       ??_C@_0CM@FCBBDIGB@?$GAeh?5vector?5vbase?5copy?5construct@ 00000001801e25e8     libvcruntime:undname.obj
 0002:0000a618       ??_C@_0BL@CLIPGLGB@?$GAdynamic?5initializer?5for?5?8@ 00000001801e2618     libvcruntime:undname.obj
 0002:0000a638       ??_C@_0CB@PDBIFEP@?$GAdynamic?5atexit?5destructor?5for?5@ 00000001801e2638     libvcruntime:undname.obj
 0002:0000a660       ??_C@_0CD@CGAJBKEJ@?$GAvector?5copy?5constructor?5iterat@ 00000001801e2660     libvcruntime:undname.obj
 0002:0000a688       ??_C@_0CJ@GJELGAMM@?$GAvector?5vbase?5copy?5constructor?5@ 00000001801e2688     libvcruntime:undname.obj
 0002:0000a6b8       ??_C@_0CL@FGIJHLCE@?$GAmanaged?5vector?5copy?5constructo@ 00000001801e26b8     libvcruntime:undname.obj
 0002:0000a6e8       ??_C@_0BM@PMGGMLDN@?$GAlocal?5static?5thread?5guard?8@ 00000001801e26e8     libvcruntime:undname.obj
 0002:0000a708       ??_C@_0N@BDNMDMOL@operator?5?$CC?$CC?5@ 00000001801e2708     libvcruntime:undname.obj
 0002:0000a718       ??_C@_0BC@GGEBGALA@operator?5co_await@ 00000001801e2718     libvcruntime:undname.obj
 0002:0000a730       ??_C@_0M@GAAIMMOH@operator?$DM?$DN?$DO@ 00000001801e2730     libvcruntime:undname.obj
 0002:0000a740       ??_C@_0BC@DAFEJGAK@?5Type?5Descriptor?8@ 00000001801e2740     libvcruntime:undname.obj
 0002:0000a758       ??_C@_0BM@LDKODKLH@?5Base?5Class?5Descriptor?5at?5?$CI@ 00000001801e2758     libvcruntime:undname.obj
 0002:0000a778       ??_C@_0BD@LGICGFMM@?5Base?5Class?5Array?8@ 00000001801e2778     libvcruntime:undname.obj
 0002:0000a790       ??_C@_0BN@MECKDCOJ@?5Class?5Hierarchy?5Descriptor?8@ 00000001801e2790     libvcruntime:undname.obj
 0002:0000a7b0       ??_C@_0BK@CFCOFLF@?5Complete?5Object?5Locator?8@ 00000001801e27b0     libvcruntime:undname.obj
 0002:0000a7d0       ??_C@_0BG@JNJLAMPM@?$GAanonymous?5namespace?8@ 00000001801e27d0     libvcruntime:undname.obj
 0002:0000a7e8       ??_C@_04HEJADOOB@CV?3?5@   00000001801e27e8     libvcruntime:undname.obj
 0002:0000a7f0       ??_C@_02MOLJINC@?3?3@      00000001801e27f0     libvcruntime:undname.obj
 0002:0000a7f8       ??_C@_0BE@JAEOCHPE@template?9parameter?9@ 00000001801e27f8     libvcruntime:undname.obj
 0002:0000a810       ??_C@_0BF@LNLGBBNL@?$GAtemplate?9parameter?9@ 00000001801e2810     libvcruntime:undname.obj
 0002:0000a828       ??_C@_0O@KHGCOMHP@generic?9type?9@ 00000001801e2828     libvcruntime:undname.obj
 0002:0000a838       ??_C@_0P@ODDENDLM@?$GAgeneric?9type?9@ 00000001801e2838     libvcruntime:undname.obj
 0002:0000a848       ??_C@_02OHHJMEON@?8?8@     00000001801e2848     libvcruntime:undname.obj
 0002:0000a850       ??_C@_0BN@IBLMMFAP@?$GAnon?9type?9template?9parameter@ 00000001801e2850     libvcruntime:undname.obj
 0002:0000a870       ??_C@_03DLDNIBIK@?$CFlf@   00000001801e2870     libvcruntime:undname.obj
 0002:0000a874       ??_C@_04OFALKAJ@?$DP?$DP_C@ 00000001801e2874     libvcruntime:undname.obj
 0002:0000a87c       ??_C@_03KHICJKCI@?4?4?4@   00000001801e287c     libvcruntime:undname.obj
 0002:0000a880       ??_C@_04HIBGFPH@NULL@      00000001801e2880     libvcruntime:undname.obj
 0002:0000a888       ??_C@_02DPKJAMEF@?$CFd@    00000001801e2888     libvcruntime:undname.obj
 0002:0000a890       ??_C@_0BK@IHCCFNEL@?$GAtemplate?9type?9parameter?9@ 00000001801e2890     libvcruntime:undname.obj
 0002:0000a8b0       ??_C@_0BK@OFCNNNKO@?$GAgeneric?9class?9parameter?9@ 00000001801e28b0     libvcruntime:undname.obj
 0002:0000a8d0       ??_C@_0BL@NGJBLFIL@?$GAgeneric?9method?9parameter?9@ 00000001801e28d0     libvcruntime:undname.obj
 0002:0000a8f0       ??_C@_07OHNGEDJK@nullptr@  00000001801e28f0     libvcruntime:undname.obj
 0002:0000a8f8       ??_C@_06COJIGPIB@lambda@   00000001801e28f8     libvcruntime:undname.obj
 0002:0000a900       ??_C@_0BE@EODMJLIF@?$GAtemplate?9parameter@ 00000001801e2900     libvcruntime:undname.obj
 0002:0000a914       ??_C@_03OPGICMGF@?$HN?8?5@ 00000001801e2914     libvcruntime:undname.obj
 0002:0000a918       ??_C@_02IGFCGPIL@?$HN?8@   00000001801e2918     libvcruntime:undname.obj
 0002:0000a920       ??_C@_0N@CBHHHENL@?$GAvtordispex?$HL@ 00000001801e2920     libvcruntime:undname.obj
 0002:0000a930       ??_C@_0L@GHPFDFH@?$GAvtordisp?$HL@ 00000001801e2930     libvcruntime:undname.obj
 0002:0000a940       ??_C@_0L@HNGCOGAE@?$GAadjustor?$HL@ 00000001801e2940     libvcruntime:undname.obj
 0002:0000a950       ??_C@_0CB@KJDOOODE@?$GAlocal?5static?5destructor?5helper@ 00000001801e2950     libvcruntime:undname.obj
 0002:0000a978       ??_C@_0DB@ILEFOCIJ@?$GAtemplate?5static?5data?5member?5co@ 00000001801e2978     libvcruntime:undname.obj
 0002:0000a9b0       ??_C@_0DA@HGFJFBBE@?$GAtemplate?5static?5data?5member?5de@ 00000001801e29b0     libvcruntime:undname.obj
 0002:0000a9e0       ??_C@_07PGOEDBHP@static?5@ 00000001801e29e0     libvcruntime:undname.obj
 0002:0000a9e8       ??_C@_08NIEOINHE@virtual?5@ 00000001801e29e8     libvcruntime:undname.obj
 0002:0000a9f8       ??_C@_09LAPHOOG@private?3?5@ 00000001801e29f8     libvcruntime:undname.obj
 0002:0000aa08       ??_C@_0M@GAIFPFIP@protected?3?5@ 00000001801e2a08     libvcruntime:undname.obj
 0002:0000aa18       ??_C@_08GPDDCMKI@public?3?5@ 00000001801e2a18     libvcruntime:undname.obj
 0002:0000aa28       ??_C@_08KJLFOPNE@?$FLthunk?$FN?3@ 00000001801e2a28     libvcruntime:undname.obj
 0002:0000aa38       ??_C@_0M@DHNBOJMP@extern?5?$CCC?$CC?5@ 00000001801e2a38     libvcruntime:undname.obj
 0002:0000aa44       ??_C@_02KCKGHPCA@?$CJ?5@   00000001801e2a44     libvcruntime:undname.obj
 0002:0000aa48       ??_C@_05CIHEBHNO@char?5@   00000001801e2a48     libvcruntime:undname.obj
 0002:0000aa50       ??_C@_06EHJMALKF@short?5@  00000001801e2a50     libvcruntime:undname.obj
 0002:0000aa58       ??_C@_04LAHKHJMA@int?5@    00000001801e2a58     libvcruntime:undname.obj
 0002:0000aa60       ??_C@_05CJIMAING@long?5@   00000001801e2a60     libvcruntime:undname.obj
 0002:0000aa68       ??_C@_09EBBEKKIH@unsigned?5@ 00000001801e2a68     libvcruntime:undname.obj
 0002:0000aa74       ??_C@_05BEFAKPML@void?5@   00000001801e2a74     libvcruntime:undname.obj
 0002:0000aa80       ??_C@_09GAIEOBLP@volatile?5@ 00000001801e2a80     libvcruntime:undname.obj
 0002:0000aa90       ??_C@_08PABEKFH@volatile@  00000001801e2a90     libvcruntime:undname.obj
 0002:0000aaa0       ??_C@_0BA@LKIJLKPP@std?3?3nullptr_t?5@ 00000001801e2aa0     libvcruntime:undname.obj
 0002:0000aab0       ??_C@_0P@GCOCNKDM@std?3?3nullptr_t@ 00000001801e2ab0     libvcruntime:undname.obj
 0002:0000aac0       ??_C@_0L@EGPHHEKN@?$DMellipsis?$DO@ 00000001801e2ac0     libvcruntime:undname.obj
 0002:0000aacc       ??_C@_04EENFHACM@?0?4?4?4@ 00000001801e2acc     libvcruntime:undname.obj
 0002:0000aad8       ??_C@_0M@ELJOJFFH@?0?$DMellipsis?$DO@ 00000001801e2ad8     libvcruntime:undname.obj
 0002:0000aae8       ??_C@_09DNHFEOJI@?5noexcept@ 00000001801e2ae8     libvcruntime:undname.obj
 0002:0000aaf4       ??_C@_03PBJBJNON@cpu@      00000001801e2af4     libvcruntime:undname.obj
 0002:0000aaf8       ??_C@_03DCBBJBAA@amp@      00000001801e2af8     libvcruntime:undname.obj
 0002:0000aafc       ??_C@_02KEGNLNML@?0?5@     00000001801e2afc     libvcruntime:undname.obj
 0002:0000ab00       ??_C@_04ENMBGAPA@char@     00000001801e2b00     libvcruntime:undname.obj
 0002:0000ab08       ??_C@_05BFKKPKCG@short@    00000001801e2b08     libvcruntime:undname.obj
 0002:0000ab10       ??_C@_03JBIPMCLC@int@      00000001801e2b10     libvcruntime:undname.obj
 0002:0000ab14       ??_C@_04GOKPGOLB@long@     00000001801e2b14     libvcruntime:undname.obj
 0002:0000ab1c       ??_C@_06BNJCAIGJ@double@   00000001801e2b1c     libvcruntime:undname.obj
 0002:0000ab24       ??_C@_06EBGKOKIG@__int8@   00000001801e2b24     libvcruntime:undname.obj
 0002:0000ab30       ??_C@_07ICFHOGAF@__int16@  00000001801e2b30     libvcruntime:undname.obj
 0002:0000ab38       ??_C@_07OFLPPHGP@__int32@  00000001801e2b38     libvcruntime:undname.obj
 0002:0000ab40       ??_C@_07LFCOJCAC@__int64@  00000001801e2b40     libvcruntime:undname.obj
 0002:0000ab48       ??_C@_08GAHOLHEO@__int128@ 00000001801e2b48     libvcruntime:undname.obj
 0002:0000ab58       ??_C@_09EEKGDCPH@?$DMunknown?$DO@ 00000001801e2b58     libvcruntime:undname.obj
 0002:0000ab68       ??_C@_07CFHGOPCN@char8_t@  00000001801e2b68     libvcruntime:undname.obj
 0002:0000ab70       ??_C@_08HBIPOFJB@char16_t@ 00000001801e2b70     libvcruntime:undname.obj
 0002:0000ab80       ??_C@_08IECNCBKG@char32_t@ 00000001801e2b80     libvcruntime:undname.obj
 0002:0000ab90       ??_C@_07CLGGIAMF@wchar_t@  00000001801e2b90     libvcruntime:undname.obj
 0002:0000ab98       ??_C@_04HAPDLBFF@auto@     00000001801e2b98     libvcruntime:undname.obj
 0002:0000aba0       ??_C@_0P@LHCGKIGK@decltype?$CIauto?$CJ@ 00000001801e2ba0     libvcruntime:undname.obj
 0002:0000abb0       ??_C@_05PCNBGHCF@this?5@   00000001801e2bb0     libvcruntime:undname.obj
 0002:0000abb8       ??_C@_06GCICPBLB@__w64?5@  00000001801e2bb8     libvcruntime:undname.obj
 0002:0000abc0       ??_C@_07NFANNNEC@UNKNOWN@  00000001801e2bc0     libvcruntime:undname.obj
 0002:0000abc8       ??_C@_07EDHNAJHC@signed?5@ 00000001801e2bc8     libvcruntime:undname.obj
 0002:0000abd0       ??_C@_05BNCCCJPP@const@    00000001801e2bd0     libvcruntime:undname.obj
 0002:0000abd8       ??_C@_09EFNPDFFP@?5volatile@ 00000001801e2bd8     libvcruntime:undname.obj
 0002:0000abe8       ??_C@_0P@GCIFDJCJ@?$GAunknown?5ecsu?8@ 00000001801e2be8     libvcruntime:undname.obj
 0002:0000abf8       ??_C@_06MOJHIBMG@union?5@  00000001801e2bf8     libvcruntime:undname.obj
 0002:0000ac00       ??_C@_07DIBCDNGL@struct?5@ 00000001801e2c00     libvcruntime:undname.obj
 0002:0000ac08       ??_C@_06LJBABKPM@class?5@  00000001801e2c08     libvcruntime:undname.obj
 0002:0000ac10       ??_C@_08KOFANOFK@coclass?5@ 00000001801e2c10     libvcruntime:undname.obj
 0002:0000ac20       ??_C@_0N@DLIEFKNA@cointerface?5@ 00000001801e2c20     libvcruntime:undname.obj
 0002:0000ac30       ??_C@_05LJGMCFOG@enum?5@   00000001801e2c30     libvcruntime:undname.obj
 0002:0000ac38       ??_C@_06LIJLOJAG@const?5@  00000001801e2c38     libvcruntime:undname.obj
 0002:0000ac40       ??_C@_02KJPKDIBN@?$CG?5@   00000001801e2c40     libvcruntime:undname.obj
 0002:0000ac44       ??_C@_03PCKGMOPB@?$CG?$CG?5@ 00000001801e2c44     libvcruntime:undname.obj
 0002:0000ac48       ??_C@_0M@EALIELKG@cli?3?3array?$DM@ 00000001801e2c48     libvcruntime:undname.obj
 0002:0000ac58       ??_C@_0O@GKABPPIF@cli?3?3pin_ptr?$DM@ 00000001801e2c58     libvcruntime:undname.obj
 0002:0000ac68       ??_C@_02GOGNNPBN@?$CJ?$FL@ 00000001801e2c68     libvcruntime:undname.obj
 0002:0000ac6c       ??_C@_06EEGAIFAK@?$HLflat?$HN@ 00000001801e2c6c     libvcruntime:undname.obj
 0002:0000ac74       ??_C@_05JIBOFOHK@?$HLfor?5@ 00000001801e2c74     libvcruntime:undname.obj
 0002:0000ac7c       ??_C@_02MDINNEEG@s?5@      00000001801e2c7c     libvcruntime:undname.obj
 0002:0000ac88       ??_7charNode@@6B@          00000001801e2c88     libvcruntime:undname.obj
 0002:0000acb0       ??_7pcharNode@@6B@         00000001801e2cb0     libvcruntime:undname.obj
 0002:0000acd8       ??_7pDNameNode@@6B@        00000001801e2cd8     libvcruntime:undname.obj
 0002:0000ad00       ??_7DNameStatusNode@@6B@   00000001801e2d00     libvcruntime:undname.obj
 0002:0000ad28       ??_7pairNode@@6B@          00000001801e2d28     libvcruntime:undname.obj
 0002:0000ae50       ??_C@_04OKOHEJBO@?5?$DP?$DP?5@ 00000001801e2e50     libvcruntime:undname.obj
 0002:0000ae60       ?nodes@?1??make@DNameStatusNode@@SAPEBV2@W4DNameStatus@@@Z@4QBV2@B 00000001801e2e60     libvcruntime:undname.obj
 0002:0000aea0       ?s_negLengthTab@FH4@@3QBCB 00000001801e2ea0     libvcruntime:risctrnsctrl.obj
 0002:0000aeb0       ?s_shiftTab@FH4@@3QBEB     00000001801e2eb0     libvcruntime:risctrnsctrl.obj
 0002:0000b010       ??_C@_1DM@KHCHBNEB@?$AAa?$AAp?$AAi?$AA?9?$AAm?$AAs?$AA?9?$AAw?$AAi?$AAn?$AA?9?$AAc?$AAo?$AAr?$AAe@ 00000001801e3010     libvcruntime:winapi_downlevel.obj
 0002:0000b050       ??_C@_1DK@LPPGFMPP@?$AAa?$AAp?$AAi?$AA?9?$AAm?$AAs?$AA?9?$AAw?$AAi?$AAn?$AA?9?$AAc?$AAo?$AAr?$AAe@ 00000001801e3050     libvcruntime:winapi_downlevel.obj
 0002:0000b090       ??_C@_1BC@GDMECMAK@?$AAk?$AAe?$AAr?$AAn?$AAe?$AAl?$AA3?$AA2@ 00000001801e3090     libvcruntime:winapi_downlevel.obj
 0002:0000b0a8       ??_C@_1BA@PFFKHIOG@?$AAa?$AAp?$AAi?$AA?9?$AAm?$AAs?$AA?9@ 00000001801e30a8     libvcruntime:winapi_downlevel.obj
 0002:0000b0c0       ??_C@_08KNHFBNJ@FlsAlloc@  00000001801e30c0     libvcruntime:winapi_downlevel.obj
 0002:0000b0d8       ??_C@_07PEJMOBNF@FlsFree@  00000001801e30d8     libvcruntime:winapi_downlevel.obj
 0002:0000b0e8       ??_C@_0M@GDNOONDI@FlsGetValue@ 00000001801e30e8     libvcruntime:winapi_downlevel.obj
 0002:0000b100       ??_C@_0M@JCPCPOEF@FlsSetValue@ 00000001801e3100     libvcruntime:winapi_downlevel.obj
 0002:0000b118       ??_C@_0BM@HCFOFFN@InitializeCriticalSectionEx@ 00000001801e3118     libvcruntime:winapi_downlevel.obj
 0002:0000b140       ??_7exception@std@@6B@     00000001801e3140     libvcruntime:frame.obj
 0002:0000b150       ??_C@_0BC@EOODALEL@Unknown?5exception@ 00000001801e3150     libvcruntime:frame.obj
 0002:0000b170       ??_7bad_exception@std@@6B@ 00000001801e3170     libvcruntime:frame.obj
 0002:0000b180       ??_C@_0O@DPKOEFFH@bad?5exception@ 00000001801e3180     libvcruntime:frame.obj
 0002:0000b4d0       ?standard_lookup_table_spectre@__crt_stdio_output@@3V?$spectre_mitigated_lookup_table@Ustate_transition_pair@__crt_stdio_output@@$0IA@@1@B 00000001801e34d0     libucrt:output.obj
 0002:0000b5d0       ?format_validation_lookup_table_spectre@__crt_stdio_output@@3V?$spectre_mitigated_lookup_table@Ustate_transition_pair@__crt_stdio_output@@$0IA@@1@B 00000001801e35d0     libucrt:output.obj
 0002:0000b6d0       ??_C@_1O@CEDCILHN@?$AA?$CI?$AAn?$AAu?$AAl?$AAl?$AA?$CJ@ 00000001801e36d0     libucrt:output.obj
 0002:0000b6e0       ??_C@_06OJHGLDPL@?$CInull?$CJ@ 00000001801e36e0     libucrt:output.obj
 0002:0000c778       __real@3f1a36e2eb1c432d    00000001801e4778     libucrt:atan2f.obj
 0002:0000c780       __real@3fb0000000000000    00000001801e4780     libucrt:atan2f.obj
 0002:0000c788       __real@3fc2492482bd6be1    00000001801e4788     libucrt:atan2f.obj
 0002:0000c790       __real@3fc99999999643a3    00000001801e4790     libucrt:atan2f.obj
 0002:0000c798       __real@3fd5555555550877    00000001801e4798     libucrt:atan2f.obj
 0002:0000c7a0       __real@3fd5555555555538    00000001801e47a0     libucrt:atan2f.obj
 0002:0000c7a8       __real@3ff921fb54442d18    00000001801e47a8     libucrt:atan2f.obj
 0002:0000c7b0       __real@400921fb54442d18    00000001801e47b0     libucrt:atan2f.obj
 0002:0000c7b8       __real@40490fdb            00000001801e47b8     libucrt:atan2f.obj
 0002:0000c7c0       __real@4070000000000000    00000001801e47c0     libucrt:atan2f.obj
 0002:0000c7c8       __real@bf490fdb            00000001801e47c8     libucrt:atan2f.obj
 0002:0000c7cc       __real@bfc90fdb            00000001801e47cc     libucrt:atan2f.obj
 0002:0000c7d0       __real@c016cbe4            00000001801e47d0     libucrt:atan2f.obj
 0002:0000c7d4       __real@c0490fdb            00000001801e47d4     libucrt:atan2f.obj
 0002:0000c7d8       ??_C@_05FFFCHCED@acosf@    00000001801e47d8     libucrt:acosf.obj
 0002:0000c7e0       __real@3b81ce6b            00000001801e47e0     libucrt:acosf.obj
 0002:0000c7e8       __real@3c91a62633145c07    00000001801e47e8     libucrt:acosf.obj
 0002:0000c7f0       __real@3d678bdd            00000001801e47f0     libucrt:acosf.obj
 0002:0000c7f4       __real@3e3c94dc            00000001801e47f4     libucrt:acosf.obj
 0002:0000c7f8       __real@3f561f0d            00000001801e47f8     libucrt:acosf.obj
 0002:0000c7fc       __real@3f8d6fa5            00000001801e47fc     libucrt:acosf.obj
 0002:0000c800       __real@bc5b3fe1            00000001801e4800     libucrt:acosf.obj
 0002:0000c810       __acrt_exception_action_table 00000001801e4810     libucrt:exception_filter.obj
 0002:0000c8d0       __acrt_signal_action_table_count 00000001801e48d0     libucrt:exception_filter.obj
 0002:0000c8d8       __acrt_signal_action_first_fpe_index 00000001801e48d8     libucrt:exception_filter.obj
 0002:0000c8e0       __acrt_signal_action_fpe_count 00000001801e48e0     libucrt:exception_filter.obj
 0002:0000c938       ??_C@_1BI@BGOHAHKC@?$AAm?$AAs?$AAc?$AAo?$AAr?$AAe?$AAe?$AA?4?$AAd?$AAl?$AAl@ 00000001801e4938     libucrt:exit.obj
 0002:0000c950       ??_C@_0P@MIGLKIOC@CorExitProcess@ 00000001801e4950     libucrt:exit.obj
 0002:0000cc20       ??_C@_04LAGPAAHP@sinf@     00000001801e4c20     libucrt:sincos_special.obj
 0002:0000cc28       ??_C@_04OBBKPIAC@cosf@     00000001801e4c28     libucrt:sincos_special.obj
 0002:0000cc30       ??_C@_04MHPLPEIA@tanf@     00000001801e4c30     libucrt:sincos_special.obj
 0002:0000cc40       __Lcosfarray               00000001801e4c40     libucrt:lsincosf_array.obj
 0002:0000cc70       __Lsinfarray               00000001801e4c70     libucrt:lsincosf_array.obj
 0002:0000cc90       __L_2_by_pi_bits           00000001801e4c90     libucrt:l2_by_pi_bits.obj
 0002:0000cff0       ??_C@_1EA@JGEFHKEI@?$AAa?$AAp?$AAi?$AA?9?$AAm?$AAs?$AA?9?$AAw?$AAi?$AAn?$AA?9?$AAc?$AAo?$AAr?$AAe@ 00000001801e4ff0     libucrt:winapi_thunks.obj
 0002:0000d030       ??_C@_1DI@IJCEHOCB@?$AAa?$AAp?$AAi?$AA?9?$AAm?$AAs?$AA?9?$AAw?$AAi?$AAn?$AA?9?$AAc?$AAo?$AAr?$AAe@ 00000001801e5030     libucrt:winapi_thunks.obj
 0002:0000d070       ??_C@_1EI@MPIAOHOC@?$AAa?$AAp?$AAi?$AA?9?$AAm?$AAs?$AA?9?$AAw?$AAi?$AAn?$AA?9?$AAc?$AAo?$AAr?$AAe@ 00000001801e5070     libucrt:winapi_thunks.obj
 0002:0000d0c0       ??_C@_1FK@FPHCKFIE@?$AAa?$AAp?$AAi?$AA?9?$AAm?$AAs?$AA?9?$AAw?$AAi?$AAn?$AA?9?$AAc?$AAo?$AAr?$AAe@ 00000001801e50c0     libucrt:winapi_thunks.obj
 0002:0000d120       ??_C@_1EM@DILCGIIO@?$AAa?$AAp?$AAi?$AA?9?$AAm?$AAs?$AA?9?$AAw?$AAi?$AAn?$AA?9?$AAc?$AAo?$AAr?$AAe@ 00000001801e5120     libucrt:winapi_thunks.obj
 0002:0000d170       ??_C@_1DM@LNCGDDPN@?$AAa?$AAp?$AAi?$AA?9?$AAm?$AAs?$AA?9?$AAw?$AAi?$AAn?$AA?9?$AAc?$AAo?$AAr?$AAe@ 00000001801e5170     libucrt:winapi_thunks.obj
 0002:0000d1b0       ??_C@_1DO@FPAPJEMD@?$AAa?$AAp?$AAi?$AA?9?$AAm?$AAs?$AA?9?$AAw?$AAi?$AAn?$AA?9?$AAc?$AAo?$AAr?$AAe@ 00000001801e51b0     libucrt:winapi_thunks.obj
 0002:0000d1f0       ??_C@_1DK@NDHNAHIO@?$AAa?$AAp?$AAi?$AA?9?$AAm?$AAs?$AA?9?$AAw?$AAi?$AAn?$AA?9?$AAc?$AAo?$AAr?$AAe@ 00000001801e51f0     libucrt:winapi_thunks.obj
 0002:0000d230       ??_C@_1DM@KGHDGBCM@?$AAa?$AAp?$AAi?$AA?9?$AAm?$AAs?$AA?9?$AAw?$AAi?$AAn?$AA?9?$AAc?$AAo?$AAr?$AAe@ 00000001801e5230     libucrt:winapi_thunks.obj
 0002:0000d270       ??_C@_1EO@IJIOEFOH@?$AAa?$AAp?$AAi?$AA?9?$AAm?$AAs?$AA?9?$AAw?$AAi?$AAn?$AA?9?$AAr?$AAt?$AAc?$AAo@ 00000001801e5270     libucrt:winapi_thunks.obj
