 PhysXCommon_64

 Timestamp is 651a78f4 (Mon Oct  2 11:01:56 2023)

 Preferred load address is 0000000180000000

 Start         Length     Name                   Class
 0001:00000000 00003530H .text$di                CODE
 0001:00003530 001d3f00H .text$mn                CODE
 0001:001d7430 00000040H .text$mn$00             CODE
 0001:001d7470 00000680H .text$x                 CODE
 0001:001d7af0 0000000fH .text$yd                CODE
 0002:00000000 00000288H .idata$5                DATA
 0002:00000288 00000038H .00cfg                  DATA
 0002:000002c0 00000008H .CRT$XCA                DATA
 0002:000002c8 000019d0H .CRT$XCU                DATA
 0002:00001c98 00000008H .CRT$XCZ                DATA
 0002:00001ca0 00000008H .CRT$XIA                DATA
 0002:00001ca8 00000018H .CRT$XIC                DATA
 0002:00001cc0 00000008H .CRT$XIZ                DATA
 0002:00001cc8 00000008H .CRT$XPA                DATA
 0002:00001cd0 00000010H .CRT$XPX                DATA
 0002:00001ce0 00000008H .CRT$XPXA               DATA
 0002:00001ce8 00000008H .CRT$XPZ                DATA
 0002:00001cf0 00000008H .CRT$XTA                DATA
 0002:00001cf8 00000008H .CRT$XTZ                DATA
 0002:00001d00 00000000H .gehcont$y              DATA
 0002:00001d00 00000000H .gfids$y                DATA
 0002:00001d00 00012380H .rdata                  DATA
 0002:00014080 00000000H .rdata$CastGuardVftablesA DATA
 0002:00014080 00000000H .rdata$CastGuardVftablesC DATA
 0002:00014080 0000043cH .rdata$r                DATA
 0002:000144bc 0000022cH .rdata$voltmd           DATA
 0002:000146e8 00000450H .rdata$zzzdbg           DATA
 0002:00014b38 00000008H .rtc$IAA                DATA
 0002:00014b40 00000008H .rtc$IZZ                DATA
 0002:00014b48 00000008H .rtc$TAA                DATA
 0002:00014b50 00000008H .rtc$TZZ                DATA
 0002:00014b58 00015068H .xdata                  DATA
 0002:00029bc0 00000084H .xdata$x                DATA
 0002:00029c44 00000020H .didat$2                DATA
 0002:00029c64 00000024H .didat$3                DATA
 0002:00029c88 000000d0H .didat$4                DATA
 0002:00029d58 00000430H .didat$6                DATA
 0002:0002a188 000000d8H .didat$7                DATA
 0002:0002a260 0000c6a8H .edata                  DATA
 0002:00036908 00000014H .idata$2                DATA
 0002:0003691c 00000014H .idata$3                DATA
 0002:00036930 00000288H .idata$4                DATA
 0002:00036bb8 000005caH .idata$6                DATA
 0003:00000000 00001c40H .data                   DATA
 0003:00001c40 00001158H .data$r                 DATA
 0003:00002d98 000000f0H .data$rs                DATA
 0003:00002e88 000000d8H .didat$5                DATA
 0003:00002f60 0000461cH .bss                    DATA
 0004:00000000 0000c558H .pdata                  DATA
 0005:00000000 0000236cH _RDATA                  DATA
 0006:00000000 000000a0H .rsrc$01                DATA
 0006:000000a0 000004b0H .rsrc$02                DATA

  Address         Publics by Value              Rva+Base               Lib:Object

 0000:00000000       __AbsoluteZero             0000000000000000     <absolute>
 0000:00000000       ___safe_se_handler_count   0000000000000000     <absolute>
 0000:00000000       ___safe_se_handler_table   0000000000000000     <absolute>
 0000:00000000       __arm64x_extra_rfe_table   0000000000000000     <absolute>
 0000:00000000       __arm64x_extra_rfe_table_size 0000000000000000     <absolute>
 0000:00000000       __arm64x_native_entrypoint 0000000000000000     <absolute>
 0000:00000000       __arm64x_redirection_metadata 0000000000000000     <absolute>
 0000:00000000       __arm64x_redirection_metadata_count 0000000000000000     <absolute>
 0000:00000000       __dynamic_value_reloc_table 0000000000000000     <absolute>
 0000:00000000       __enclave_config           0000000000000000     <absolute>
 0000:00000000       __guard_check_icall_a64n_fptr 0000000000000000     <absolute>
 0000:00000000       __guard_eh_cont_count      0000000000000000     <absolute>
 0000:00000000       __guard_eh_cont_table      0000000000000000     <absolute>
 0000:00000000       __guard_fids_count         0000000000000000     <absolute>
 0000:00000000       __guard_fids_table         0000000000000000     <absolute>
 0000:00000000       __guard_iat_count          0000000000000000     <absolute>
 0000:00000000       __guard_iat_table          0000000000000000     <absolute>
 0000:00000000       __guard_longjmp_count      0000000000000000     <absolute>
 0000:00000000       __guard_longjmp_table      0000000000000000     <absolute>
 0000:00000000       __hybrid_auxiliary_iat     0000000000000000     <absolute>
 0000:00000000       __hybrid_auxiliary_iat_copy 0000000000000000     <absolute>
 0000:00000000       __hybrid_code_map          0000000000000000     <absolute>
 0000:00000000       __hybrid_code_map_count    0000000000000000     <absolute>
 0000:00000000       __x64_code_ranges_to_entry_points 0000000000000000     <absolute>
 0000:00000000       __x64_code_ranges_to_entry_points_count 0000000000000000     <absolute>
 0000:00000100       __guard_flags              0000000000000100     <absolute>
 0000:00000000       __ImageBase                0000000180000000     <linker-defined>
 0001:00003530       ??0PtrTable@Cm@physx@@QEAA@W4PxEMPTY@2@@Z 0000000180004530 f i CmPtrTable.obj
 0001:00003550       ??0PtrTable@Cm@physx@@QEAA@XZ 0000000180004550 f   CmPtrTable.obj
 0001:00003560       ??1AABBTreeBuildNode@Gu@physx@@QEAA@XZ 0000000180004560 f   GuMeshFactory.obj
 0001:00003560       ??1BigConvexDataBuilder@physx@@QEAA@XZ 0000000180004560 f   GuCookingBigConvexDataBuilder.obj
 0001:00003560       ??1Box@Gu@physx@@QEAA@XZ   0000000180004560 f   GuBox.obj
 0001:00003560       ??1HeightFieldData@Gu@physx@@QEAA@XZ 0000000180004560 f   GuCCTSweepTests.obj
 0001:00003560       ??1PtrTable@Cm@physx@@QEAA@XZ 0000000180004560 f   CmPtrTable.obj
 0001:00003560       ?build@CompanionPrunerIncremental@@UEAAXXZ 0000000180004560 f   GuSecondaryPruner.obj
 0001:00003560       ?checkTreeLeaf@IncrementalAABBTree@Gu@physx@@QEAAXPEAVIncrementalAABBTreeNode@23@I@Z 0000000180004560 f   GuIncrementalAABBTree.obj
 0001:00003560       ?execute@?$PxThreadT@V?$PxReflectionAllocator@VPxThreadImpl@physx@@@physx@@@physx@@UEAAXXZ 0000000180004560 f   GuSDF.obj
 0001:00003560       ?execute@PxRunnable@physx@@UEAAXXZ 0000000180004560 f   GuSDF.obj
 0001:00003560       ?merge@BucketPruner@Gu@physx@@UEAAXPEBX@Z 0000000180004560 f   GuBucketPruner.obj
 0001:00003560       ?merge@IncrementalAABBPruner@Gu@physx@@UEAAXPEBX@Z 0000000180004560 f   GuIncrementalAABBPruner.obj
 0001:00003560       ?onMeshIndexFormatChange@TriangleMeshBuilder@physx@@UEAAXXZ 0000000180004560 f   GuCookingTriangleMesh.obj
 0001:00003560       ?profile@Callback@RTree@Gu@physx@@UEAAXXZ 0000000180004560 f   GuMidphaseRTree.obj
 0001:00003560       ?purge@BucketPruner@Gu@physx@@UEAAXXZ 0000000180004560 f   GuBucketPruner.obj
 0001:00003560       ?requiresObjects@ConvexMesh@Gu@physx@@UEAAXAEAVPxProcessPxBaseCallback@3@@Z 0000000180004560 f   GuConvexMesh.obj
 0001:00003560       ?requiresObjects@HeightField@Gu@physx@@UEAAXAEAVPxProcessPxBaseCallback@3@@Z 0000000180004560 f   GuHeightField.obj
 0001:00003560       ?requiresObjects@SoftBodyMesh@Gu@physx@@UEAAXAEAVPxProcessPxBaseCallback@3@@Z 0000000180004560 f   GuTetrahedronMesh.obj
 0001:00003560       ?requiresObjects@TriangleMesh@Gu@physx@@UEAAXAEAVPxProcessPxBaseCallback@3@@Z 0000000180004560 f   GuTriangleMesh.obj
 0001:00003560       ?swapIndex@CompanionPrunerAABBTree@@UEAAXII@Z 0000000180004560 f   GuSecondaryPruner.obj
 0001:00003560       ?swapIndex@CompanionPrunerBucket@@UEAAXII@Z 0000000180004560 f   GuSecondaryPruner.obj
 0001:00003560       ?timeStampChange@CompanionPrunerAABBTree@@UEAAXXZ 0000000180004560 f   GuSecondaryPruner.obj
 0001:00003560       ?timeStampChange@CompanionPrunerBucket@@UEAAXXZ 0000000180004560 f   GuSecondaryPruner.obj
 0001:00003560       ?visualize@BasePruner@Gu@physx@@UEBAXAEAVPxRenderOutput@3@II@Z 0000000180004560 f   GuIncrementalAABBPruner.obj
 0001:00003560       _guard_check_icall_nop     0000000180004560 f   LIBCMT:guard_support.obj
 0001:00003570       ??4AABBTreeBounds@Gu@physx@@QEAAAEAV012@AEBV012@@Z 0000000180004570 f i GuMeshFactory.obj
 0001:00003570       ??4CmModuleUpdateLoader@Cm@physx@@QEAAAEAV012@AEBV012@@Z 0000000180004570 f i CmWindowsModuleUpdateLoader.obj
 0001:00003570       ??4PtrTable@Cm@physx@@QEAAAEAU012@AEBU012@@Z 0000000180004570 f i CmPtrTable.obj
 0001:00003580       ?add@PtrTable@Cm@physx@@QEAAXPEAXAEAVPtrTableStorageManager@23@@Z 0000000180004580 f   CmPtrTable.obj
 0001:00003690       ?clear@PtrTable@Cm@physx@@QEAAXAEAVPtrTableStorageManager@23@@Z 0000000180004690 f   CmPtrTable.obj
 0001:00003700       ?exportExtraData@PtrTable@Cm@physx@@QEAAXAEAVPxSerializationContext@3@@Z 0000000180004700 f   CmPtrTable.obj
 0001:00003750       ?find@PtrTable@Cm@physx@@QEBAIPEBX@Z 0000000180004750 f   CmPtrTable.obj
 0001:00003780       ?getBinaryMetaData@PtrTable@Cm@physx@@SAXAEAVPxOutputStream@3@@Z 0000000180004780 f   CmPtrTable.obj
 0001:00003970       ?getCount@PtrTable@Cm@physx@@QEBAIXZ 0000000180004970 f i CmPtrTable.obj
 0001:00003980       ?getPtrs@PtrTable@Cm@physx@@QEAAPEAPEAXXZ 0000000180004980 f i CmPtrTable.obj
 0001:00003980       ?getPtrs@PtrTable@Cm@physx@@QEBAPEBQEAXXZ 0000000180004980 f i CmPtrTable.obj
 0001:00003990       ?importExtraData@PtrTable@Cm@physx@@QEAAXAEAVPxDeserializationContext@3@@Z 0000000180004990 f   CmPtrTable.obj
 0001:000039c0       ?realloc@PtrTable@Cm@physx@@AEAAXIIAEAVPtrTableStorageManager@23@@Z 00000001800049c0 f   CmPtrTable.obj
 0001:00003a50       ?replaceWithLast@PtrTable@Cm@physx@@QEAAXIAEAVPtrTableStorageManager@23@@Z 0000000180004a50 f   CmPtrTable.obj
 0001:00003b50       ??_ECollection@Cm@physx@@UEAAPEAXI@Z 0000000180004b50 f i CmCollection.obj
 0001:00003b50       ??_GCollection@Cm@physx@@UEAAPEAXI@Z 0000000180004b50 f i CmCollection.obj
 0001:00003c00       ??_EPxCollection@physx@@MEAAPEAXI@Z 0000000180004c00 f i CmCollection.obj
 0001:00003c00       ??_GPxCollection@physx@@MEAAPEAXI@Z 0000000180004c00 f i CmCollection.obj
 0001:00003c30       ?add@Collection@Cm@physx@@UEAAXAEAVPxBase@3@_K@Z 0000000180004c30 f   CmCollection.obj
 0001:00003d20       ?add@Collection@Cm@physx@@UEAAXAEAVPxCollection@3@@Z 0000000180004d20 f   CmCollection.obj
 0001:00003ec0       ?addId@Collection@Cm@physx@@UEAAXAEAVPxBase@3@_K@Z 0000000180004ec0 f   CmCollection.obj
 0001:00003ff0       ?contains@Collection@Cm@physx@@UEBA_NAEAVPxBase@3@@Z 0000000180004ff0 f   CmCollection.obj
 0001:000040a0       ?create@?$PxHashBase@V?$PxPair@$$CB_KPEAVPxBase@physx@@@physx@@_KU?$PxHash@_K@2@UGetKey@?$PxHashMapBase@_KPEAVPxBase@physx@@U?$PxHash@_K@2@VPxAllocator@2@@2@VPxAllocator@2@$00@physx@@QEAAPEAV?$PxPair@$$CB_KPEAVPxBase@physx@@@2@AEB_KAEA_N@Z 00000001800050a0 f i CmCollection.obj
 0001:000040a0       ?create@?$PxHashBase@V?$PxPair@QEAVPxBase@physx@@_K@physx@@PEAVPxBase@2@U?$PxHash@PEAVPxBase@physx@@@2@UGetKey@?$PxHashMapBase@PEAVPxBase@physx@@_KU?$PxHash@PEAVPxBase@physx@@@2@VPxAllocator@2@@2@VPxAllocator@2@$00@physx@@QEAAPEAV?$PxPair@QEAVPxBase@physx@@_K@2@AEBQEAVPxBase@2@AEA_N@Z 00000001800050a0 f i CmCollection.obj
 0001:00004230       ?erase@?$PxHashBase@V?$PxPair@$$CB_KPEAVPxBase@physx@@@physx@@_KU?$PxHash@_K@2@UGetKey@?$PxHashMapBase@_KPEAVPxBase@physx@@U?$PxHash@_K@2@VPxAllocator@2@@2@VPxAllocator@2@$00@physx@@QEAA_NAEB_K@Z 0000000180005230 f i CmCollection.obj
 0001:00004230       ?erase@?$PxHashBase@V?$PxPair@QEAVPxBase@physx@@_K@physx@@PEAVPxBase@2@U?$PxHash@PEAVPxBase@physx@@@2@UGetKey@?$PxHashMapBase@PEAVPxBase@physx@@_KU?$PxHash@PEAVPxBase@physx@@@2@VPxAllocator@2@@2@VPxAllocator@2@$00@physx@@QEAA_NAEBQEAVPxBase@2@@Z 0000000180005230 f i CmCollection.obj
 0001:000043e0       ?find@?$PxHashMapBase@_KPEAVPxBase@physx@@U?$PxHash@_K@2@VPxAllocator@2@@physx@@QEBAPEBV?$PxPair@$$CB_KPEAVPxBase@physx@@@2@AEB_K@Z 00000001800053e0 f i CmCollection.obj
 0001:00004480       ?find@Collection@Cm@physx@@UEBAPEAVPxBase@3@_K@Z 0000000180005480 f   CmCollection.obj
 0001:000044b0       ?getId@Collection@Cm@physx@@UEBA_KAEBVPxBase@3@@Z 00000001800054b0 f   CmCollection.obj
 0001:00004560       ?getIds@Collection@Cm@physx@@UEBAIPEA_KII@Z 0000000180005560 f   CmCollection.obj
 0001:00004630       ?getNbIds@Collection@Cm@physx@@UEBAIXZ 0000000180005630 f   CmCollection.obj
 0001:00004640       ?getNbObjects@Collection@Cm@physx@@UEBAIXZ 0000000180005640 f   CmCollection.obj
 0001:00004650       ?getObject@Collection@Cm@physx@@UEBAAEAVPxBase@3@I@Z 0000000180005650 f   CmCollection.obj
 0001:00004660       ?getObjects@Collection@Cm@physx@@UEBAIPEAPEAVPxBase@3@II@Z 0000000180005660 f   CmCollection.obj
 0001:000046a0       ?release@Collection@Cm@physx@@UEAAXXZ 00000001800056a0 f i CmCollection.obj
 0001:000046c0       ?remove@Collection@Cm@physx@@UEAAXAEAVPxBase@3@@Z 00000001800056c0 f   CmCollection.obj
 0001:000047b0       ?remove@Collection@Cm@physx@@UEAAXAEAVPxCollection@3@@Z 00000001800057b0 f   CmCollection.obj
 0001:000048c0       ?removeId@Collection@Cm@physx@@UEAAX_K@Z 00000001800058c0 f   CmCollection.obj
 0001:00004940       ?reserveInternal@?$PxHashBase@V?$PxPair@$$CB_KPEAVPxBase@physx@@@physx@@_KU?$PxHash@_K@2@UGetKey@?$PxHashMapBase@_KPEAVPxBase@physx@@U?$PxHash@_K@2@VPxAllocator@2@@2@VPxAllocator@2@$00@physx@@AEAAXI@Z 0000000180005940 f i CmCollection.obj
 0001:00004940       ?reserveInternal@?$PxHashBase@V?$PxPair@QEAVPxBase@physx@@_K@physx@@PEAVPxBase@2@U?$PxHash@PEAVPxBase@physx@@@2@UGetKey@?$PxHashMapBase@PEAVPxBase@physx@@_KU?$PxHash@PEAVPxBase@physx@@@2@VPxAllocator@2@@2@VPxAllocator@2@$00@physx@@AEAAXI@Z 0000000180005940 f i CmCollection.obj
 0001:00004b20       PxCreateCollection         0000000180005b20 f   CmCollection.obj
 0001:00004c10       ??0RadixSort@Cm@physx@@QEAA@XZ 0000000180005c10 f   CmRadixSort.obj
 0001:00004c40       ??0RadixSortBuffered@Cm@physx@@QEAA@XZ 0000000180005c40 f   CmRadixSort.obj
 0001:00004c70       ??1RadixSort@Cm@physx@@UEAA@XZ 0000000180005c70 f   CmRadixSort.obj
 0001:00004c80       ??1RadixSortBuffered@Cm@physx@@UEAA@XZ 0000000180005c80 f   CmRadixSort.obj
 0001:00004cb0       ??_ERadixSort@Cm@physx@@UEAAPEAXI@Z 0000000180005cb0 f i CmRadixSort.obj
 0001:00004d40       ??_ERadixSortBuffered@Cm@physx@@UEAAPEAXI@Z 0000000180005d40 f i CmRadixSort.obj
 0001:00004e30       ?CheckResize@RadixSortBuffered@Cm@physx@@AEAAXI@Z 0000000180005e30 f i CmRadixSort.obj
 0001:00004e70       ?GetNbHits@RadixSort@Cm@physx@@QEBAIXZ 0000000180005e70 f i CmRadixSort.obj
 0001:00004e80       ?GetNbTotalCalls@RadixSort@Cm@physx@@QEBAIXZ 0000000180005e80 f i CmRadixSort.obj
 0001:00004e90       ?GetRanks@RadixSort@Cm@physx@@QEBAPEBIXZ 0000000180005e90 f i CmRadixSort.obj
 0001:00004e90       ?getGridModelInvMass@SoftBodyAuxData@Gu@physx@@UEAAPEAMXZ 0000000180005e90 f i GuTetrahedronMesh.obj
 0001:00004e90       ?getHeightField@HeightFieldUtil@Gu@physx@@QEBAAEBVHeightField@23@XZ 0000000180005e90 f i GuCCTSweepTests.obj
 0001:00004e90       ?getSimulationMesh@SoftBodyMesh@Gu@physx@@UEAAPEAVPxTetrahedronMesh@3@XZ 0000000180005e90 f i GuTetrahedronMesh.obj
 0001:00004e90       ?getSimulationMesh@SoftBodyMesh@Gu@physx@@UEBAPEBVPxTetrahedronMesh@3@XZ 0000000180005e90 f i GuTetrahedronMesh.obj
 0001:00004ea0       ?GetRecyclable@RadixSort@Cm@physx@@QEBAPEAIXZ 0000000180005ea0 f i CmRadixSort.obj
 0001:00004ea0       ?GetValencies@BigConvexData@physx@@QEBAPEBUValency@Gu@2@XZ 0000000180005ea0 f i GuMetaData.obj
 0001:00004ea0       ?getCollisionMesh@SoftBodyMesh@Gu@physx@@UEAAPEAVPxTetrahedronMesh@3@XZ 0000000180005ea0 f i GuTetrahedronMesh.obj
 0001:00004ea0       ?getCollisionMesh@SoftBodyMesh@Gu@physx@@UEBAPEBVPxTetrahedronMesh@3@XZ 0000000180005ea0 f i GuTetrahedronMesh.obj
 0001:00004ea0       ?getHeightFieldGeometry@HeightFieldUtil@Gu@physx@@QEBAAEBVPxHeightFieldGeometry@3@XZ 0000000180005ea0 f i GuCCTSweepTests.obj
 0001:00004ea0       ?getObjects@PruningPool@Gu@physx@@QEBAPEAUPrunerPayload@23@XZ 0000000180005ea0 f i GuIncrementalAABBPrunerCore.obj
 0001:00004ea0       ?getPos@AABBTreeBuildNode@Gu@physx@@QEBAPEBV123@XZ 0000000180005ea0 f i GuMeshFactory.obj
 0001:00004ea0       ?getVertices@TetrahedronMesh@Gu@physx@@UEBAPEBV?$PxVec3T@M@3@XZ 0000000180005ea0 f i GuTetrahedronMesh.obj
 0001:00004ea0       ?getVertices@TriangleMesh@Gu@physx@@UEBAPEBV?$PxVec3T@M@3@XZ 0000000180005ea0 f i GuTriangleMesh.obj
 0001:00004eb0       ?Resize@RadixSortBuffered@Cm@physx@@AEAA_NI@Z 0000000180005eb0 f   CmRadixSort.obj
 0001:00004fb0       ?SetBuffers@RadixSort@Cm@physx@@QEAA_NPEAI00PEAPEAI@Z 0000000180005fb0 f   CmRadixSort.obj
 0001:00004ff0       ?Sort@RadixSort@Cm@physx@@QEAAAEAV123@PEBIIW4RadixHint@23@@Z 0000000180005ff0 f   CmRadixSort.obj
 0001:000056a0       ?Sort@RadixSort@Cm@physx@@QEAAAEAV123@PEBMI@Z 00000001800066a0 f   CmRadixSort.obj
 0001:00005e40       ?Sort@RadixSortBuffered@Cm@physx@@QEAAAEAV123@PEBIIW4RadixHint@23@@Z 0000000180006e40 f   CmRadixSort.obj
 0001:00005ee0       ?Sort@RadixSortBuffered@Cm@physx@@QEAAAEAV123@PEBMI@Z 0000000180006ee0 f   CmRadixSort.obj
 0001:00005f70       ?invalidateRanks@RadixSort@Cm@physx@@QEAAXXZ 0000000180006f70 f i CmRadixSort.obj
 0001:00005f80       ?reset@RadixSortBuffered@Cm@physx@@QEAAXXZ 0000000180006f80 f   CmRadixSort.obj
 0001:00006000       ?ReadHeader@Cm@physx@@YA_NEEEEAEAIAEA_NAEAVPxInputStream@2@@Z 0000000180007000 f   CmSerialize.obj
 0001:00006160       ?ReadIndices@Cm@physx@@YAXGIPEAGAEAVPxInputStream@2@_N@Z 0000000180007160 f   CmSerialize.obj
 0001:000062b0       ?StoreIndices@Cm@physx@@YAXGIPEBGAEAVPxOutputStream@2@_N@Z 00000001800072b0 f   CmSerialize.obj
 0001:000063a0       ?WriteHeader@Cm@physx@@YA_NEEEEI_NAEAVPxOutputStream@2@@Z 00000001800073a0 f   CmSerialize.obj
 0001:000064d0       ?computeMaxIndex@physx@@YAGPEBGI@Z 00000001800074d0 f   CmSerialize.obj
 0001:00006500       ?computeMaxIndex@physx@@YAIPEBII@Z 0000000180007500 f   CmSerialize.obj
 0001:00006530       ?readByteBuffer@physx@@YAXPEAEIAEAVPxInputStream@1@@Z 0000000180007530 f   CmSerialize.obj
 0001:00006530       ?writeByteBuffer@physx@@YAXPEBEIAEAVPxOutputStream@1@@Z 0000000180007530 f   CmSerialize.obj
 0001:00006550       ?readChunk@physx@@YAXAEAC000AEAVPxInputStream@1@@Z 0000000180007550 f   CmSerialize.obj
 0001:000065d0       ?readDword@physx@@YAI_NAEAVPxInputStream@1@@Z 00000001800075d0 f   CmSerialize.obj
 0001:00006630       ?readFloat@physx@@YAM_NAEAVPxInputStream@1@@Z 0000000180007630 f   CmSerialize.obj
 0001:00006690       ?readFloatBuffer@physx@@YA_NPEAMI_NAEAVPxInputStream@1@@Z 0000000180007690 f   CmSerialize.obj
 0001:00006710       ?readHeader@physx@@YA_NCCCCAEAIAEA_NAEAVPxInputStream@1@@Z 0000000180007710 f   CmSerialize.obj
 0001:00006860       ?readIndices@physx@@YAXIIPEAIAEAVPxInputStream@1@_N@Z 0000000180007860 f   CmSerialize.obj
 0001:00006990       ?readWord@physx@@YAG_NAEAVPxInputStream@1@@Z 0000000180007990 f   CmSerialize.obj
 0001:000069d0       ?readWordBuffer@physx@@YAXPEAGI_NAEAVPxInputStream@1@@Z 00000001800079d0 f   CmSerialize.obj
 0001:00006a40       ?storeIndices@physx@@YAXIIPEBIAEAVPxOutputStream@1@_N@Z 0000000180007a40 f   CmSerialize.obj
 0001:00006bd0       ?writeDword@physx@@YAXI_NAEAVPxOutputStream@1@@Z 0000000180007bd0 f   CmSerialize.obj
 0001:00006c20       ?writeFloat@physx@@YAXM_NAEAVPxOutputStream@1@@Z 0000000180007c20 f   CmSerialize.obj
 0001:00006c70       ?writeFloatBuffer@physx@@YAXPEBMI_NAEAVPxOutputStream@1@@Z 0000000180007c70 f   CmSerialize.obj
 0001:00006d10       ?writeHeader@physx@@YA_NCCCCI_NAEAVPxOutputStream@1@@Z 0000000180007d10 f   CmSerialize.obj
 0001:00006e40       ?writeWord@physx@@YAXG_NAEAVPxOutputStream@1@@Z 0000000180007e40 f   CmSerialize.obj
 0001:00006e80       ?writeWordBuffer@physx@@YAXPEBGI_NAEAVPxOutputStream@1@@Z 0000000180007e80 f   CmSerialize.obj
 0001:00006f00       ??6PxRenderOutput@physx@@QEAAAEAV01@AEBV?$PxTransformT@M@1@@Z 0000000180007f00 f i CmVisualization.obj
 0001:00007080       ??6PxRenderOutput@physx@@QEAAAEAV01@AEBV?$PxVec3T@M@1@@Z 0000000180008080 f i CmVisualization.obj
 0001:00007370       ?renderOutputDebugArrow@Cm@physx@@YAXAEAVPxRenderOutput@2@AEBUPxDebugArrow@2@@Z 0000000180008370 f   CmVisualization.obj
 0001:00007710       ?renderOutputDebugBasis@Cm@physx@@YAXAEAVPxRenderOutput@2@AEBUPxDebugBasis@2@@Z 0000000180008710 f   CmVisualization.obj
 0001:00007ca0       ?renderOutputDebugBox@Cm@physx@@YAXAEAVPxRenderOutput@2@AEBVPxBounds3@2@@Z 0000000180008ca0 f   CmVisualization.obj
 0001:00007f10       ?renderOutputDebugCircle@Cm@physx@@YAXAEAVPxRenderOutput@2@IM@Z 0000000180008f10 f   CmVisualization.obj
 0001:00007ff0       ?visualizeAngularLimit@Cm@physx@@YAXAEAVPxRenderOutput@2@MAEBV?$PxTransformT@M@2@MM@Z 0000000180008ff0 f   CmVisualization.obj
 0001:00008180       ?visualizeDoubleCone@Cm@physx@@YAXAEAVPxRenderOutput@2@MAEBV?$PxTransformT@M@2@M@Z 0000000180009180 f   CmVisualization.obj
 0001:000083a0       ?visualizeJointFrames@Cm@physx@@YAXAEAVPxRenderOutput@2@MAEBV?$PxTransformT@M@2@1@Z 00000001800093a0 f   CmVisualization.obj
 0001:00008ea0       ?visualizeLimitCone@Cm@physx@@YAXAEAVPxRenderOutput@2@MAEBV?$PxTransformT@M@2@MM@Z 0000000180009ea0 f   CmVisualization.obj
 0001:000090d0       ?visualizeLinearLimit@Cm@physx@@YAXAEAVPxRenderOutput@2@MAEBV?$PxTransformT@M@2@1M@Z 000000018000a0d0 f   CmVisualization.obj
 0001:000096c0       ??0CmModuleUpdateLoader@Cm@physx@@QEAA@PEBD@Z 000000018000a6c0 f   CmWindowsModuleUpdateLoader.obj
 0001:00009700       ??1CmModuleUpdateLoader@Cm@physx@@QEAA@XZ 000000018000a700 f   CmWindowsModuleUpdateLoader.obj
 0001:00009730       ?LoadModule@CmModuleUpdateLoader@Cm@physx@@QEAAPEAUHINSTANCE__@@PEBD0@Z 000000018000a730 f   CmWindowsModuleUpdateLoader.obj
 0001:000097a0       __local_stdio_printf_options 000000018000a7a0 f i CmWindowsModuleUpdateLoader.obj
 0001:000097b0       printf                     000000018000a7b0 f i CmWindowsModuleUpdateLoader.obj
 0001:00009810       ?commonDelayHook@@YAP6A_JXZIPEAUDelayLoadInfo@@@Z 000000018000a810 f   CmWindowsDelayLoadHook.obj
 0001:000098f0       PxSetPhysXCommonDelayLoadHook 000000018000a8f0 f   CmWindowsDelayLoadHook.obj
 0001:00009900       ??0?$PxQuatT@M@physx@@QEAA@AEBV?$PxMat33T@M@1@@Z 000000018000a900 f i GuBox.obj
 0001:00009b00       ??0Box@Gu@physx@@QEAA@AEBV012@@Z 000000018000ab00 f i GuBox.obj
 0001:00009b00       ??4Box@Gu@physx@@QEAAAEBV012@AEBV012@@Z 000000018000ab00 f i GuBox.obj
 0001:00009b60       ??0Box@Gu@physx@@QEAA@AEBV?$PxVec3T@M@2@0AEBV?$PxMat33T@M@2@@Z 000000018000ab60 f i GuBox.obj
 0001:00009bd0       ??$forward@_K@std@@YA$$QEA_KAEA_K@Z 000000018000abd0 f i libvcruntime:undname.obj
 0001:00009bd0       ??0AABBTreeBuildNode@Gu@physx@@QEAA@XZ 000000018000abd0 f i GuMeshFactory.obj
 0001:00009bd0       ??0BigConvexData@physx@@QEAA@W4PxEMPTY@1@@Z 000000018000abd0 f i GuMetaData.obj
 0001:00009bd0       ??0Box@Gu@physx@@QEAA@XZ   000000018000abd0 f i GuBox.obj
 0001:00009bd0       ??0HeightFieldData@Gu@physx@@QEAA@W4PxEMPTY@2@@Z 000000018000abd0 f i GuCCTSweepTests.obj
 0001:00009bd0       ?getAABB@AABBTreeBuildNode@Gu@physx@@QEBAAEBVPxBounds3@3@XZ 000000018000abd0 f i GuMeshFactory.obj
 0001:00009bd0       ?getPaddedBounds@HeightFieldData@Gu@physx@@QEBAAEBVCenterExtentsPadded@23@XZ 000000018000abd0 f i GuCCTSweepTests.obj
 0001:00009be0       ?computeAABBExtent@Box@Gu@physx@@QEBA?AV?$PxVec3T@M@3@XZ 000000018000abe0 f i GuBox.obj
 0001:00009ca0       ?computeBoxPoints@Box@Gu@physx@@QEBAXPEIAV?$PxVec3T@M@3@@Z 000000018000aca0 f i GuBox.obj
 0001:00009ce0       ?computeOBBPoints@Gu@physx@@YAXPEIAV?$PxVec3T@M@2@AEBV32@1111@Z 000000018000ace0 f   GuBox.obj
 0001:00009f60       ?create@Box@Gu@physx@@QEAAXAEBVCapsule@23@@Z 000000018000af60 f   GuBox.obj
 0001:0000a190       ?getBoxEdges@Gu@physx@@YAPEBEXZ 000000018000b190 f   GuBox.obj
 0001:0000a1a0       ?getTransform@Box@Gu@physx@@QEBA?AV?$PxTransformT@M@3@XZ 000000018000b1a0 f i GuBox.obj
 0001:0000a200       ?isValid@Box@Gu@physx@@QEBA_NXZ 000000018000b200 f i GuBox.obj
 0001:0000a220       ?rotate@Box@Gu@physx@@QEBA?AV?$PxVec3T@M@3@AEBV43@@Z 000000018000b220 f i GuBox.obj
 0001:0000a2b0       ?rotateInv@Box@Gu@physx@@QEBA?AV?$PxVec3T@M@3@AEBV43@@Z 000000018000b2b0 f i GuBox.obj
 0001:0000a340       ?setAxes@Box@Gu@physx@@QEAAXAEBV?$PxVec3T@M@3@00@Z 000000018000b340 f i GuBox.obj
 0001:0000a380       ?setEmpty@Box@Gu@physx@@QEAAXXZ 000000018000b380 f i GuBox.obj
 0001:0000a3c0       ?transform@Box@Gu@physx@@QEBA?AV?$PxVec3T@M@3@AEBV43@@Z 000000018000b3c0 f i GuBox.obj
 0001:0000a460       ?PxComputeBasisVectors@physx@@YAXAEBV?$PxVec3T@M@1@0AEAV21@11@Z 000000018000b460 f i GuCapsule.obj
 0001:0000a600       ?computeBoxAroundCapsule@Gu@physx@@YAXAEBVCapsule@12@AEAVBox@12@@Z 000000018000b600 f   GuCapsule.obj
 0001:0000a750       ??0HeightFieldData@Gu@physx@@QEAA@$$QEAU012@@Z 000000018000b750 f i GuCCTSweepTests.obj
 0001:0000a750       ??0HeightFieldData@Gu@physx@@QEAA@AEBU012@@Z 000000018000b750 f i GuCCTSweepTests.obj
 0001:0000a750       ??4HeightFieldData@Gu@physx@@QEAAAEAU012@$$QEAU012@@Z 000000018000b750 f i GuCCTSweepTests.obj
 0001:0000a750       ??4HeightFieldData@Gu@physx@@QEAAAEAU012@AEBU012@@Z 000000018000b750 f i GuCCTSweepTests.obj
 0001:0000a7b0       ??0HeightFieldData@Gu@physx@@QEAA@XZ 000000018000b7b0 f i GuCCTSweepTests.obj
 0001:0000a7c0       ??0HeightFieldTraceUtil@Gu@physx@@QEAA@AEBVPxHeightFieldGeometry@2@@Z 000000018000b7c0 f i GuCCTSweepTests.obj
 0001:0000a7c0       ??0HeightFieldUtil@Gu@physx@@QEAA@AEBVPxHeightFieldGeometry@2@@Z 000000018000b7c0 f i GuCCTSweepTests.obj
 0001:0000a800       ??4AABBTreeBuildParams@Gu@physx@@QEAAAEAV012@AEBV012@@Z 000000018000b800 f i GuMeshFactory.obj
 0001:0000a800       ??4HeightFieldTraceUtil@Gu@physx@@QEAAAEAV012@$$QEAV012@@Z 000000018000b800 f i GuCCTSweepTests.obj
 0001:0000a800       ??4HeightFieldTraceUtil@Gu@physx@@QEAAAEAV012@AEBV012@@Z 000000018000b800 f i GuCCTSweepTests.obj
 0001:0000a800       ??4HeightFieldUtil@Gu@physx@@QEAAAEAV012@AEBV012@@Z 000000018000b800 f i GuCCTSweepTests.obj
 0001:0000a820       ??4HeightFieldUtil@Gu@physx@@QEAAAEAV012@$$QEAV012@@Z 000000018000b820 f i GuCCTSweepTests.obj
 0001:0000a880       ??_EEntityReport@Gu@physx@@UEAAPEAXI@Z 000000018000b880 f i GuSweepsHF.obj
 0001:0000a880       ??_EOverlapCallback@PxBVH@physx@@UEAAPEAXI@Z 000000018000b880 f i GuQuerySystem.obj
 0001:0000a880       ??_EOverlapReport@Gu@physx@@UEAAPEAXI@Z 000000018000b880 f i GuCCTSweepTests.obj
 0001:0000a880       ??_ERaycastCallback@PxBVH@physx@@UEAAPEAXI@Z 000000018000b880 f i GuQuerySystem.obj
 0001:0000a880       ??_ERemapCallback@RTreeCooker@physx@@UEAAPEAXI@Z 000000018000b880 f i GuCookingTriangleMesh.obj
 0001:0000a880       ??_GEntityReport@Gu@physx@@UEAAPEAXI@Z 000000018000b880 f i GuSweepsHF.obj
 0001:0000a880       ??_GOverlapCallback@PxBVH@physx@@UEAAPEAXI@Z 000000018000b880 f i GuQuerySystem.obj
 0001:0000a880       ??_GOverlapReport@Gu@physx@@UEAAPEAXI@Z 000000018000b880 f i GuCCTSweepTests.obj
 0001:0000a880       ??_GRaycastCallback@PxBVH@physx@@UEAAPEAXI@Z 000000018000b880 f i GuQuerySystem.obj
 0001:0000a880       ??_GRemapCallback@RTreeCooker@physx@@UEAAPEAXI@Z 000000018000b880 f i GuCookingTriangleMesh.obj
 0001:0000a8b0       ??_H@YAXPEAX_K1P6APEAX0@Z@Z 000000018000b8b0 f i GuCCTSweepTests.obj
 0001:0000a900       ?ceilUp@HeightFieldTraceUtil@Gu@physx@@SAMM@Z 000000018000b900 f i GuCCTSweepTests.obj
 0001:0000a940       ?floorDown@HeightFieldTraceUtil@Gu@physx@@SAMM@Z 000000018000b940 f i GuCCTSweepTests.obj
 0001:0000a980       ?getHeightAtShapePoint@HeightFieldUtil@Gu@physx@@QEBAMMM@Z 000000018000b980 f i GuCCTSweepTests.obj
 0001:0000a9e0       ?getHeightInternal2@HeightField@Gu@physx@@QEBAMIMM@Z 000000018000b9e0 f i GuCCTSweepTests.obj
 0001:0000ab50       ?getNormalAtShapePoint@HeightFieldUtil@Gu@physx@@QEBA?AV?$PxVec3T@M@3@MM@Z 000000018000bb50 f i GuCCTSweepTests.obj
 0001:0000ac10       ?getNormal_2@HeightField@Gu@physx@@QEBA?AV?$PxVec3T@M@3@IMMMMM@Z 000000018000bc10 f i GuCCTSweepTests.obj
 0001:0000ad30       ?getOneOverColumnScale@HeightFieldUtil@Gu@physx@@QEBAMXZ 000000018000bd30 f i GuCCTSweepTests.obj
 0001:0000ad40       ?getOneOverHeightScale@HeightFieldUtil@Gu@physx@@QEBAMXZ 000000018000bd40 f i GuCCTSweepTests.obj
 0001:0000ad50       ?getOneOverRowScale@HeightFieldUtil@Gu@physx@@QEBAMXZ 000000018000bd50 f i GuCCTSweepTests.obj
 0001:0000ad60       ?hf2shapen@HeightFieldUtil@Gu@physx@@QEBA?AV?$PxVec3T@M@3@AEBV43@@Z 000000018000bd60 f i GuCCTSweepTests.obj
 0001:0000ad60       ?shape2hfp@HeightFieldUtil@Gu@physx@@QEBA?AV?$PxVec3T@M@3@AEBV43@@Z 000000018000bd60 f i GuCCTSweepTests.obj
 0001:0000ada0       ?hf2shapep@HeightFieldUtil@Gu@physx@@QEBA?AV?$PxVec3T@M@3@AEBV43@@Z 000000018000bda0 f i GuCCTSweepTests.obj
 0001:0000ade0       ?hf2worldn@HeightFieldUtil@Gu@physx@@QEBA?AV?$PxVec3T@M@3@AEBV?$PxTransformT@M@3@AEBV43@@Z 000000018000bde0 f i GuCCTSweepTests.obj
 0001:0000af50       ?hf2worldp@HeightFieldUtil@Gu@physx@@QEBA?AV?$PxVec3T@M@3@AEBV?$PxTransformT@M@3@AEBV43@@Z 000000018000bf50 f i GuCCTSweepTests.obj
 0001:0000b0d0       ?overlapAABBTriangles0to1@HeightFieldUtil@Gu@physx@@QEBAXAEBV?$PxTransformT@M@3@AEBVPxBounds3@3@AEAVOverlapReport@23@I@Z 000000018000c0d0 f i GuCCTSweepTests.obj
 0001:0000b470       ?overlapAABBTriangles@HeightFieldUtil@Gu@physx@@QEBAXAEBV?$PxTransformT@M@3@0AEBVPxBounds3@3@AEAVOverlapReport@23@I@Z 000000018000c470 f i GuCCTSweepTests.obj
 0001:0000ba90       ?overlapAABBTriangles@HeightFieldUtil@Gu@physx@@QEBAXAEBV?$PxTransformT@M@3@AEBVPxBounds3@3@AEAVOverlapReport@23@I@Z 000000018000ca90 f i GuCCTSweepTests.obj
 0001:0000c170       ?sweepBoxTriangles_Precise@Gu@physx@@YA_NIPEBVPxTriangle@2@_NAEBVPxBoxGeometry@2@AEBV?$PxTransformT@M@2@AEBV?$PxVec3T@M@2@MAEAUPxGeomSweepHit@2@PEBIMV?$PxFlags@W4Enum@PxHitFlag@physx@@G@2@@Z 000000018000d170 f   GuCCTSweepTests.obj
 0001:0000cef0       ?sweepBox_BoxGeom_Precise@@YA_NAEBVPxGeometry@physx@@AEBV?$PxTransformT@M@2@AEBVPxBoxGeometry@2@1AEBVBox@Gu@2@AEBV?$PxVec3T@M@2@MAEAUPxGeomSweepHit@2@V?$PxFlags@W4Enum@PxHitFlag@physx@@G@2@MPEAUPxQueryThreadContext@2@@Z 000000018000def0 f   GuCCTSweepTests.obj
 0001:0000d0b0       ?sweepBox_CapsuleGeom_Precise@@YA_NAEBVPxGeometry@physx@@AEBV?$PxTransformT@M@2@AEBVPxBoxGeometry@2@1AEBVBox@Gu@2@AEBV?$PxVec3T@M@2@MAEAUPxGeomSweepHit@2@V?$PxFlags@W4Enum@PxHitFlag@physx@@G@2@MPEAUPxQueryThreadContext@2@@Z 000000018000e0b0 f   GuCCTSweepTests.obj
 0001:0000d480       ?sweepBox_HeightFieldGeom_Precise@@YA_NAEBVPxGeometry@physx@@AEBV?$PxTransformT@M@2@AEBVPxBoxGeometry@2@1AEBVBox@Gu@2@AEBV?$PxVec3T@M@2@MAEAUPxGeomSweepHit@2@V?$PxFlags@W4Enum@PxHitFlag@physx@@G@2@MPEAUPxQueryThreadContext@2@@Z 000000018000e480 f   GuCCTSweepTests.obj
 0001:0000dca0       ?sweepBox_SphereGeom_Precise@@YA_NAEBVPxGeometry@physx@@AEBV?$PxTransformT@M@2@AEBVPxBoxGeometry@2@1AEBVBox@Gu@2@AEBV?$PxVec3T@M@2@MAEAUPxGeomSweepHit@2@V?$PxFlags@W4Enum@PxHitFlag@physx@@G@2@MPEAUPxQueryThreadContext@2@@Z 000000018000eca0 f   GuCCTSweepTests.obj
 0001:0000df80       ?sweepCapsule_BoxGeom_Precise@@YA_NAEBVPxGeometry@physx@@AEBV?$PxTransformT@M@2@AEBVPxCapsuleGeometry@2@1AEBVCapsule@Gu@2@AEBV?$PxVec3T@M@2@MAEAUPxGeomSweepHit@2@V?$PxFlags@W4Enum@PxHitFlag@physx@@G@2@MPEAUPxQueryThreadContext@2@@Z 000000018000ef80 f   GuCCTSweepTests.obj
 0001:0000e5e0       ??0?$CacheMap@UCachedEdge@Gu@physx@@$0IA@@Gu@physx@@QEAA@XZ 000000018000f5e0 f i GuGeometryQuery.obj
 0001:0000e6a0       ??0?$CacheMap@UCachedVertex@Gu@physx@@$0IA@@Gu@physx@@QEAA@XZ 000000018000f6a0 f i GuGeometryQuery.obj
 0001:0000e760       ??0MultiplePersistentContactManifold@Gu@physx@@QEAA@XZ 000000018000f760 f i GuGeometryQuery.obj
 0001:0000e7b0       ??0PCMMeshContactGeneration@Gu@physx@@QEAA@AEBT__m128@@0AEBVPxTransformV@aos@2@1AEAVMultiplePersistentContactManifold@12@AEAVPxContactBuffer@2@PEAV?$PxInlineArray@I$0DMA@V?$PxReflectionAllocator@I@physx@@@2@PEAVPxRenderOutput@2@@Z 000000018000f7b0 f i GuGeometryQuery.obj
 0001:0000f0e0       ??0PolygonalBox@Gu@physx@@QEAA@AEBV012@@Z 00000001800100e0 f i GuGeometryQuery.obj
 0001:0000f360       ??4MultiplePersistentContactManifold@Gu@physx@@QEAAAEAV012@$$QEAV012@@Z 0000000180010360 f i GuGeometryQuery.obj
 0001:0000f670       ??4MultiplePersistentContactManifold@Gu@physx@@QEAAAEAV012@AEBV012@@Z 0000000180010670 f i GuGeometryQuery.obj
 0001:0000f690       ??_E?$SupportLocalImpl@VBoxV@Gu@physx@@@Gu@physx@@UEAAPEAXI@Z 0000000180010690 f i GuGeometryQuery.obj
 0001:0000f690       ??_E?$SupportLocalImpl@VConvexHullNoScaleV@Gu@physx@@@Gu@physx@@UEAAPEAXI@Z 0000000180010690 f i GuMTD.obj
 0001:0000f690       ??_E?$SupportLocalImpl@VConvexHullV@Gu@physx@@@Gu@physx@@UEAAPEAXI@Z 0000000180010690 f i GuGeometryQuery.obj
 0001:0000f690       ??_E?$SupportLocalImpl@VTriangleV@Gu@physx@@@Gu@physx@@UEAAPEAXI@Z 0000000180010690 f i GuPCMContactConvexCommon.obj
 0001:0000f690       ??_G?$SupportLocalImpl@VBoxV@Gu@physx@@@Gu@physx@@UEAAPEAXI@Z 0000000180010690 f i GuGeometryQuery.obj
 0001:0000f690       ??_G?$SupportLocalImpl@VConvexHullNoScaleV@Gu@physx@@@Gu@physx@@UEAAPEAXI@Z 0000000180010690 f i GuMTD.obj
 0001:0000f690       ??_G?$SupportLocalImpl@VConvexHullV@Gu@physx@@@Gu@physx@@UEAAPEAXI@Z 0000000180010690 f i GuGeometryQuery.obj
 0001:0000f690       ??_G?$SupportLocalImpl@VTriangleV@Gu@physx@@@Gu@physx@@UEAAPEAXI@Z 0000000180010690 f i GuPCMContactConvexCommon.obj
 0001:0000f6c0       ??_ESupportLocal@Gu@physx@@UEAAPEAXI@Z 00000001800106c0 f i GuGeometryQuery.obj
 0001:0000f6c0       ??_GSupportLocal@Gu@physx@@UEAAPEAXI@Z 00000001800106c0 f i GuGeometryQuery.obj
 0001:0000f6f0       ?clearManifold@MultiplePersistentContactManifold@Gu@physx@@QEAAXXZ 00000001800106f0 f i GuGeometryQuery.obj
 0001:0000f750       ?computeGeomBounds@PxGeometryQuery@physx@@SAXAEAVPxBounds3@2@AEBVPxGeometry@2@AEBV?$PxTransformT@M@2@MMV?$PxFlags@W4Enum@PxGeometryQueryFlag@physx@@I@2@@Z 0000000180010750 f   GuGeometryQuery.obj
 0001:0000f7d0       ?computePenetration@PxGeometryQuery@physx@@SA_NAEAV?$PxVec3T@M@2@AEAMAEBVPxGeometry@2@AEBV?$PxTransformT@M@2@23V?$PxFlags@W4Enum@PxGeometryQueryFlag@physx@@I@2@@Z 00000001800107d0 f   GuGeometryQuery.obj
 0001:0000f950       ?doSupport@?$SupportLocalImpl@VBoxV@Gu@physx@@@Gu@physx@@UEBA?AT__m128@@AEBT4@@Z 0000000180010950 f i GuGeometryQuery.obj
 0001:0000f980       ?doSupport@?$SupportLocalImpl@VBoxV@Gu@physx@@@Gu@physx@@UEBAXAEBT__m128@@AEAT4@1@Z 0000000180010980 f i GuGeometryQuery.obj
 0001:0000f9d0       ?doSupport@?$SupportLocalImpl@VConvexHullV@Gu@physx@@@Gu@physx@@UEBA?AT__m128@@AEBT4@@Z 00000001800109d0 f i GuGeometryQuery.obj
 0001:0000fab0       ?doSupport@?$SupportLocalImpl@VConvexHullV@Gu@physx@@@Gu@physx@@UEBAXAEBT__m128@@AEAT4@1@Z 0000000180010ab0 f i GuGeometryQuery.obj
 0001:0000fe10       ?generateTriangleContacts@PxGeometryQuery@physx@@SA_NAEBVPxGeometry@2@AEBV?$PxTransformT@M@2@QEBV?$PxVec3T@M@2@IMMMAEAVPxContactBuffer@2@@Z 0000000180010e10 f   GuGeometryQuery.obj
 0001:000117a0       ?getEmptyManifold@MultiplePersistentContactManifold@Gu@physx@@QEAAPEAVSinglePersistentContactManifold@23@XZ 00000001800127a0 f i GuGeometryQuery.obj
 0001:000117c0       ?getManifold@MultiplePersistentContactManifold@Gu@physx@@QEAAPEAVSinglePersistentContactManifold@23@I@Z 00000001800127c0 f i GuGeometryQuery.obj
 0001:000117c0       ?getManifold@MultiplePersistentContactManifold@Gu@physx@@QEBAPEBVSinglePersistentContactManifold@23@I@Z 00000001800127c0 f i GuGeometryQuery.obj
 0001:000117e0       ?getUniqueID@PxCustomGeometry@physx@@SAIXZ 00000001800127e0 f   GuGeometryQuery.obj
 0001:00011800       ?hillClimbing@ConvexHullV@Gu@physx@@QEBAIAEBT__m128@@@Z 0000000180012800 f i GuGeometryQuery.obj
 0001:00011a30       ?initialize@MultiplePersistentContactManifold@Gu@physx@@QEAAXXZ 0000000180012a30 f i GuGeometryQuery.obj
 0001:00011a90       ?invalidate@MultiplePersistentContactManifold@Gu@physx@@QEBAIAEBVPxTransformV@aos@3@AEBT__m128@@1@Z 0000000180012a90 f i GuGeometryQuery.obj
 0001:00011b00       ?invalidate@MultiplePersistentContactManifold@Gu@physx@@QEBAIAEBVPxTransformV@aos@3@AEBT__m128@@@Z 0000000180012b00 f i GuGeometryQuery.obj
 0001:00011b70       ?isUnit@?$PxQuatT@M@physx@@QEBA_NXZ 0000000180012b70 f i GuGeometryQuery.obj
 0001:00011c30       ?isValid@PxGeometryQuery@physx@@SA_NAEBVPxGeometry@2@@Z 0000000180012c30 f   GuGeometryQuery.obj
 0001:00011f20       ?maxTransformPositionDelta@MultiplePersistentContactManifold@Gu@physx@@QEBA?AT__m128@@AEBT4@@Z 0000000180012f20 f i GuGeometryQuery.obj
 0001:00011f60       ?maxTransformQuatDelta@MultiplePersistentContactManifold@Gu@physx@@QEBA?AT__m128@@AEBT4@@Z 0000000180012f60 f i GuGeometryQuery.obj
 0001:00011fa0       ?overlap@PxGeometryQuery@physx@@SA_NAEBVPxGeometry@2@AEBV?$PxTransformT@M@2@01V?$PxFlags@W4Enum@PxGeometryQueryFlag@physx@@I@2@PEAUPxQueryThreadContext@2@@Z 0000000180012fa0 f   GuGeometryQuery.obj
 0001:00012070       ?pointDistance@PxGeometryQuery@physx@@SAMAEBV?$PxVec3T@M@2@AEBVPxGeometry@2@AEBV?$PxTransformT@M@2@PEAV32@PEAIV?$PxFlags@W4Enum@PxGeometryQueryFlag@physx@@I@2@@Z 0000000180013070 f   GuGeometryQuery.obj
 0001:00012800       ?populateVerts@?$SupportLocalImpl@VBoxV@Gu@physx@@@Gu@physx@@UEBAXPEBEIPEBV?$PxVec3T@M@3@PEAT__m128@@@Z 0000000180013800 f i GuGeometryQuery.obj
 0001:00012840       ?populateVerts@?$SupportLocalImpl@VConvexHullV@Gu@physx@@@Gu@physx@@UEBAXPEBEIPEBV?$PxVec3T@M@3@PEAT__m128@@@Z 0000000180013840 f i GuGeometryQuery.obj
 0001:000128a0       ?raycast@PxGeometryQuery@physx@@SAIAEBV?$PxVec3T@M@2@0AEBVPxGeometry@2@AEBV?$PxTransformT@M@2@MV?$PxFlags@W4Enum@PxHitFlag@physx@@G@2@IPEIAUPxGeomRaycastHit@2@IV?$PxFlags@W4Enum@PxGeometryQueryFlag@physx@@I@2@PEAUPxQueryThreadContext@2@@Z 00000001800138a0 f   GuGeometryQuery.obj
 0001:000129a0       ?reduceManifoldContactsInDifferentPatches@MultiplePersistentContactManifold@Gu@physx@@QEBAIPEAPEAUPCMContactPatch@23@IPEAVMeshPersistentContact@23@IAEBT__m128@@@Z 00000001800139a0 f i GuGeometryQuery.obj
 0001:00012b10       ?refineContactPatchConnective@MultiplePersistentContactManifold@Gu@physx@@QEBAXPEAPEAUPCMContactPatch@23@IPEAVMeshPersistentContact@23@AEBT__m128@@@Z 0000000180013b10 f i GuGeometryQuery.obj
 0001:00012c00       ?refreshManifold@MultiplePersistentContactManifold@Gu@physx@@QEAAXAEBVPxMatTransformV@aos@3@AEBT__m128@@1@Z 0000000180013c00 f i GuGeometryQuery.obj
 0001:00012d00       ?setRelativeTransform@MultiplePersistentContactManifold@Gu@physx@@QEAAXAEBVPxTransformV@aos@3@@Z 0000000180013d00 f i GuGeometryQuery.obj
 0001:00012d10       ?supportVertexIndex@ConvexHullV@Gu@physx@@QEBAIAEBT__m128@@@Z 0000000180013d10 f i GuGeometryQuery.obj
 0001:00012f90       ?sweep@PxGeometryQuery@physx@@SA_NAEBV?$PxVec3T@M@2@MAEBVPxGeometry@2@AEBV?$PxTransformT@M@2@12AEAUPxGeomSweepHit@2@V?$PxFlags@W4Enum@PxHitFlag@physx@@G@2@MV?$PxFlags@W4Enum@PxGeometryQueryFlag@physx@@I@2@PEAUPxQueryThreadContext@2@@Z 0000000180013f90 f   GuGeometryQuery.obj
 0001:00013420       ?computeBoxPoints@Gu@physx@@YAXAEBVPxBounds3@2@PEIAV?$PxVec3T@M@2@@Z 0000000180014420 f   GuInternal.obj
 0001:000134c0       ?computeSweptBox@Gu@physx@@YAXAEAVBox@12@AEBV?$PxVec3T@M@2@1AEBV?$PxMat33T@M@2@1M@Z 00000001800144c0 f   GuInternal.obj
 0001:00013a00       ?getPlane@Gu@physx@@YA?AVPxPlane@2@AEBV?$PxTransformT@M@2@@Z 0000000180014a00 f   GuInternal.obj
 0001:00013e50       ??_ECallbackRaycast@RTree@Gu@physx@@UEAAPEAXI@Z 0000000180014e50 f i GuMidphaseRTree.obj
 0001:00013e50       ??_ECallbackRefit@RTree@Gu@physx@@UEAAPEAXI@Z 0000000180014e50 f i GuTriangleMeshRTree.obj
 0001:00013e50       ??_EPxInsertionCallback@physx@@MEAAPEAXI@Z 0000000180014e50 f i GuMeshFactory.obj
 0001:00013e50       ??_GCallbackRaycast@RTree@Gu@physx@@UEAAPEAXI@Z 0000000180014e50 f i GuMidphaseRTree.obj
 0001:00013e50       ??_GCallbackRefit@RTree@Gu@physx@@UEAAPEAXI@Z 0000000180014e50 f i GuTriangleMeshRTree.obj
 0001:00013e50       ??_GPxInsertionCallback@physx@@MEAAPEAXI@Z 0000000180014e50 f i GuMeshFactory.obj
 0001:00013e80       ??$copy@V?$PxReflectionAllocator@USlab@NodeAllocator@Gu@physx@@@physx@@@?$PxArray@USlab@NodeAllocator@Gu@physx@@V?$PxReflectionAllocator@USlab@NodeAllocator@Gu@physx@@@4@@physx@@IEAAXAEBV01@@Z 0000000180014e80 f i GuMeshFactory.obj
 0001:00013f40       ??0AABBTreeBounds@Gu@physx@@QEAA@XZ 0000000180014f40 f i GuMeshFactory.obj
 0001:00013f50       ??0AABBTreeBuildNode@Gu@physx@@QEAA@AEBV012@@Z 0000000180014f50 f i GuMeshFactory.obj
 0001:00013f50       ??4AABBTreeBuildNode@Gu@physx@@QEAAAEAV012@AEBV012@@Z 0000000180014f50 f i GuMeshFactory.obj
 0001:00013f90       ??0AABBTreeBuildParams@Gu@physx@@QEAA@IIPEBVAABBTreeBounds@12@W4BVHBuildStrategy@12@@Z 0000000180014f90 f i GuMeshFactory.obj
 0001:00013fb0       ??0MeshFactory@Gu@physx@@QEAA@XZ 0000000180014fb0 f   GuMeshFactory.obj
 0001:000141b0       ??0NodeAllocator@Gu@physx@@QEAA@AEBV012@@Z 00000001800151b0 f i GuMeshFactory.obj
 0001:000141f0       ??0TriangleMeshData@Gu@physx@@QEAA@XZ 00000001800151f0 f i GuMeshFactory.obj
 0001:00014300       ??1AABBTreeBounds@Gu@physx@@QEAA@XZ 0000000180015300 f i GuMeshFactory.obj
 0001:00014310       ??1AABBTreeBuildParams@Gu@physx@@QEAA@XZ 0000000180015310 f i GuMeshFactory.obj
 0001:00014310       ?reset@AABBTreeBuildParams@Gu@physx@@QEAAXXZ 0000000180015310 f i GuMeshFactory.obj
 0001:00014360       ??1CollisionMeshMappingData@Gu@physx@@UEAA@XZ 0000000180015360 f i GuMeshFactory.obj
 0001:000144b0       ??1MeshDataBase@Gu@physx@@UEAA@XZ 00000001800154b0 f i GuMeshFactory.obj
 0001:000145f0       ??1MeshFactory@Gu@physx@@MEAA@XZ 00000001800155f0 f   GuMeshFactory.obj
 0001:00014730       ??1RTreeTriangleData@Gu@physx@@UEAA@XZ 0000000180015730 f i GuMeshFactory.obj
 0001:000147a0       ??1SoftBodyCollisionData@Gu@physx@@UEAA@XZ 00000001800157a0 f i GuMeshFactory.obj
 0001:000148e0       ??1SoftBodySimulationData@Gu@physx@@UEAA@XZ 00000001800158e0 f i GuMeshFactory.obj
 0001:00014a00       ??1TetrahedronMeshData@Gu@physx@@QEAA@XZ 0000000180015a00 f i GuMeshFactory.obj
 0001:00014a90       ??1TriangleMeshData@Gu@physx@@UEAA@XZ 0000000180015a90 f i GuMeshFactory.obj
 0001:00014bc0       ??4NodeAllocator@Gu@physx@@QEAAAEAV012@AEBV012@@Z 0000000180015bc0 f i GuMeshFactory.obj
 0001:00014c70       ??_EMeshFactory@Gu@physx@@MEAAPEAXI@Z 0000000180015c70 f i GuMeshFactory.obj
 0001:00014d90       ??_FAABBTreeBuildParams@Gu@physx@@QEAAXXZ 0000000180015d90 f i GuMeshFactory.obj
 0001:00014db0       ??_EBV4TriangleData@Gu@physx@@UEAAPEAXI@Z 0000000180015db0 f i GuMeshFactory.obj
 0001:00014db0       ??_GBV4TriangleData@Gu@physx@@UEAAPEAXI@Z 0000000180015db0 f i GuMeshFactory.obj
 0001:00014e40       ??_ECollisionMeshMappingData@Gu@physx@@UEAAPEAXI@Z 0000000180015e40 f i GuMeshFactory.obj
 0001:00014e40       ??_GCollisionMeshMappingData@Gu@physx@@UEAAPEAXI@Z 0000000180015e40 f i GuMeshFactory.obj
 0001:00014eb0       ??_EMeshDataBase@Gu@physx@@UEAAPEAXI@Z 0000000180015eb0 f i GuMeshFactory.obj
 0001:00014eb0       ??_GMeshDataBase@Gu@physx@@UEAAPEAXI@Z 0000000180015eb0 f i GuMeshFactory.obj
 0001:00014f20       ??_EPxCollisionMeshMappingData@physx@@UEAAPEAXI@Z 0000000180015f20 f i GuMeshFactory.obj
 0001:00014f20       ??_GPxCollisionMeshMappingData@physx@@UEAAPEAXI@Z 0000000180015f20 f i GuMeshFactory.obj
 0001:00014f70       ??_ERTreeTriangleData@Gu@physx@@UEAAPEAXI@Z 0000000180015f70 f i GuMeshFactory.obj
 0001:00014f70       ??_GRTreeTriangleData@Gu@physx@@UEAAPEAXI@Z 0000000180015f70 f i GuMeshFactory.obj
 0001:00015020       ??_ESoftBodyCollisionData@Gu@physx@@UEAAPEAXI@Z 0000000180016020 f i GuMeshFactory.obj
 0001:00015020       ??_GSoftBodyCollisionData@Gu@physx@@UEAAPEAXI@Z 0000000180016020 f i GuMeshFactory.obj
 0001:00015090       ??_ESoftBodySimulationData@Gu@physx@@UEAAPEAXI@Z 0000000180016090 f i GuMeshFactory.obj
 0001:00015090       ??_GSoftBodySimulationData@Gu@physx@@UEAAPEAXI@Z 0000000180016090 f i GuMeshFactory.obj
 0001:00015100       ??_ETriangleMeshData@Gu@physx@@UEAAPEAXI@Z 0000000180016100 f i GuMeshFactory.obj
 0001:00015100       ??_GTriangleMeshData@Gu@physx@@UEAAPEAXI@Z 0000000180016100 f i GuMeshFactory.obj
 0001:00015170       ??_V@YAXPEAX_K@Z           0000000180016170 f i LIBCMT:delete_array_size.obj
 0001:00015170       ?__global_delete@@YAXPEAX_K@Z 0000000180016170 f i GuMeshFactory.obj
 0001:00015180       ?addBVH@MeshFactory@Gu@physx@@QEAAXPEAVBVH@23@_N@Z 0000000180016180 f   GuMeshFactory.obj
 0001:00015220       ?addConvexMesh@MeshFactory@Gu@physx@@QEAAXPEAVConvexMesh@23@_N@Z 0000000180016220 f   GuMeshFactory.obj
 0001:000152c0       ?addFactoryListener@MeshFactory@Gu@physx@@QEAAXAEAVMeshFactoryListener@23@@Z 00000001800162c0 f   GuMeshFactory.obj
 0001:00015330       ?addHeightField@MeshFactory@Gu@physx@@QEAAXPEAVHeightField@23@_N@Z 0000000180016330 f   GuMeshFactory.obj
 0001:000153d0       ?addSoftBodyMesh@MeshFactory@Gu@physx@@QEAAXPEAVSoftBodyMesh@23@_N@Z 00000001800163d0 f   GuMeshFactory.obj
 0001:00015470       ?addTetrahedronMesh@MeshFactory@Gu@physx@@QEAAXPEAVTetrahedronMesh@23@_N@Z 0000000180016470 f   GuMeshFactory.obj
 0001:00015510       ?addTriangleMesh@MeshFactory@Gu@physx@@QEAAXPEAVTriangleMesh@23@_N@Z 0000000180016510 f   GuMeshFactory.obj
 0001:000155b0       ?allocate@?$PxArray@USlab@NodeAllocator@Gu@physx@@V?$PxReflectionAllocator@USlab@NodeAllocator@Gu@physx@@@4@@physx@@IEAAPEAUSlab@NodeAllocator@Gu@2@I@Z 00000001800165b0 f i GuMeshFactory.obj
 0001:00015640       ?allocateAdjacencies@TriangleMeshData@Gu@physx@@QEAAPEAIXZ 0000000180016640 f i GuMeshFactory.obj
 0001:000156b0       ?allocateExtraTrigData@TriangleMeshData@Gu@physx@@QEAAPEAEXZ 00000001800166b0 f i GuMeshFactory.obj
 0001:00015720       ?allocateFaceRemap@TriangleMeshData@Gu@physx@@QEAAPEAIXZ 0000000180016720 f i GuMeshFactory.obj
 0001:00015790       ?allocateGridModelData@SoftBodySimulationData@Gu@physx@@QEAAXIIIIIII@Z 0000000180016790 f i GuMeshFactory.obj
 0001:00015a10       ?allocateMaterials@TetrahedronMeshData@Gu@physx@@QEAAPEAGXZ 0000000180016a10 f i GuMeshFactory.obj
 0001:00015a80       ?allocateMaterials@TriangleMeshData@Gu@physx@@QEAAPEAGXZ 0000000180016a80 f i GuMeshFactory.obj
 0001:00015af0       ?allocateTetrahedrons@TetrahedronMeshData@Gu@physx@@QEAAXII@Z 0000000180016af0 f i GuMeshFactory.obj
 0001:00015b80       ?allocateTriangles@TriangleMeshData@Gu@physx@@QEAAPEAXI_NI@Z 0000000180016b80 f i GuMeshFactory.obj
 0001:00015c70       ?allocateVertices@MeshDataBase@Gu@physx@@QEAAPEAV?$PxVec3T@M@3@I@Z 0000000180016c70 f i GuMeshFactory.obj
 0001:00015ce0       ?allocateVertices@TetrahedronMeshData@Gu@physx@@QEAAPEAV?$PxVec3T@M@3@II@Z 0000000180016ce0 f i GuMeshFactory.obj
 0001:00015d80       ?allocatemappingData@CollisionMeshMappingData@Gu@physx@@QEAAXIIII@Z 0000000180016d80 f i GuMeshFactory.obj
 0001:00015f60       ?create@?$PxHashBase@PEAVBVH@Gu@physx@@PEAV123@U?$PxHash@PEAVBVH@Gu@physx@@@3@UGetKey@?$PxHashSetBase@PEAVBVH@Gu@physx@@U?$PxHash@PEAVBVH@Gu@physx@@@3@VPxAllocator@3@$00@3@VPxAllocator@3@$00@physx@@QEAAPEAPEAVBVH@Gu@2@AEBQEAV342@AEA_N@Z 0000000180016f60 f i GuMeshFactory.obj
 0001:00015f60       ?create@?$PxHashBase@PEAVConvexMesh@Gu@physx@@PEAV123@U?$PxHash@PEAVConvexMesh@Gu@physx@@@3@UGetKey@?$PxHashSetBase@PEAVConvexMesh@Gu@physx@@U?$PxHash@PEAVConvexMesh@Gu@physx@@@3@VPxAllocator@3@$00@3@VPxAllocator@3@$00@physx@@QEAAPEAPEAVConvexMesh@Gu@2@AEBQEAV342@AEA_N@Z 0000000180016f60 f i GuMeshFactory.obj
 0001:00015f60       ?create@?$PxHashBase@PEAVHeightField@Gu@physx@@PEAV123@U?$PxHash@PEAVHeightField@Gu@physx@@@3@UGetKey@?$PxHashSetBase@PEAVHeightField@Gu@physx@@U?$PxHash@PEAVHeightField@Gu@physx@@@3@VPxAllocator@3@$00@3@VPxAllocator@3@$00@physx@@QEAAPEAPEAVHeightField@Gu@2@AEBQEAV342@AEA_N@Z 0000000180016f60 f i GuMeshFactory.obj
 0001:00015f60       ?create@?$PxHashBase@PEAVSoftBodyMesh@Gu@physx@@PEAV123@U?$PxHash@PEAVSoftBodyMesh@Gu@physx@@@3@UGetKey@?$PxHashSetBase@PEAVSoftBodyMesh@Gu@physx@@U?$PxHash@PEAVSoftBodyMesh@Gu@physx@@@3@VPxAllocator@3@$00@3@VPxAllocator@3@$00@physx@@QEAAPEAPEAVSoftBodyMesh@Gu@2@AEBQEAV342@AEA_N@Z 0000000180016f60 f i GuMeshFactory.obj
 0001:00015f60       ?create@?$PxHashBase@PEAVTetrahedronMesh@Gu@physx@@PEAV123@U?$PxHash@PEAVTetrahedronMesh@Gu@physx@@@3@UGetKey@?$PxHashSetBase@PEAVTetrahedronMesh@Gu@physx@@U?$PxHash@PEAVTetrahedronMesh@Gu@physx@@@3@VPxAllocator@3@$00@3@VPxAllocator@3@$00@physx@@QEAAPEAPEAVTetrahedronMesh@Gu@2@AEBQEAV342@AEA_N@Z 0000000180016f60 f i GuMeshFactory.obj
 0001:00015f60       ?create@?$PxHashBase@PEAVTriangleMesh@Gu@physx@@PEAV123@U?$PxHash@PEAVTriangleMesh@Gu@physx@@@3@UGetKey@?$PxHashSetBase@PEAVTriangleMesh@Gu@physx@@U?$PxHash@PEAVTriangleMesh@Gu@physx@@@3@VPxAllocator@3@$00@3@VPxAllocator@3@$00@physx@@QEAAPEAPEAVTriangleMesh@Gu@2@AEBQEAV342@AEA_N@Z 0000000180016f60 f i GuMeshFactory.obj
 0001:000160f0       ?createBVH@MeshFactory@Gu@physx@@IEAAPEAVPxBVH@3@AEAVBVHData@23@@Z 00000001800170f0 f   GuMeshFactory.obj
 0001:00016220       ?createBVH@MeshFactory@Gu@physx@@QEAAPEAVPxBVH@3@AEAVPxInputStream@3@@Z 0000000180017220 f   GuMeshFactory.obj
 0001:00016370       ?createBVH@MeshFactory@Gu@physx@@QEAAPEAVPxBVH@3@PEAX@Z 0000000180017370 f   GuMeshFactory.obj
 0001:00016380       ?createConvexMesh@MeshFactory@Gu@physx@@IEAAPEAVPxConvexMesh@3@AEAUConvexHullInitData@23@@Z 0000000180017380 f   GuMeshFactory.obj
 0001:000164b0       ?createConvexMesh@MeshFactory@Gu@physx@@QEAAPEAVPxConvexMesh@3@AEAVPxInputStream@3@@Z 00000001800174b0 f   GuMeshFactory.obj
 0001:00016600       ?createConvexMesh@MeshFactory@Gu@physx@@QEAAPEAVPxConvexMesh@3@PEAX@Z 0000000180017600 f   GuMeshFactory.obj
 0001:00016610       ?createHeightField@MeshFactory@Gu@physx@@QEAAPEAVPxHeightField@3@AEAVPxInputStream@3@@Z 0000000180017610 f   GuMeshFactory.obj
 0001:00016760       ?createHeightField@MeshFactory@Gu@physx@@QEAAPEAVPxHeightField@3@PEAX@Z 0000000180017760 f   GuMeshFactory.obj
 0001:00016890       ?createSoftBodyMesh@MeshFactory@Gu@physx@@IEAAPEAVPxSoftBodyMesh@3@AEAVSoftBodyMeshData@23@@Z 0000000180017890 f   GuMeshFactory.obj
 0001:000169c0       ?createSoftBodyMesh@MeshFactory@Gu@physx@@QEAAPEAVPxSoftBodyMesh@3@AEAVPxInputStream@3@@Z 00000001800179c0 f   GuMeshFactory.obj
 0001:00016fc0       ?createSoftBodyMesh@MeshFactory@Gu@physx@@QEAAPEAVPxSoftBodyMesh@3@PEAX@Z 0000000180017fc0 f   GuMeshFactory.obj
 0001:00016fd0       ?createTetrahedronMesh@MeshFactory@Gu@physx@@IEAAPEAVPxTetrahedronMesh@3@AEAVTetrahedronMeshData@23@@Z 0000000180017fd0 f   GuMeshFactory.obj
 0001:00017100       ?createTetrahedronMesh@MeshFactory@Gu@physx@@QEAAPEAVPxTetrahedronMesh@3@AEAVPxInputStream@3@@Z 0000000180018100 f   GuMeshFactory.obj
 0001:00017170       ?createTetrahedronMesh@MeshFactory@Gu@physx@@QEAAPEAVPxTetrahedronMesh@3@PEAX@Z 0000000180018170 f   GuMeshFactory.obj
 0001:00017180       ?createTriangleMesh@MeshFactory@Gu@physx@@IEAAPEAVPxTriangleMesh@3@AEAVTriangleMeshData@23@@Z 0000000180018180 f   GuMeshFactory.obj
 0001:00017330       ?createTriangleMesh@MeshFactory@Gu@physx@@QEAAPEAVPxTriangleMesh@3@AEAVPxInputStream@3@@Z 0000000180018330 f   GuMeshFactory.obj
 0001:00017390       ?createTriangleMesh@MeshFactory@Gu@physx@@QEAAPEAVPxTriangleMesh@3@PEAX@Z 0000000180018390 f   GuMeshFactory.obj
 0001:000173a0       ?erase@?$PxHashBase@PEAVBVH@Gu@physx@@PEAV123@U?$PxHash@PEAVBVH@Gu@physx@@@3@UGetKey@?$PxHashSetBase@PEAVBVH@Gu@physx@@U?$PxHash@PEAVBVH@Gu@physx@@@3@VPxAllocator@3@$00@3@VPxAllocator@3@$00@physx@@QEAA_NAEBQEAVBVH@Gu@2@@Z 00000001800183a0 f i GuMeshFactory.obj
 0001:000173a0       ?erase@?$PxHashBase@PEAVConvexMesh@Gu@physx@@PEAV123@U?$PxHash@PEAVConvexMesh@Gu@physx@@@3@UGetKey@?$PxHashSetBase@PEAVConvexMesh@Gu@physx@@U?$PxHash@PEAVConvexMesh@Gu@physx@@@3@VPxAllocator@3@$00@3@VPxAllocator@3@$00@physx@@QEAA_NAEBQEAVConvexMesh@Gu@2@@Z 00000001800183a0 f i GuMeshFactory.obj
 0001:000173a0       ?erase@?$PxHashBase@PEAVHeightField@Gu@physx@@PEAV123@U?$PxHash@PEAVHeightField@Gu@physx@@@3@UGetKey@?$PxHashSetBase@PEAVHeightField@Gu@physx@@U?$PxHash@PEAVHeightField@Gu@physx@@@3@VPxAllocator@3@$00@3@VPxAllocator@3@$00@physx@@QEAA_NAEBQEAVHeightField@Gu@2@@Z 00000001800183a0 f i GuMeshFactory.obj
 0001:000173a0       ?erase@?$PxHashBase@PEAVSoftBodyMesh@Gu@physx@@PEAV123@U?$PxHash@PEAVSoftBodyMesh@Gu@physx@@@3@UGetKey@?$PxHashSetBase@PEAVSoftBodyMesh@Gu@physx@@U?$PxHash@PEAVSoftBodyMesh@Gu@physx@@@3@VPxAllocator@3@$00@3@VPxAllocator@3@$00@physx@@QEAA_NAEBQEAVSoftBodyMesh@Gu@2@@Z 00000001800183a0 f i GuMeshFactory.obj
 0001:000173a0       ?erase@?$PxHashBase@PEAVTetrahedronMesh@Gu@physx@@PEAV123@U?$PxHash@PEAVTetrahedronMesh@Gu@physx@@@3@UGetKey@?$PxHashSetBase@PEAVTetrahedronMesh@Gu@physx@@U?$PxHash@PEAVTetrahedronMesh@Gu@physx@@@3@VPxAllocator@3@$00@3@VPxAllocator@3@$00@physx@@QEAA_NAEBQEAVTetrahedronMesh@Gu@2@@Z 00000001800183a0 f i GuMeshFactory.obj
 0001:000173a0       ?erase@?$PxHashBase@PEAVTriangleMesh@Gu@physx@@PEAV123@U?$PxHash@PEAVTriangleMesh@Gu@physx@@@3@UGetKey@?$PxHashSetBase@PEAVTriangleMesh@Gu@physx@@U?$PxHash@PEAVTriangleMesh@Gu@physx@@@3@VPxAllocator@3@$00@3@VPxAllocator@3@$00@physx@@QEAA_NAEBQEAVTriangleMesh@Gu@2@@Z 00000001800183a0 f i GuMeshFactory.obj
 0001:00017520       ?getBVHs@MeshFactory@Gu@physx@@QEBAIPEAPEAVPxBVH@3@II@Z 0000000180018520 f   GuMeshFactory.obj
 0001:000175c0       ?getBounds@AABBTreeBounds@Gu@physx@@QEAAPEAVPxBounds3@3@XZ 00000001800185c0 f i GuMeshFactory.obj
 0001:000175c0       ?getBounds@AABBTreeBounds@Gu@physx@@QEBAPEBVPxBounds3@3@XZ 00000001800185c0 f i GuMeshFactory.obj
 0001:000175d0       ?getConvexMeshes@MeshFactory@Gu@physx@@QEBAIPEAPEAVPxConvexMesh@3@II@Z 00000001800185d0 f   GuMeshFactory.obj
 0001:00017670       ?getHeightFields@MeshFactory@Gu@physx@@QEBAIPEAPEAVPxHeightField@3@II@Z 0000000180018670 f   GuMeshFactory.obj
 0001:00017710       ?getNbBVHs@MeshFactory@Gu@physx@@QEBAIXZ 0000000180018710 f   GuMeshFactory.obj
 0001:00017750       ?getNbConvexMeshes@MeshFactory@Gu@physx@@QEBAIXZ 0000000180018750 f   GuMeshFactory.obj
 0001:00017790       ?getNbHeightFields@MeshFactory@Gu@physx@@QEBAIXZ 0000000180018790 f   GuMeshFactory.obj
 0001:000177d0       ?getNbPrimitives@AABBTreeBuildNode@Gu@physx@@QEBAIXZ 00000001800187d0 f i GuMeshFactory.obj
 0001:000177d0       ?getNbRuntimePrimitives@AABBTreeBuildNode@Gu@physx@@QEBAIXZ 00000001800187d0 f i GuMeshFactory.obj
 0001:000177e0       ?getNbSoftBodyMeshes@MeshFactory@Gu@physx@@QEBAIXZ 00000001800187e0 f   GuMeshFactory.obj
 0001:00017820       ?getNbTetrahedronMeshes@MeshFactory@Gu@physx@@QEBAIXZ 0000000180018820 f   GuMeshFactory.obj
 0001:00017860       ?getNbTriangleMeshes@MeshFactory@Gu@physx@@QEBAIXZ 0000000180018860 f   GuMeshFactory.obj
 0001:000178a0       ?getNeg@AABBTreeBuildNode@Gu@physx@@QEBAPEBV123@XZ 00000001800188a0 f i GuMeshFactory.obj
 0001:000178c0       ?getPrimitives@AABBTreeBuildNode@Gu@physx@@QEAAPEAIPEAI@Z 00000001800188c0 f i GuMeshFactory.obj
 0001:000178c0       ?getPrimitives@AABBTreeBuildNode@Gu@physx@@QEBAPEBIPEBI@Z 00000001800188c0 f i GuMeshFactory.obj
 0001:000178d0       ?getSoftBodyMeshes@MeshFactory@Gu@physx@@QEBAIPEAPEAVPxSoftBodyMesh@3@II@Z 00000001800188d0 f   GuMeshFactory.obj
 0001:00017970       ?getTetrahedronMeshes@MeshFactory@Gu@physx@@QEBAIPEAPEAVPxTetrahedronMesh@3@II@Z 0000000180018970 f   GuMeshFactory.obj
 0001:00017a00       ?getTriangleMeshes@MeshFactory@Gu@physx@@QEBAIPEAPEAVPxTriangleMesh@3@II@Z 0000000180018a00 f   GuMeshFactory.obj
 0001:00017a90       ?growAndPushBack@?$PxArray@PEAVMeshFactoryListener@Gu@physx@@V?$PxReflectionAllocator@PEAVMeshFactoryListener@Gu@physx@@@3@@physx@@IEAAAEAPEAVMeshFactoryListener@Gu@2@AEBQEAV342@@Z 0000000180018a90 f i GuMeshFactory.obj
 0001:00017bb0       ?isLeaf@AABBTreeBuildNode@Gu@physx@@QEBA_NXZ 0000000180018bb0 f i GuMeshFactory.obj
 0001:000195d0       ?moveFrom@AABBTreeBounds@Gu@physx@@QEAAXAEAV123@@Z 000000018001a5d0 f i GuMeshFactory.obj
 0001:000195e0       ?notifyFactoryListener@MeshFactory@Gu@physx@@QEAAXPEBVPxBase@3@G@Z 000000018001a5e0 f   GuMeshFactory.obj
 0001:00019650       ?notifyListenersAdd@MeshFactory@Gu@physx@@IEAAXPEBVPxBase@3@@Z 000000018001a650 f   GuMeshFactory.obj
 0001:000196a0       ?notifyListenersRemove@MeshFactory@Gu@physx@@IEAAXPEBVPxBase@3@@Z 000000018001a6a0 f   GuMeshFactory.obj
 0001:000196f0       ?ownsMemory@AABBTreeBounds@Gu@physx@@QEBA_NXZ 000000018001a6f0 f i GuMeshFactory.obj
 0001:000199d0       ?recreate@?$PxArray@USlab@NodeAllocator@Gu@physx@@V?$PxReflectionAllocator@USlab@NodeAllocator@Gu@physx@@@4@@physx@@IEAAXI@Z 000000018001a9d0 f i GuMeshFactory.obj
 0001:00019a80       ?release@CollisionMeshMappingData@Gu@physx@@UEAAXXZ 000000018001aa80 f i GuMeshFactory.obj
 0001:00019aa0       ?release@MeshFactory@Gu@physx@@QEAAXXZ 000000018001aaa0 f   GuMeshFactory.obj
 0001:00019ba0       ?remove@MeshFactory@Gu@physx@@QEAA_NAEAVPxBase@3@@Z 000000018001aba0 f   GuMeshFactory.obj
 0001:00019bf0       ?removeBVH@MeshFactory@Gu@physx@@QEAA_NAEAVPxBVH@3@@Z 000000018001abf0 f   GuMeshFactory.obj
 0001:00019c80       ?removeConvexMesh@MeshFactory@Gu@physx@@QEAA_NAEAVPxConvexMesh@3@@Z 000000018001ac80 f   GuMeshFactory.obj
 0001:00019d10       ?removeFactoryListener@MeshFactory@Gu@physx@@QEAAXAEAVMeshFactoryListener@23@@Z 000000018001ad10 f   GuMeshFactory.obj
 0001:00019da0       ?removeHeightField@MeshFactory@Gu@physx@@QEAA_NAEAVPxHeightField@3@@Z 000000018001ada0 f   GuMeshFactory.obj
 0001:00019e30       ?removeSoftBodyMesh@MeshFactory@Gu@physx@@QEAA_NAEAVPxSoftBodyMesh@3@@Z 000000018001ae30 f   GuMeshFactory.obj
 0001:00019ec0       ?removeTetrahedronMesh@MeshFactory@Gu@physx@@QEAA_NAEAVPxTetrahedronMesh@3@@Z 000000018001aec0 f   GuMeshFactory.obj
 0001:00019f50       ?removeTriangleMesh@MeshFactory@Gu@physx@@QEAA_NAEAVPxTriangleMesh@3@@Z 000000018001af50 f   GuMeshFactory.obj
 0001:00019fe0       ?reserveInternal@?$PxHashBase@PEAVBVH@Gu@physx@@PEAV123@U?$PxHash@PEAVBVH@Gu@physx@@@3@UGetKey@?$PxHashSetBase@PEAVBVH@Gu@physx@@U?$PxHash@PEAVBVH@Gu@physx@@@3@VPxAllocator@3@$00@3@VPxAllocator@3@$00@physx@@AEAAXI@Z 000000018001afe0 f i GuMeshFactory.obj
 0001:00019fe0       ?reserveInternal@?$PxHashBase@PEAVConvexMesh@Gu@physx@@PEAV123@U?$PxHash@PEAVConvexMesh@Gu@physx@@@3@UGetKey@?$PxHashSetBase@PEAVConvexMesh@Gu@physx@@U?$PxHash@PEAVConvexMesh@Gu@physx@@@3@VPxAllocator@3@$00@3@VPxAllocator@3@$00@physx@@AEAAXI@Z 000000018001afe0 f i GuMeshFactory.obj
 0001:00019fe0       ?reserveInternal@?$PxHashBase@PEAVHeightField@Gu@physx@@PEAV123@U?$PxHash@PEAVHeightField@Gu@physx@@@3@UGetKey@?$PxHashSetBase@PEAVHeightField@Gu@physx@@U?$PxHash@PEAVHeightField@Gu@physx@@@3@VPxAllocator@3@$00@3@VPxAllocator@3@$00@physx@@AEAAXI@Z 000000018001afe0 f i GuMeshFactory.obj
 0001:00019fe0       ?reserveInternal@?$PxHashBase@PEAVSoftBodyMesh@Gu@physx@@PEAV123@U?$PxHash@PEAVSoftBodyMesh@Gu@physx@@@3@UGetKey@?$PxHashSetBase@PEAVSoftBodyMesh@Gu@physx@@U?$PxHash@PEAVSoftBodyMesh@Gu@physx@@@3@VPxAllocator@3@$00@3@VPxAllocator@3@$00@physx@@AEAAXI@Z 000000018001afe0 f i GuMeshFactory.obj
 0001:00019fe0       ?reserveInternal@?$PxHashBase@PEAVTetrahedronMesh@Gu@physx@@PEAV123@U?$PxHash@PEAVTetrahedronMesh@Gu@physx@@@3@UGetKey@?$PxHashSetBase@PEAVTetrahedronMesh@Gu@physx@@U?$PxHash@PEAVTetrahedronMesh@Gu@physx@@@3@VPxAllocator@3@$00@3@VPxAllocator@3@$00@physx@@AEAAXI@Z 000000018001afe0 f i GuMeshFactory.obj
 0001:00019fe0       ?reserveInternal@?$PxHashBase@PEAVTriangleMesh@Gu@physx@@PEAV123@U?$PxHash@PEAVTriangleMesh@Gu@physx@@@3@UGetKey@?$PxHashSetBase@PEAVTriangleMesh@Gu@physx@@U?$PxHash@PEAVTriangleMesh@Gu@physx@@@3@VPxAllocator@3@$00@3@VPxAllocator@3@$00@physx@@AEAAXI@Z 000000018001afe0 f i GuMeshFactory.obj
 0001:0001a1b0       ?setBounds@AABBTreeBounds@Gu@physx@@QEAAXPEAVPxBounds3@3@@Z 000000018001b1b0 f i GuMeshFactory.obj
 0001:0001a1c0       ?setNbRunTimePrimitives@AABBTreeBuildNode@Gu@physx@@QEAAXI@Z 000000018001b1c0 f i GuMeshFactory.obj
 0001:0001a1d0       ?takeOwnership@AABBTreeBounds@Gu@physx@@QEAAXXZ 000000018001b1d0 f i GuMeshFactory.obj
 0001:0001a1e0       getInsertionCallback       000000018001b1e0 f   GuMeshFactory.obj
 0001:0001a1f0       ??4BigConvexData@physx@@QEAAAEAV01@AEBV01@@Z 000000018001b1f0 f i GuMetaData.obj
 0001:0001a210       ?GetAdjacentVerts@BigConvexData@physx@@QEBAPEBEXZ 000000018001b210 f i GuMetaData.obj
 0001:0001a210       ?getSoftBodyAuxData@SoftBodyMesh@Gu@physx@@UEAAPEAVPxSoftBodyAuxData@3@XZ 000000018001b210 f i GuTetrahedronMesh.obj
 0001:0001a210       ?getSoftBodyAuxData@SoftBodyMesh@Gu@physx@@UEBAPEBVPxSoftBodyAuxData@3@XZ 000000018001b210 f i GuTetrahedronMesh.obj
 0001:0001a210       ?getTransforms@PruningPool@Gu@physx@@QEAAPEAV?$PxTransformT@M@3@XZ 000000018001b210 f i GuIncrementalAABBPrunerCore.obj
 0001:0001a210       ?getTransforms@PruningPool@Gu@physx@@QEBAPEBV?$PxTransformT@M@3@XZ 000000018001b210 f i GuIncrementalAABBPrunerCore.obj
 0001:0001a210       ?getTriangles@TriangleMesh@Gu@physx@@UEBAPEBXXZ 000000018001b210 f i GuTriangleMesh.obj
 0001:0001a220       ?GetNbNeighbors@BigConvexData@physx@@QEBAGI@Z 000000018001b220 f i GuMetaData.obj
 0001:0001a220       ?GetValency@BigConvexData@physx@@QEBAGI@Z 000000018001b220 f i GuMetaData.obj
 0001:0001a230       ?GetNbSamples@BigConvexData@physx@@QEBAIXZ 000000018001b230 f i GuMetaData.obj
 0001:0001a240       ?GetNbVerts@BigConvexData@physx@@QEBAIXZ 000000018001b240 f i GuMetaData.obj
 0001:0001a240       ?getNbVertices@TetrahedronMesh@Gu@physx@@UEBAIXZ 000000018001b240 f i GuTetrahedronMesh.obj
 0001:0001a240       ?getNbVertices@TriangleMesh@Gu@physx@@UEBAIXZ 000000018001b240 f i GuTriangleMesh.obj
 0001:0001a240       ?length@pcharNode@@UEBAHXZ 000000018001b240 f i libvcruntime:undname.obj
 0001:0001a240       ?raw_length@pcharNode@@UEBAHXZ 000000018001b240 f i libvcruntime:undname.obj
 0001:0001a250       ?GetNeighbors@BigConvexData@physx@@QEBAPEBEI@Z 000000018001b250 f i GuMetaData.obj
 0001:0001a260       ?GetOffset@BigConvexData@physx@@QEBAGI@Z 000000018001b260 f i GuMetaData.obj
 0001:0001a270       ?GetSubdiv@BigConvexData@physx@@QEBAIXZ 000000018001b270 f i GuMetaData.obj
 0001:0001a280       ?getBinaryMetaData@BV4Tree@Gu@physx@@SAXAEAVPxOutputStream@3@@Z 000000018001b280 f   GuMetaData.obj
 0001:0001a820       ?getBinaryMetaData@BV4TriangleMesh@Gu@physx@@SAXAEAVPxOutputStream@3@@Z 000000018001b820 f   GuMetaData.obj
 0001:0001aba0       ?getBinaryMetaData@BigConvexData@physx@@SAXAEAVPxOutputStream@2@@Z 000000018001bba0 f   GuMetaData.obj
 0001:0001ae60       ?getBinaryMetaData@ConvexMesh@Gu@physx@@SAXAEAVPxOutputStream@3@@Z 000000018001be60 f   GuMetaData.obj
 0001:0001b4f0       ?getBinaryMetaData@HeightField@Gu@physx@@SAXAEAVPxOutputStream@3@@Z 000000018001c4f0 f   GuMetaData.obj
 0001:0001b8e0       ?getBinaryMetaData@RTree@Gu@physx@@SAXAEAVPxOutputStream@3@@Z 000000018001c8e0 f   GuMetaData.obj
 0001:0001bc10       ?getBinaryMetaData@RTreeTriangleMesh@Gu@physx@@SAXAEAVPxOutputStream@3@@Z 000000018001cc10 f   GuMetaData.obj
 0001:0001bcf0       ?getBinaryMetaData@TriangleMesh@Gu@physx@@SAXAEAVPxOutputStream@3@@Z 000000018001ccf0 f   GuMetaData.obj
 0001:0001d830       ?doSupport@?$SupportLocalImpl@VConvexHullNoScaleV@Gu@physx@@@Gu@physx@@UEBA?AT__m128@@AEBT4@@Z 000000018001e830 f i GuMTD.obj
 0001:0001d880       ?doSupport@?$SupportLocalImpl@VConvexHullNoScaleV@Gu@physx@@@Gu@physx@@UEBAXAEBT__m128@@AEAT4@1@Z 000000018001e880 f i GuMTD.obj
 0001:0001da00       ?populateVerts@?$SupportLocalImpl@VConvexHullNoScaleV@Gu@physx@@@Gu@physx@@UEBAXPEBEIPEBV?$PxVec3T@M@3@PEAT__m128@@@Z 000000018001ea00 f i GuMTD.obj
 0001:0001da40       ?getInternalData@TriangleMesh@Gu@physx@@UEBA_NAEAUPxTriangleMeshInternalData@3@_N@Z 000000018001ea40 f   GuTriangleMesh.obj
 0001:0001da40       ?isDynamic@Pruner@Gu@physx@@UEBA_NXZ 000000018001ea40 f   GuIncrementalAABBPruner.obj
 0001:0001f880       ??$gjk@U?$LocalConvex@VCapsuleV@Gu@physx@@@Gu@physx@@U?$LocalConvex@VConvexHullV@Gu@physx@@@23@@Gu@physx@@YA?AW4GjkStatus@01@AEBU?$LocalConvex@VCapsuleV@Gu@physx@@@01@AEBU?$LocalConvex@VConvexHullV@Gu@physx@@@01@AEBT__m128@@2AEAT5@333@Z 0000000180020880 f i GuMTD.obj
 0001:000205e0       ??0SeparatingAxes@Gu@physx@@QEAA@$$QEAV012@@Z 00000001800215e0 f i GuMTD.obj
 0001:000205e0       ??0SeparatingAxes@Gu@physx@@QEAA@AEBV012@@Z 00000001800215e0 f i GuMTD.obj
 0001:000206f0       ??0SeparatingAxes@Gu@physx@@QEAA@XZ 00000001800216f0 f i GuMTD.obj
 0001:00020700       ??4SeparatingAxes@Gu@physx@@QEAAAEAV012@$$QEAV012@@Z 0000000180021700 f i GuMTD.obj
 0001:00020700       ??4SeparatingAxes@Gu@physx@@QEAAAEAV012@AEBV012@@Z 0000000180021700 f i GuMTD.obj
 0001:00020810       ??_E?$LocalConvex@UCustomConvexV@@@Gu@physx@@UEAAPEAXI@Z 0000000180021810 f i GuGjkQuery.obj
 0001:00020810       ??_E?$LocalConvex@UPointConvexV@@@Gu@physx@@UEAAPEAXI@Z 0000000180021810 f i GuGjkQuery.obj
 0001:00020810       ??_E?$LocalConvex@VBoxV@Gu@physx@@@Gu@physx@@UEAAPEAXI@Z 0000000180021810 f i GuSweepTests.obj
 0001:00020810       ??_E?$LocalConvex@VCapsuleV@Gu@physx@@@Gu@physx@@UEAAPEAXI@Z 0000000180021810 f i GuMTD.obj
 0001:00020810       ??_E?$LocalConvex@VConvexHullNoScaleV@Gu@physx@@@Gu@physx@@UEAAPEAXI@Z 0000000180021810 f i GuPCMContactBoxConvex.obj
 0001:00020810       ??_E?$LocalConvex@VConvexHullV@Gu@physx@@@Gu@physx@@UEAAPEAXI@Z 0000000180021810 f i GuMTD.obj
 0001:00020810       ??_E?$LocalConvex@VTetrahedronV@Gu@physx@@@Gu@physx@@UEAAPEAXI@Z 0000000180021810 f i GuCookingTetrahedronMesh.obj
 0001:00020810       ??_E?$LocalConvex@VTriangleV@Gu@physx@@@Gu@physx@@UEAAPEAXI@Z 0000000180021810 f i GuSweepTests.obj
 0001:00020810       ??_EGjkConvex@Gu@physx@@UEAAPEAXI@Z 0000000180021810 f i GuMTD.obj
 0001:00020810       ??_G?$LocalConvex@UCustomConvexV@@@Gu@physx@@UEAAPEAXI@Z 0000000180021810 f i GuGjkQuery.obj
 0001:00020810       ??_G?$LocalConvex@UPointConvexV@@@Gu@physx@@UEAAPEAXI@Z 0000000180021810 f i GuGjkQuery.obj
 0001:00020810       ??_G?$LocalConvex@VBoxV@Gu@physx@@@Gu@physx@@UEAAPEAXI@Z 0000000180021810 f i GuSweepTests.obj
 0001:00020810       ??_G?$LocalConvex@VCapsuleV@Gu@physx@@@Gu@physx@@UEAAPEAXI@Z 0000000180021810 f i GuMTD.obj
 0001:00020810       ??_G?$LocalConvex@VConvexHullNoScaleV@Gu@physx@@@Gu@physx@@UEAAPEAXI@Z 0000000180021810 f i GuPCMContactBoxConvex.obj
 0001:00020810       ??_G?$LocalConvex@VConvexHullV@Gu@physx@@@Gu@physx@@UEAAPEAXI@Z 0000000180021810 f i GuMTD.obj
 0001:00020810       ??_G?$LocalConvex@VTetrahedronV@Gu@physx@@@Gu@physx@@UEAAPEAXI@Z 0000000180021810 f i GuCookingTetrahedronMesh.obj
 0001:00020810       ??_G?$LocalConvex@VTriangleV@Gu@physx@@@Gu@physx@@UEAAPEAXI@Z 0000000180021810 f i GuSweepTests.obj
 0001:00020810       ??_GGjkConvex@Gu@physx@@UEAAPEAXI@Z 0000000180021810 f i GuMTD.obj
 0001:00024990       ?getAxes@SeparatingAxes@Gu@physx@@QEBAPEBV?$PxVec3T@M@3@XZ 0000000180025990 f i GuMTD.obj
 0001:000249a0       ?getCenter@?$LocalConvex@UCustomConvexV@@@Gu@physx@@UEBA?AT__m128@@XZ 00000001800259a0 f i GuGjkQuery.obj
 0001:000249a0       ?getCenter@?$LocalConvex@UPointConvexV@@@Gu@physx@@UEBA?AT__m128@@XZ 00000001800259a0 f i GuGjkQuery.obj
 0001:000249a0       ?getCenter@?$LocalConvex@VBoxV@Gu@physx@@@Gu@physx@@UEBA?AT__m128@@XZ 00000001800259a0 f i GuSweepTests.obj
 0001:000249a0       ?getCenter@?$LocalConvex@VCapsuleV@Gu@physx@@@Gu@physx@@UEBA?AT__m128@@XZ 00000001800259a0 f i GuMTD.obj
 0001:000249a0       ?getCenter@?$LocalConvex@VConvexHullNoScaleV@Gu@physx@@@Gu@physx@@UEBA?AT__m128@@XZ 00000001800259a0 f i GuPCMContactBoxConvex.obj
 0001:000249a0       ?getCenter@?$LocalConvex@VConvexHullV@Gu@physx@@@Gu@physx@@UEBA?AT__m128@@XZ 00000001800259a0 f i GuMTD.obj
 0001:000249a0       ?getCenter@?$LocalConvex@VTetrahedronV@Gu@physx@@@Gu@physx@@UEBA?AT__m128@@XZ 00000001800259a0 f i GuCookingTetrahedronMesh.obj
 0001:000249a0       ?getCenter@?$LocalConvex@VTriangleV@Gu@physx@@@Gu@physx@@UEBA?AT__m128@@XZ 00000001800259a0 f i GuSweepTests.obj
 0001:000249b0       ?getCount@BuildStats@Gu@physx@@QEBAIXZ 00000001800259b0 f i GuBV4Build.obj
 0001:000249b0       ?getNbActiveObjects@PruningPool@Gu@physx@@QEBAIXZ 00000001800259b0 f i GuIncrementalAABBPrunerCore.obj
 0001:000249b0       ?getNumAxes@SeparatingAxes@Gu@physx@@QEBAIXZ 00000001800259b0 f i GuMTD.obj
 0001:000249c0       ?getSweepMargin@?$LocalConvex@VCapsuleV@Gu@physx@@@Gu@physx@@UEBA?AT__m128@@XZ 00000001800259c0 f i GuMTD.obj
 0001:000249c0       ?getSweepMargin@?$RelativeConvex@VCapsuleV@Gu@physx@@@Gu@physx@@UEBA?AT__m128@@XZ 00000001800259c0 f i GuCCDSweepPrimitives.obj
 0001:000249d0       ?getSweepMargin@?$LocalConvex@UCustomConvexV@@@Gu@physx@@UEBA?AT__m128@@XZ 00000001800259d0 f i GuGjkQuery.obj
 0001:000249d0       ?getSweepMargin@?$LocalConvex@UPointConvexV@@@Gu@physx@@UEBA?AT__m128@@XZ 00000001800259d0 f i GuGjkQuery.obj
 0001:000249d0       ?getSweepMargin@?$LocalConvex@VBoxV@Gu@physx@@@Gu@physx@@UEBA?AT__m128@@XZ 00000001800259d0 f i GuSweepTests.obj
 0001:000249d0       ?getSweepMargin@?$LocalConvex@VConvexHullNoScaleV@Gu@physx@@@Gu@physx@@UEBA?AT__m128@@XZ 00000001800259d0 f i GuPCMContactBoxConvex.obj
 0001:000249d0       ?getSweepMargin@?$LocalConvex@VConvexHullV@Gu@physx@@@Gu@physx@@UEBA?AT__m128@@XZ 00000001800259d0 f i GuMTD.obj
 0001:000249d0       ?getSweepMargin@?$RelativeConvex@UCustomConvexV@@@Gu@physx@@UEBA?AT__m128@@XZ 00000001800259d0 f i GuGjkQuery.obj
 0001:000249d0       ?getSweepMargin@?$RelativeConvex@VBoxV@Gu@physx@@@Gu@physx@@UEBA?AT__m128@@XZ 00000001800259d0 f i GuOverlapTests.obj
 0001:000249d0       ?getSweepMargin@?$RelativeConvex@VConvexHullNoScaleV@Gu@physx@@@Gu@physx@@UEBA?AT__m128@@XZ 00000001800259d0 f i GuPCMContactConvexConvex.obj
 0001:000249d0       ?getSweepMargin@?$RelativeConvex@VConvexHullV@Gu@physx@@@Gu@physx@@UEBA?AT__m128@@XZ 00000001800259d0 f i GuOverlapTests.obj
 0001:000249f0       ?getSweepMargin@GjkConvex@Gu@physx@@UEBA?AT__m128@@XZ 00000001800259f0 f i GuMTD.obj
 0001:00024a10       ?pointConvexDistance@@YA_NAEAV?$PxVec3T@M@physx@@0AEAMAEBV12@PEBVConvexMesh@Gu@2@AEBVPxMeshScale@2@AEBUPxTransformPadded@2@@Z 0000000180025a10 f   GuMTD.obj
 0001:00025770       ?reset@SeparatingAxes@Gu@physx@@QEAAXXZ 0000000180026770 f i GuMTD.obj
 0001:00025780       ?support@?$LocalConvex@VCapsuleV@Gu@physx@@@Gu@physx@@UEBA?AT__m128@@AEBT4@@Z 0000000180026780 f i GuMTD.obj
 0001:000257e0       ?support@?$LocalConvex@VCapsuleV@Gu@physx@@@Gu@physx@@UEBA?AT__m128@@AEBT4@AEAH@Z 00000001800267e0 f i GuMTD.obj
 0001:00025850       ?support@?$LocalConvex@VConvexHullV@Gu@physx@@@Gu@physx@@UEBA?AT__m128@@AEBT4@@Z 0000000180026850 f i GuMTD.obj
 0001:00025930       ?support@?$LocalConvex@VConvexHullV@Gu@physx@@@Gu@physx@@UEBA?AT__m128@@AEBT4@AEAH@Z 0000000180026930 f i GuMTD.obj
 0001:00025a00       ?support@GjkConvex@Gu@physx@@UEBA?AT__m128@@AEBT4@@Z 0000000180026a00 f i GuMTD.obj
 0001:00025a20       ?support@GjkConvex@Gu@physx@@UEBA?AT__m128@@AEBT4@AEAH@Z 0000000180026a20 f i GuMTD.obj
 0001:00025a40       ?supportPoint@?$LocalConvex@VCapsuleV@Gu@physx@@@Gu@physx@@UEBA?AT__m128@@H@Z 0000000180026a40 f i GuMTD.obj
 0001:00025a70       ?supportPoint@?$LocalConvex@VConvexHullV@Gu@physx@@@Gu@physx@@UEBA?AT__m128@@H@Z 0000000180026a70 f i GuMTD.obj
 0001:00025ac0       ?supportPoint@GjkConvex@Gu@physx@@UEBA?AT__m128@@H@Z 0000000180026ac0 f i GuMTD.obj
 0001:00025ae0       ?supportPoint@?$RelativeConvex@VBoxV@Gu@physx@@@Gu@physx@@UEBA?AT__m128@@H@Z 0000000180026ae0 f i GuOverlapTests.obj
 0001:00025b50       ?support@?$RelativeConvex@VBoxV@Gu@physx@@@Gu@physx@@UEBA?AT__m128@@AEBT4@@Z 0000000180026b50 f i GuOverlapTests.obj
 0001:00025bd0       ?support@?$RelativeConvex@VBoxV@Gu@physx@@@Gu@physx@@UEBA?AT__m128@@AEBT4@AEAH@Z 0000000180026bd0 f i GuOverlapTests.obj
 0001:00025c60       ?getCenter@?$RelativeConvex@UCustomConvexV@@@Gu@physx@@UEBA?AT__m128@@XZ 0000000180026c60 f i GuGjkQuery.obj
 0001:00025c60       ?getCenter@?$RelativeConvex@VBoxV@Gu@physx@@@Gu@physx@@UEBA?AT__m128@@XZ 0000000180026c60 f i GuOverlapTests.obj
 0001:00025c60       ?getCenter@?$RelativeConvex@VCapsuleV@Gu@physx@@@Gu@physx@@UEBA?AT__m128@@XZ 0000000180026c60 f i GuCCDSweepPrimitives.obj
 0001:00025c60       ?getCenter@?$RelativeConvex@VConvexHullNoScaleV@Gu@physx@@@Gu@physx@@UEBA?AT__m128@@XZ 0000000180026c60 f i GuPCMContactConvexConvex.obj
 0001:00025c60       ?getCenter@?$RelativeConvex@VConvexHullV@Gu@physx@@@Gu@physx@@UEBA?AT__m128@@XZ 0000000180026c60 f i GuOverlapTests.obj
 0001:00025c60       ?getCenter@?$RelativeConvex@VTriangleV@Gu@physx@@@Gu@physx@@UEBA?AT__m128@@XZ 0000000180026c60 f i GuCCDSweepPrimitives.obj
 0001:00025ca0       ??_E?$RelativeConvex@UCustomConvexV@@@Gu@physx@@UEAAPEAXI@Z 0000000180026ca0 f i GuGjkQuery.obj
 0001:00025ca0       ??_E?$RelativeConvex@VBoxV@Gu@physx@@@Gu@physx@@UEAAPEAXI@Z 0000000180026ca0 f i GuOverlapTests.obj
 0001:00025ca0       ??_E?$RelativeConvex@VCapsuleV@Gu@physx@@@Gu@physx@@UEAAPEAXI@Z 0000000180026ca0 f i GuCCDSweepPrimitives.obj
 0001:00025ca0       ??_E?$RelativeConvex@VConvexHullNoScaleV@Gu@physx@@@Gu@physx@@UEAAPEAXI@Z 0000000180026ca0 f i GuPCMContactConvexConvex.obj
 0001:00025ca0       ??_E?$RelativeConvex@VConvexHullV@Gu@physx@@@Gu@physx@@UEAAPEAXI@Z 0000000180026ca0 f i GuOverlapTests.obj
 0001:00025ca0       ??_E?$RelativeConvex@VTriangleV@Gu@physx@@@Gu@physx@@UEAAPEAXI@Z 0000000180026ca0 f i GuCCDSweepPrimitives.obj
 0001:00025ca0       ??_G?$RelativeConvex@UCustomConvexV@@@Gu@physx@@UEAAPEAXI@Z 0000000180026ca0 f i GuGjkQuery.obj
 0001:00025ca0       ??_G?$RelativeConvex@VBoxV@Gu@physx@@@Gu@physx@@UEAAPEAXI@Z 0000000180026ca0 f i GuOverlapTests.obj
 0001:00025ca0       ??_G?$RelativeConvex@VCapsuleV@Gu@physx@@@Gu@physx@@UEAAPEAXI@Z 0000000180026ca0 f i GuCCDSweepPrimitives.obj
 0001:00025ca0       ??_G?$RelativeConvex@VConvexHullNoScaleV@Gu@physx@@@Gu@physx@@UEAAPEAXI@Z 0000000180026ca0 f i GuPCMContactConvexConvex.obj
 0001:00025ca0       ??_G?$RelativeConvex@VConvexHullV@Gu@physx@@@Gu@physx@@UEAAPEAXI@Z 0000000180026ca0 f i GuOverlapTests.obj
 0001:00025ca0       ??_G?$RelativeConvex@VTriangleV@Gu@physx@@@Gu@physx@@UEAAPEAXI@Z 0000000180026ca0 f i GuCCDSweepPrimitives.obj
 0001:00027e20       ?supportPoint@?$RelativeConvex@VConvexHullV@Gu@physx@@@Gu@physx@@UEBA?AT__m128@@H@Z 0000000180028e20 f i GuOverlapTests.obj
 0001:00027ea0       ?support@?$RelativeConvex@VConvexHullV@Gu@physx@@@Gu@physx@@UEBA?AT__m128@@AEBT4@@Z 0000000180028ea0 f i GuOverlapTests.obj
 0001:00027fd0       ?support@?$RelativeConvex@VConvexHullV@Gu@physx@@@Gu@physx@@UEBA?AT__m128@@AEBT4@AEAH@Z 0000000180028fd0 f i GuOverlapTests.obj
 0001:00028160       ??$gjk@U?$RelativeConvex@VBoxV@Gu@physx@@@Gu@physx@@U?$LocalConvex@VConvexHullV@Gu@physx@@@23@@Gu@physx@@YA?AW4GjkStatus@01@AEBU?$RelativeConvex@VBoxV@Gu@physx@@@01@AEBU?$LocalConvex@VConvexHullV@Gu@physx@@@01@AEBT__m128@@2AEAT5@333@Z 0000000180029160 f i GuOverlapTests.obj
 0001:00028f10       ??$gjk@U?$RelativeConvex@VConvexHullV@Gu@physx@@@Gu@physx@@U?$LocalConvex@VConvexHullV@Gu@physx@@@23@@Gu@physx@@YA?AW4GjkStatus@01@AEBU?$RelativeConvex@VConvexHullV@Gu@physx@@@01@AEBU?$LocalConvex@VConvexHullV@Gu@physx@@@01@AEBT__m128@@2AEAT5@333@Z 0000000180029f10 f i GuOverlapTests.obj
 0001:00029d90       ?ComputeCubemapNearestOffset@physx@@YAIAEBV?$PxVec3T@M@1@I@Z 000000018002ad90 f i GuOverlapTests.obj
 0001:00029e90       ?getOverlapFuncTable@Gu@physx@@YAPEAY0L@Q6A_NAEBVPxGeometry@2@AEBV?$PxTransformT@M@2@01PEAUTriggerCache@12@PEAUPxQueryThreadContext@2@@ZXZ 000000018002ae90 f   GuOverlapTests.obj
 0001:0002ba50       ?raycast_box@@YAIAEBVPxGeometry@physx@@AEBV?$PxTransformT@M@2@AEBV?$PxVec3T@M@2@2MV?$PxFlags@W4Enum@PxHitFlag@physx@@G@2@IPEIAUPxGeomRaycastHit@2@IPEAUPxQueryThreadContext@2@@Z 000000018002ca50 f   GuRaycastTests.obj
 0001:0002c080       ?raycast_sphere@@YAIAEBVPxGeometry@physx@@AEBV?$PxTransformT@M@2@AEBV?$PxVec3T@M@2@2MV?$PxFlags@W4Enum@PxHitFlag@physx@@G@2@IPEIAUPxGeomRaycastHit@2@IPEAUPxQueryThreadContext@2@@Z 000000018002d080 f   GuRaycastTests.obj
 0001:0002c210       ?raycast_capsule@@YAIAEBVPxGeometry@physx@@AEBV?$PxTransformT@M@2@AEBV?$PxVec3T@M@2@2MV?$PxFlags@W4Enum@PxHitFlag@physx@@G@2@IPEIAUPxGeomRaycastHit@2@IPEAUPxQueryThreadContext@2@@Z 000000018002d210 f   GuRaycastTests.obj
 0001:0002c770       ?raycast_plane@@YAIAEBVPxGeometry@physx@@AEBV?$PxTransformT@M@2@AEBV?$PxVec3T@M@2@2MV?$PxFlags@W4Enum@PxHitFlag@physx@@G@2@IPEIAUPxGeomRaycastHit@2@IPEAUPxQueryThreadContext@2@@Z 000000018002d770 f   GuRaycastTests.obj
 0001:0002c8e0       ?raycast_convexMesh@@YAIAEBVPxGeometry@physx@@AEBV?$PxTransformT@M@2@AEBV?$PxVec3T@M@2@2MV?$PxFlags@W4Enum@PxHitFlag@physx@@G@2@IPEIAUPxGeomRaycastHit@2@IPEAUPxQueryThreadContext@2@@Z 000000018002d8e0 f   GuRaycastTests.obj
 0001:0002d3e0       ?getMidphaseID@RTreeTriangleMesh@Gu@physx@@UEBA?AW4Enum@PxMeshMidPhase@3@XZ 000000018002e3e0 f   GuTriangleMeshRTree.obj
 0001:0002d3e0       ?getMidphaseID@RTreeTriangleMeshBuilder@physx@@UEBA?AW4Enum@PxMeshMidPhase@2@XZ 000000018002e3e0 f   GuCookingTriangleMesh.obj
 0001:0002d3e0       ?getTetrahedraRemap@TetrahedronMesh@Gu@physx@@UEBAPEBIXZ 000000018002e3e0 f   GuTetrahedronMesh.obj
 0001:0002d3e0       ?raycast_hairsystem@@YAIAEBVPxGeometry@physx@@AEBV?$PxTransformT@M@2@AEBV?$PxVec3T@M@2@2MV?$PxFlags@W4Enum@PxHitFlag@physx@@G@2@IPEIAUPxGeomRaycastHit@2@IPEAUPxQueryThreadContext@2@@Z 000000018002e3e0 f   GuRaycastTests.obj
 0001:0002d3e0       ?raycast_particlesystem@@YAIAEBVPxGeometry@physx@@AEBV?$PxTransformT@M@2@AEBV?$PxVec3T@M@2@2MV?$PxFlags@W4Enum@PxHitFlag@physx@@G@2@IPEIAUPxGeomRaycastHit@2@IPEAUPxQueryThreadContext@2@@Z 000000018002e3e0 f   GuRaycastTests.obj
 0001:0002d3e0       ?raycast_softbody@@YAIAEBVPxGeometry@physx@@AEBV?$PxTransformT@M@2@AEBV?$PxVec3T@M@2@2MV?$PxFlags@W4Enum@PxHitFlag@physx@@G@2@IPEIAUPxGeomRaycastHit@2@IPEAUPxQueryThreadContext@2@@Z 000000018002e3e0 f   GuRaycastTests.obj
 0001:0002d3f0       ?raycast_triangleMesh@@YAIAEBVPxGeometry@physx@@AEBV?$PxTransformT@M@2@AEBV?$PxVec3T@M@2@2MV?$PxFlags@W4Enum@PxHitFlag@physx@@G@2@IPEIAUPxGeomRaycastHit@2@IPEAUPxQueryThreadContext@2@@Z 000000018002e3f0 f   GuRaycastTests.obj
 0001:0002d480       ?raycast_heightField@@YAIAEBVPxGeometry@physx@@AEBV?$PxTransformT@M@2@AEBV?$PxVec3T@M@2@2MV?$PxFlags@W4Enum@PxHitFlag@physx@@G@2@IPEIAUPxGeomRaycastHit@2@IPEAUPxQueryThreadContext@2@@Z 000000018002e480 f   GuRaycastTests.obj
 0001:0002eed0       ??Dphysx@@YA?AV?$PxMat34T@M@0@AEBVPxMeshScale@0@AEBV?$PxTransformT@M@0@@Z 000000018002fed0 f i GuRaycastTests.obj
 0001:0002f9c0       ?getRaycastFuncTable@Gu@physx@@YAAEAY0L@Q6AIAEBVPxGeometry@2@AEBV?$PxTransformT@M@2@AEBV?$PxVec3T@M@2@2MV?$PxFlags@W4Enum@PxHitFlag@physx@@G@2@IPEIAUPxGeomRaycastHit@2@IPEAUPxQueryThreadContext@2@@ZXZ 00000001800309c0 f   GuRaycastTests.obj
 0001:0002f9d0       ??Dphysx@@YA?AV?$PxMat34T@M@0@AEBV?$PxTransformT@M@0@AEBVPxMeshScale@0@@Z 00000001800309d0 f i GuSweepMTD.obj
 0001:0002ff20       ??_E?$MeshHitCallback@UPxGeomRaycastHit@physx@@@Gu@physx@@UEAAPEAXI@Z 0000000180030f20 f i GuSweepMTD.obj
 0001:0002ff20       ??_G?$MeshHitCallback@UPxGeomRaycastHit@physx@@@Gu@physx@@UEAAPEAXI@Z 0000000180030f20 f i GuSweepMTD.obj
 0001:0002ff50       ??_EMeshMTDGenerationCallback@@UEAAPEAXI@Z 0000000180030f50 f i GuSweepMTD.obj
 0001:0002ff50       ??_GMeshMTDGenerationCallback@@UEAAPEAXI@Z 0000000180030f50 f i GuSweepMTD.obj
 0001:0002ff80       ??_EMidPhaseQueryLocalReport@@UEAAPEAXI@Z 0000000180030f80 f i GuSweepMTD.obj
 0001:0002ff80       ??_ERTreeCookerRemap@@UEAAPEAXI@Z 0000000180030f80 f i GuCookingTriangleMesh.obj
 0001:0002ff80       ??_GMidPhaseQueryLocalReport@@UEAAPEAXI@Z 0000000180030f80 f i GuSweepMTD.obj
 0001:0002ff80       ??_GRTreeCookerRemap@@UEAAPEAXI@Z 0000000180030f80 f i GuCookingTriangleMesh.obj
 0001:0002ffb0       ?allocate@?$PxArray@IV?$PxReflectionAllocator@I@physx@@@physx@@IEAAPEAII@Z 0000000180030fb0 f i GuSweepMTD.obj
 0001:00030040       ?computeBox_HeightFieldMTD@Gu@physx@@YA_NAEBVPxHeightFieldGeometry@2@AEBV?$PxTransformT@M@2@AEBVBox@12@1M_NAEAUPxGeomSweepHit@2@@Z 0000000180031040 f   GuSweepMTD.obj
 0001:00030e10       ?computeBox_TriangleMeshMTD@Gu@physx@@YA_NAEBVPxTriangleMeshGeometry@2@AEBV?$PxTransformT@M@2@AEBVBox@12@1M_NAEAUPxGeomSweepHit@2@@Z 0000000180031e10 f   GuSweepMTD.obj
 0001:00031e80       ?computeCapsule_CapsuleMTD@Gu@physx@@YA_NAEBVCapsule@12@0AEAUPxGeomSweepHit@2@@Z 0000000180032e80 f   GuSweepMTD.obj
 0001:000320c0       ?computeCapsule_HeightFieldMTD@Gu@physx@@YA_NAEBVPxHeightFieldGeometry@2@AEBV?$PxTransformT@M@2@AEAVCapsuleV@12@M_NAEAUPxGeomSweepHit@2@@Z 00000001800330c0 f   GuSweepMTD.obj
 0001:00032890       ?computeCapsule_TriangleMeshMTD@Gu@physx@@YA_NAEBVPxTriangleMeshGeometry@2@AEBV?$PxTransformT@M@2@AEAVCapsuleV@12@M_NAEAUPxGeomSweepHit@2@@Z 0000000180033890 f   GuSweepMTD.obj
 0001:00033140       ?computeConvex_HeightFieldMTD@Gu@physx@@YA_NAEBVPxHeightFieldGeometry@2@AEBV?$PxTransformT@M@2@AEBVPxConvexMeshGeometry@2@1M_NAEAUPxGeomSweepHit@2@@Z 0000000180034140 f   GuSweepMTD.obj
 0001:00034410       ?computeConvex_TriangleMeshMTD@Gu@physx@@YA_NAEBVPxTriangleMeshGeometry@2@AEBV?$PxTransformT@M@2@AEBVPxConvexMeshGeometry@2@1M_NAEAUPxGeomSweepHit@2@@Z 0000000180035410 f   GuSweepMTD.obj
 0001:00035a30       ?computePlane_BoxMTD@Gu@physx@@YA_NAEBVPxPlane@2@AEBVBox@12@AEAUPxGeomSweepHit@2@@Z 0000000180036a30 f   GuSweepMTD.obj
 0001:00035cd0       ?computePlane_CapsuleMTD@Gu@physx@@YA_NAEBVPxPlane@2@AEBVCapsule@12@AEAUPxGeomSweepHit@2@@Z 0000000180036cd0 f   GuSweepMTD.obj
 0001:00035de0       ?computePlane_ConvexMTD@Gu@physx@@YA_NAEBVPxPlane@2@AEBVPxConvexMeshGeometry@2@AEBV?$PxTransformT@M@2@AEAUPxGeomSweepHit@2@@Z 0000000180036de0 f   GuSweepMTD.obj
 0001:000369a0       ?computeSphere_CapsuleMTD@Gu@physx@@YA_NAEBVSphere@12@AEBVCapsule@12@AEAUPxGeomSweepHit@2@@Z 00000001800379a0 f   GuSweepMTD.obj
 0001:00036b50       ?computeSphere_SphereMTD@Gu@physx@@YA_NAEBVSphere@12@0AEAUPxGeomSweepHit@2@@Z 0000000180037b50 f   GuSweepMTD.obj
 0001:00036c40       ?getInverse@?$PxMat33T@M@physx@@QEBA?BV12@XZ 0000000180037c40 f i GuSweepMTD.obj
 0001:00036e90       ?growAndPushBack@?$PxArray@IV?$PxReflectionAllocator@I@physx@@@physx@@IEAAAEAIAEBI@Z 0000000180037e90 f i GuSweepMTD.obj
 0001:00036f50       ?init@FastVertex2ShapeScaling@Cm@physx@@QEAAXAEBV?$PxVec3T@M@3@AEBV?$PxQuatT@M@3@@Z 0000000180037f50 f i GuSweepMTD.obj
 0001:00037860       ?processHit@MeshMTDGenerationCallback@@UEAA_NAEBUPxGeomRaycastHit@physx@@AEBV?$PxVec3T@M@3@11AEAMPEBI@Z 0000000180038860 f i GuSweepMTD.obj
 0001:000378b0       ?recreate@?$PxArray@IV?$PxReflectionAllocator@I@physx@@@physx@@IEAAXI@Z 00000001800388b0 f i GuSweepMTD.obj
 0001:00037950       ?reportTouchedTris@MidPhaseQueryLocalReport@@UEAA_NIPEBI@Z 0000000180038950 f i GuSweepMTD.obj
 0001:000379c0       ??$gjkPenetration@U?$LocalConvex@VCapsuleV@Gu@physx@@@Gu@physx@@U?$LocalConvex@VConvexHullV@Gu@physx@@@23@@Gu@physx@@YA?AW4GjkStatus@01@AEBU?$LocalConvex@VCapsuleV@Gu@physx@@@01@AEBU?$LocalConvex@VConvexHullV@Gu@physx@@@01@AEBT__m128@@2_NPEIAE4AEAEAEAUGjkOutput@01@@Z 00000001800389c0 f i GuSweepSharedTests.obj
 0001:00037a30       ??$gjkPenetration@U?$LocalConvex@VCapsuleV@Gu@physx@@@Gu@physx@@U?$LocalConvex@VConvexHullV@Gu@physx@@@23@@Gu@physx@@YA?AW4GjkStatus@01@AEBU?$LocalConvex@VCapsuleV@Gu@physx@@@01@AEBU?$LocalConvex@VConvexHullV@Gu@physx@@@01@AEBT__m128@@2_NPEIAE4PEIAT5@5AEAEAEAUGjkOutput@01@@Z 0000000180038a30 f i GuSweepSharedTests.obj
 0001:00038f60       ??$gjkPenetration@U?$RelativeConvex@VBoxV@Gu@physx@@@Gu@physx@@U?$LocalConvex@VConvexHullV@Gu@physx@@@23@@Gu@physx@@YA?AW4GjkStatus@01@AEBU?$RelativeConvex@VBoxV@Gu@physx@@@01@AEBU?$LocalConvex@VConvexHullV@Gu@physx@@@01@AEBT__m128@@2_NPEIAE4AEAEAEAUGjkOutput@01@@Z 0000000180039f60 f i GuSweepSharedTests.obj
 0001:00038fd0       ??$gjkPenetration@U?$RelativeConvex@VBoxV@Gu@physx@@@Gu@physx@@U?$LocalConvex@VConvexHullV@Gu@physx@@@23@@Gu@physx@@YA?AW4GjkStatus@01@AEBU?$RelativeConvex@VBoxV@Gu@physx@@@01@AEBU?$LocalConvex@VConvexHullV@Gu@physx@@@01@AEBT__m128@@2_NPEIAE4PEIAT5@5AEAEAEAUGjkOutput@01@@Z 0000000180039fd0 f i GuSweepSharedTests.obj
 0001:0003a550       ??$gjkPenetration@U?$RelativeConvex@VConvexHullV@Gu@physx@@@Gu@physx@@U?$LocalConvex@VConvexHullV@Gu@physx@@@23@@Gu@physx@@YA?AW4GjkStatus@01@AEBU?$RelativeConvex@VConvexHullV@Gu@physx@@@01@AEBU?$LocalConvex@VConvexHullV@Gu@physx@@@01@AEBT__m128@@2_NPEIAE4AEAEAEAUGjkOutput@01@@Z 000000018003b550 f i GuSweepSharedTests.obj
 0001:0003a5c0       ??$gjkPenetration@U?$RelativeConvex@VConvexHullV@Gu@physx@@@Gu@physx@@U?$LocalConvex@VConvexHullV@Gu@physx@@@23@@Gu@physx@@YA?AW4GjkStatus@01@AEBU?$RelativeConvex@VConvexHullV@Gu@physx@@@01@AEBU?$LocalConvex@VConvexHullV@Gu@physx@@@01@AEBT__m128@@2_NPEIAE4PEIAT5@5AEAEAEAUGjkOutput@01@@Z 000000018003b5c0 f i GuSweepSharedTests.obj
 0001:0003bc10       ??$gjkRaycast@U?$LocalConvex@VCapsuleV@Gu@physx@@@Gu@physx@@U?$LocalConvex@VConvexHullV@Gu@physx@@@23@@Gu@physx@@YA_NAEBU?$LocalConvex@VCapsuleV@Gu@physx@@@01@AEBU?$LocalConvex@VConvexHullV@Gu@physx@@@01@AEBT__m128@@222AEAT4@33M@Z 000000018003cc10 f i GuSweepSharedTests.obj
 0001:0003c960       ??$gjkRaycast@U?$RelativeConvex@VBoxV@Gu@physx@@@Gu@physx@@U?$LocalConvex@VConvexHullV@Gu@physx@@@23@@Gu@physx@@YA_NAEBU?$RelativeConvex@VBoxV@Gu@physx@@@01@AEBU?$LocalConvex@VConvexHullV@Gu@physx@@@01@AEBT__m128@@222AEAT4@33M@Z 000000018003d960 f i GuSweepSharedTests.obj
 0001:0003d750       ??$gjkRaycast@U?$RelativeConvex@VConvexHullV@Gu@physx@@@Gu@physx@@U?$LocalConvex@VConvexHullV@Gu@physx@@@23@@Gu@physx@@YA_NAEBU?$RelativeConvex@VConvexHullV@Gu@physx@@@01@AEBU?$LocalConvex@VConvexHullV@Gu@physx@@@01@AEBT__m128@@222AEAT4@33M@Z 000000018003e750 f i GuSweepSharedTests.obj
 0001:0003e530       ??$gjkRaycastPenetration@U?$RelativeConvex@VConvexHullV@Gu@physx@@@Gu@physx@@U?$LocalConvex@VConvexHullV@Gu@physx@@@23@@Gu@physx@@YA_NAEBU?$RelativeConvex@VConvexHullV@Gu@physx@@@01@AEBU?$LocalConvex@VConvexHullV@Gu@physx@@@01@AEBT__m128@@222AEAT4@33M_N@Z 000000018003f530 f i GuSweepSharedTests.obj
 0001:0003f100       ?sweepBox_ConvexGeom@@YA_NAEBVPxGeometry@physx@@AEBV?$PxTransformT@M@2@AEBVPxBoxGeometry@2@1AEBVBox@Gu@2@AEBV?$PxVec3T@M@2@MAEAUPxGeomSweepHit@2@V?$PxFlags@W4Enum@PxHitFlag@physx@@G@2@MPEAUPxQueryThreadContext@2@@Z 0000000180040100 f   GuSweepSharedTests.obj
 0001:0003ff20       ?sweepBox_PlaneGeom@@YA_NAEBVPxGeometry@physx@@AEBV?$PxTransformT@M@2@AEBVPxBoxGeometry@2@1AEBVBox@Gu@2@AEBV?$PxVec3T@M@2@MAEAUPxGeomSweepHit@2@V?$PxFlags@W4Enum@PxHitFlag@physx@@G@2@MPEAUPxQueryThreadContext@2@@Z 0000000180040f20 f   GuSweepSharedTests.obj
 0001:00040310       ?sweepCapsuleTriangles@Gu@physx@@YA_NIPEBVPxTriangle@2@_NAEBVPxCapsuleGeometry@2@AEBV?$PxTransformT@M@2@AEBV?$PxVec3T@M@2@MAEAUPxGeomSweepHit@2@PEBIMV?$PxFlags@W4Enum@PxHitFlag@physx@@G@2@@Z 0000000180041310 f   GuSweepSharedTests.obj
 0001:00040500       ?sweepCapsule_CapsuleGeom@@YA_NAEBVPxGeometry@physx@@AEBV?$PxTransformT@M@2@AEBVPxCapsuleGeometry@2@1AEBVCapsule@Gu@2@AEBV?$PxVec3T@M@2@MAEAUPxGeomSweepHit@2@V?$PxFlags@W4Enum@PxHitFlag@physx@@G@2@MPEAUPxQueryThreadContext@2@@Z 0000000180041500 f   GuSweepSharedTests.obj
 0001:000406e0       ?sweepCapsule_ConvexGeom@@YA_NAEBVPxGeometry@physx@@AEBV?$PxTransformT@M@2@AEBVPxCapsuleGeometry@2@1AEBVCapsule@Gu@2@AEBV?$PxVec3T@M@2@MAEAUPxGeomSweepHit@2@V?$PxFlags@W4Enum@PxHitFlag@physx@@G@2@MPEAUPxQueryThreadContext@2@@Z 00000001800416e0 f   GuSweepSharedTests.obj
 0001:00041410       ?sweepCapsule_PlaneGeom@@YA_NAEBVPxGeometry@physx@@AEBV?$PxTransformT@M@2@AEBVPxCapsuleGeometry@2@1AEBVCapsule@Gu@2@AEBV?$PxVec3T@M@2@MAEAUPxGeomSweepHit@2@V?$PxFlags@W4Enum@PxHitFlag@physx@@G@2@MPEAUPxQueryThreadContext@2@@Z 0000000180042410 f   GuSweepSharedTests.obj
 0001:000416f0       ?sweepCapsule_SphereGeom@@YA_NAEBVPxGeometry@physx@@AEBV?$PxTransformT@M@2@AEBVPxCapsuleGeometry@2@1AEBVCapsule@Gu@2@AEBV?$PxVec3T@M@2@MAEAUPxGeomSweepHit@2@V?$PxFlags@W4Enum@PxHitFlag@physx@@G@2@MPEAUPxQueryThreadContext@2@@Z 00000001800426f0 f   GuSweepSharedTests.obj
 0001:00041890       ?sweepConvex_BoxGeom@@YA_NAEBVPxGeometry@physx@@AEBV?$PxTransformT@M@2@AEBVPxConvexMeshGeometry@2@1AEBV?$PxVec3T@M@2@MAEAUPxGeomSweepHit@2@V?$PxFlags@W4Enum@PxHitFlag@physx@@G@2@MPEAUPxQueryThreadContext@2@@Z 0000000180042890 f   GuSweepSharedTests.obj
 0001:00041ab0       ?sweepConvex_CapsuleGeom@@YA_NAEBVPxGeometry@physx@@AEBV?$PxTransformT@M@2@AEBVPxConvexMeshGeometry@2@1AEBV?$PxVec3T@M@2@MAEAUPxGeomSweepHit@2@V?$PxFlags@W4Enum@PxHitFlag@physx@@G@2@MPEAUPxQueryThreadContext@2@@Z 0000000180042ab0 f   GuSweepSharedTests.obj
 0001:00041ce0       ?sweepConvex_ConvexGeom@@YA_NAEBVPxGeometry@physx@@AEBV?$PxTransformT@M@2@AEBVPxConvexMeshGeometry@2@1AEBV?$PxVec3T@M@2@MAEAUPxGeomSweepHit@2@V?$PxFlags@W4Enum@PxHitFlag@physx@@G@2@MPEAUPxQueryThreadContext@2@@Z 0000000180042ce0 f   GuSweepSharedTests.obj
 0001:00042cc0       ?sweepConvex_PlaneGeom@@YA_NAEBVPxGeometry@physx@@AEBV?$PxTransformT@M@2@AEBVPxConvexMeshGeometry@2@1AEBV?$PxVec3T@M@2@MAEAUPxGeomSweepHit@2@V?$PxFlags@W4Enum@PxHitFlag@physx@@G@2@MPEAUPxQueryThreadContext@2@@Z 0000000180043cc0 f   GuSweepSharedTests.obj
 0001:00043100       ?sweepConvex_SphereGeom@@YA_NAEBVPxGeometry@physx@@AEBV?$PxTransformT@M@2@AEBVPxConvexMeshGeometry@2@1AEBV?$PxVec3T@M@2@MAEAUPxGeomSweepHit@2@V?$PxFlags@W4Enum@PxHitFlag@physx@@G@2@MPEAUPxQueryThreadContext@2@@Z 0000000180044100 f   GuSweepSharedTests.obj
 0001:00043d10       ?sweepCapsule_BoxGeom@@YA_NAEBVPxGeometry@physx@@AEBV?$PxTransformT@M@2@AEBVPxCapsuleGeometry@2@1AEBVCapsule@Gu@2@AEBV?$PxVec3T@M@2@MAEAUPxGeomSweepHit@2@V?$PxFlags@W4Enum@PxHitFlag@physx@@G@2@MPEAUPxQueryThreadContext@2@@Z 0000000180044d10 f   GuSweepTests.obj
 0001:000445d0       ?sweepBox_SphereGeom@@YA_NAEBVPxGeometry@physx@@AEBV?$PxTransformT@M@2@AEBVPxBoxGeometry@2@1AEBVBox@Gu@2@AEBV?$PxVec3T@M@2@MAEAUPxGeomSweepHit@2@V?$PxFlags@W4Enum@PxHitFlag@physx@@G@2@MPEAUPxQueryThreadContext@2@@Z 00000001800455d0 f   GuSweepTests.obj
 0001:00044cb0       ?sweepBox_CapsuleGeom@@YA_NAEBVPxGeometry@physx@@AEBV?$PxTransformT@M@2@AEBVPxBoxGeometry@2@1AEBVBox@Gu@2@AEBV?$PxVec3T@M@2@MAEAUPxGeomSweepHit@2@V?$PxFlags@W4Enum@PxHitFlag@physx@@G@2@MPEAUPxQueryThreadContext@2@@Z 0000000180045cb0 f   GuSweepTests.obj
 0001:00045580       ?sweepBox_BoxGeom@@YA_NAEBVPxGeometry@physx@@AEBV?$PxTransformT@M@2@AEBVPxBoxGeometry@2@1AEBVBox@Gu@2@AEBV?$PxVec3T@M@2@MAEAUPxGeomSweepHit@2@V?$PxFlags@W4Enum@PxHitFlag@physx@@G@2@MPEAUPxQueryThreadContext@2@@Z 0000000180046580 f   GuSweepTests.obj
 0001:00045f80       ??$gjkPenetration@U?$LocalConvex@VCapsuleV@Gu@physx@@@Gu@physx@@U?$LocalConvex@VBoxV@Gu@physx@@@23@@Gu@physx@@YA?AW4GjkStatus@01@AEBU?$LocalConvex@VCapsuleV@Gu@physx@@@01@AEBU?$LocalConvex@VBoxV@Gu@physx@@@01@AEBT__m128@@2_NPEIAE4AEAEAEAUGjkOutput@01@@Z 0000000180046f80 f i GuSweepTests.obj
 0001:00045ff0       ??$gjkPenetration@U?$LocalConvex@VCapsuleV@Gu@physx@@@Gu@physx@@U?$LocalConvex@VBoxV@Gu@physx@@@23@@Gu@physx@@YA?AW4GjkStatus@01@AEBU?$LocalConvex@VCapsuleV@Gu@physx@@@01@AEBU?$LocalConvex@VBoxV@Gu@physx@@@01@AEBT__m128@@2_NPEIAE4PEIAT5@5AEAEAEAUGjkOutput@01@@Z 0000000180046ff0 f i GuSweepTests.obj
 0001:00047470       ??$gjkPenetration@U?$RelativeConvex@VBoxV@Gu@physx@@@Gu@physx@@U?$LocalConvex@VBoxV@Gu@physx@@@23@@Gu@physx@@YA?AW4GjkStatus@01@AEBU?$RelativeConvex@VBoxV@Gu@physx@@@01@AEBU?$LocalConvex@VBoxV@Gu@physx@@@01@AEBT__m128@@2_NPEIAE4AEAEAEAUGjkOutput@01@@Z 0000000180048470 f i GuSweepTests.obj
 0001:000474e0       ??$gjkPenetration@U?$RelativeConvex@VBoxV@Gu@physx@@@Gu@physx@@U?$LocalConvex@VBoxV@Gu@physx@@@23@@Gu@physx@@YA?AW4GjkStatus@01@AEBU?$RelativeConvex@VBoxV@Gu@physx@@@01@AEBU?$LocalConvex@VBoxV@Gu@physx@@@01@AEBT__m128@@2_NPEIAE4PEIAT5@5AEAEAEAUGjkOutput@01@@Z 00000001800484e0 f i GuSweepTests.obj
 0001:00048990       ??$gjkRaycast@U?$LocalConvex@VCapsuleV@Gu@physx@@@Gu@physx@@U?$LocalConvex@VBoxV@Gu@physx@@@23@@Gu@physx@@YA_NAEBU?$LocalConvex@VCapsuleV@Gu@physx@@@01@AEBU?$LocalConvex@VBoxV@Gu@physx@@@01@AEBT__m128@@222AEAT4@33M@Z 0000000180049990 f i GuSweepTests.obj
 0001:00049560       ??$gjkRaycast@U?$LocalConvex@VTriangleV@Gu@physx@@@Gu@physx@@U?$LocalConvex@VBoxV@Gu@physx@@@23@@Gu@physx@@YA_NAEBU?$LocalConvex@VTriangleV@Gu@physx@@@01@AEBU?$LocalConvex@VBoxV@Gu@physx@@@01@AEBT__m128@@222AEAT4@33M@Z 000000018004a560 f i GuSweepTests.obj
 0001:0004a1b0       ??$gjkRaycast@U?$RelativeConvex@VBoxV@Gu@physx@@@Gu@physx@@U?$LocalConvex@VBoxV@Gu@physx@@@23@@Gu@physx@@YA_NAEBU?$RelativeConvex@VBoxV@Gu@physx@@@01@AEBU?$LocalConvex@VBoxV@Gu@physx@@@01@AEBT__m128@@222AEAT4@33M@Z 000000018004b1b0 f i GuSweepTests.obj
 0001:0004ade0       ?getSweepFuncTable@Gu@physx@@YAAEBUGeomSweepFuncs@12@XZ 000000018004bde0 f   GuSweepTests.obj
 0001:0004adf0       ?getSweepMargin@?$LocalConvex@VTetrahedronV@Gu@physx@@@Gu@physx@@UEBA?AT__m128@@XZ 000000018004bdf0 f i GuCookingTetrahedronMesh.obj
 0001:0004adf0       ?getSweepMargin@?$LocalConvex@VTriangleV@Gu@physx@@@Gu@physx@@UEBA?AT__m128@@XZ 000000018004bdf0 f i GuSweepTests.obj
 0001:0004adf0       ?getSweepMargin@?$RelativeConvex@VTriangleV@Gu@physx@@@Gu@physx@@UEBA?AT__m128@@XZ 000000018004bdf0 f i GuCCDSweepPrimitives.obj
 0001:0004ae00       ?support@?$LocalConvex@VBoxV@Gu@physx@@@Gu@physx@@UEBA?AT__m128@@AEBT4@@Z 000000018004be00 f i GuSweepTests.obj
 0001:0004ae30       ?support@?$LocalConvex@VBoxV@Gu@physx@@@Gu@physx@@UEBA?AT__m128@@AEBT4@AEAH@Z 000000018004be30 f i GuSweepTests.obj
 0001:0004ae70       ?support@?$LocalConvex@VTriangleV@Gu@physx@@@Gu@physx@@UEBA?AT__m128@@AEBT4@@Z 000000018004be70 f i GuSweepTests.obj
 0001:0004af00       ?support@?$LocalConvex@VTriangleV@Gu@physx@@@Gu@physx@@UEBA?AT__m128@@AEBT4@AEAH@Z 000000018004bf00 f i GuSweepTests.obj
 0001:0004afe0       ?supportPoint@?$LocalConvex@VBoxV@Gu@physx@@@Gu@physx@@UEBA?AT__m128@@H@Z 000000018004bfe0 f i GuSweepTests.obj
 0001:0004b020       ?supportPoint@?$LocalConvex@VTetrahedronV@Gu@physx@@@Gu@physx@@UEBA?AT__m128@@H@Z 000000018004c020 f i GuCookingTetrahedronMesh.obj
 0001:0004b020       ?supportPoint@?$LocalConvex@VTriangleV@Gu@physx@@@Gu@physx@@UEBA?AT__m128@@H@Z 000000018004c020 f i GuSweepTests.obj
 0001:0004b040       ?sweepBoxTriangles@Gu@physx@@YA_NIPEBVPxTriangle@2@_NAEBVPxBoxGeometry@2@AEBV?$PxTransformT@M@2@AEBV?$PxVec3T@M@2@MAEAUPxGeomSweepHit@2@PEBIMV?$PxFlags@W4Enum@PxHitFlag@physx@@G@2@@Z 000000018004c040 f   GuSweepTests.obj
 0001:0004bac0       ??$PxSmallSort@H$$CBU?$Comparer@V?$PxVec3T@M@physx@@@MeshAnalyzer@Gu@physx@@@physx@@YAXPEAHHHAEBU?$Comparer@V?$PxVec3T@M@physx@@@MeshAnalyzer@Gu@0@@Z 000000018004cac0 f i GuSDF.obj
 0001:0004bce0       ??$PxSort@HU?$Comparer@V?$PxVec3T@M@physx@@@MeshAnalyzer@Gu@physx@@V?$PxReflectionAllocator@H@4@@physx@@YAXPEAHIAEBU?$Comparer@V?$PxVec3T@M@physx@@@MeshAnalyzer@Gu@0@AEBV?$PxReflectionAllocator@H@0@I@Z 000000018004cce0 f i GuSDF.obj
 0001:0004c160       ??$PxSort@HU?$PxLess@H@physx@@V?$PxReflectionAllocator@H@2@@physx@@YAXPEAHIAEBU?$PxLess@H@0@AEBV?$PxReflectionAllocator@H@0@I@Z 000000018004d160 f i GuSDF.obj
 0001:0004c5b0       ??$mapDuplicatePoints@V?$PxVec3T@M@physx@@M@MeshAnalyzer@Gu@physx@@SAXPEBV?$PxVec3T@M@2@IAEAV?$PxArray@HV?$PxReflectionAllocator@H@physx@@@2@M@Z 000000018004d5b0 f i GuSDF.obj
 0001:0004c930       ??$splitRanges@V?$PxVec3T@M@physx@@M@MeshAnalyzer@Gu@physx@@CAXAEAV?$PxArray@URange@MeshAnalyzer@Gu@physx@@V?$PxReflectionAllocator@URange@MeshAnalyzer@Gu@physx@@@4@@2@AEBV?$PxArray@HV?$PxReflectionAllocator@H@physx@@@2@PEBV?$PxVec3T@M@2@HM@Z 000000018004d930 f i GuSDF.obj
 0001:0004cbc0       ??$traverseBVH@VClosestDistanceToTrimeshTraversalController@Gu@physx@@@Gu@physx@@YAXPEBUBVHNode@01@AEAVClosestDistanceToTrimeshTraversalController@01@H@Z 000000018004dbc0 f i GuSDF.obj
 0001:0004cfc0       ??$traverseBVH@VLineSegmentTrimeshIntersectionTraversalController@Gu@physx@@@Gu@physx@@YAXPEBUBVHNode@01@AEAVLineSegmentTrimeshIntersectionTraversalController@01@H@Z 000000018004dfc0 f i GuSDF.obj
 0001:0004d4c0       ??1SDF@Gu@physx@@QEAA@XZ   000000018004e4c0 f   GuSDF.obj
 0001:0004d550       ??_E?$PxThreadT@V?$PxReflectionAllocator@VPxThreadImpl@physx@@@physx@@@physx@@UEAAPEAXI@Z 000000018004e550 f i GuSDF.obj
 0001:0004d550       ??_G?$PxThreadT@V?$PxReflectionAllocator@VPxThreadImpl@physx@@@physx@@@physx@@UEAAPEAXI@Z 000000018004e550 f i GuSDF.obj
 0001:0004d600       ??_EPxRunnable@physx@@UEAAPEAXI@Z 000000018004e600 f i GuSDF.obj
 0001:0004d600       ??_GPxRunnable@physx@@UEAAPEAXI@Z 000000018004e600 f i GuSDF.obj
 0001:0004d630       ?PxCreatePointOntoTriangleMeshProjector@Gu@physx@@YAPEAVPxPointOntoTriangleMeshProjector@12@PEBV?$PxVec3T@M@2@PEBII@Z 000000018004e630 f   GuSDF.obj
 0001:0004d730       ?SDFUsingWindingNumbers@Gu@physx@@YAXAEAV?$PxArray@UBVHNode@Gu@physx@@V?$PxReflectionAllocator@UBVHNode@Gu@physx@@@3@@2@AEAV?$PxHashMap@IU?$ClusterApproximationT@MV?$PxVec3T@M@physx@@@Gu@physx@@U?$PxHash@I@3@VPxAllocator@3@@2@PEBV?$PxVec3T@M@2@PEBIIIIIPEAMAEAUGridQueryPointSampler@12@PEAV52@I_N7@Z 000000018004e730 f   GuSDF.obj
 0001:0004dc50       ?SDFUsingWindingNumbers@Gu@physx@@YAXPEBV?$PxVec3T@M@2@PEBIIIIIPEAMV32@3PEAV32@_NIPEAVPxSDFBuilder@2@@Z 000000018004ec50 f   GuSDF.obj
 0001:0004e130       ?SDFUsingWindingNumbersSparse@Gu@physx@@YAXPEBV?$PxVec3T@M@2@PEBIIIIIAEBV32@2MIAEAV?$PxArray@MV?$PxReflectionAllocator@M@physx@@@2@AEAV?$PxArray@IV?$PxReflectionAllocator@I@physx@@@2@33AEAM5IPEAVPxSDFBuilder@2@@Z 000000018004f130 f   GuSDF.obj
 0001:0004ebc0       ?allocate@?$PxArray@HV?$PxInlineAllocator@$0EAA@V?$PxReflectionAllocator@H@physx@@@physx@@@physx@@IEAAPEAHI@Z 000000018004fbc0 f i GuSDF.obj
 0001:0004ec80       ?allocate@?$PxArray@MV?$PxReflectionAllocator@M@physx@@@physx@@IEAAPEAMI@Z 000000018004fc80 f i GuSDF.obj
 0001:0004ed10       ?allocateSdfs@SDF@Gu@physx@@QEAAPEAMAEBV?$PxVec3T@M@3@AEBMIIIIIIIMMI@Z 000000018004fd10 f   GuSDF.obj
 0001:0004ef20       ?analyzeAndFixMesh@Gu@physx@@YAXPEBV?$PxVec3T@M@2@PEBIIAEAV?$PxArray@IV?$PxReflectionAllocator@I@physx@@@2@@Z 000000018004ff20 f   GuSDF.obj
 0001:0004f780       ?buildTree@Gu@physx@@YAXPEBIIPEBV?$PxVec3T@M@2@AEAV?$PxArray@UBVHNode@Gu@physx@@V?$PxReflectionAllocator@UBVHNode@Gu@physx@@@3@@2@M@Z 0000000180050780 f   GuSDF.obj
 0001:0004f9b0       ?computeSDFThreadJob@Gu@physx@@YAPEAXPEAX@Z 00000001800509b0 f   GuSDF.obj
 0001:00050470       ?convertSparseSDFTo3DTextureLayout@Gu@physx@@YAXIIIIPEAIPEBMIAEAV?$PxArray@MV?$PxReflectionAllocator@M@physx@@@2@AEAI33@Z 0000000180051470 f   GuSDF.obj
 0001:00050820       ?create@?$PxHashBase@V?$PxPair@$$CBUSortedTriangle@Gu@physx@@H@physx@@USortedTriangle@Gu@2@UTriangleHash@42@UGetKey@?$PxHashMapBase@USortedTriangle@Gu@physx@@HUTriangleHash@23@VPxAllocator@3@@2@VPxAllocator@2@$00@physx@@QEAAPEAV?$PxPair@$$CBUSortedTriangle@Gu@physx@@H@2@AEBUSortedTriangle@Gu@2@AEA_N@Z 0000000180051820 f i GuSDF.obj
 0001:00050950       ?create@?$PxHashBase@V?$PxPair@$$CB_KH@physx@@_KU?$PxHash@_K@2@UGetKey@?$PxHashMapBase@_KHU?$PxHash@_K@physx@@VPxAllocator@2@@2@VPxAllocator@2@$00@physx@@QEAAPEAV?$PxPair@$$CB_KH@2@AEB_KAEA_N@Z 0000000180051950 f i GuMeshAnalysis.obj
 0001:00050950       ?create@?$PxHashBase@V?$PxPair@$$CB_KI@physx@@_KU?$PxHash@_K@2@UGetKey@?$PxHashMapBase@_KIU?$PxHash@_K@physx@@VPxAllocator@2@@2@VPxAllocator@2@$00@physx@@QEAAPEAV?$PxPair@$$CB_KI@2@AEB_KAEA_N@Z 0000000180051950 f i GuSDF.obj
 0001:00050ae0       ?createTriangles@Gu@physx@@YAXHHHMQEAMAEBV?$PxHashMap@_KIU?$PxHash@_K@physx@@VPxAllocator@2@@2@AEBV?$PxArray@V?$PxVec3T@M@physx@@V?$PxReflectionAllocator@V?$PxVec3T@M@physx@@@2@@2@AEAV?$PxArray@IV?$PxReflectionAllocator@I@physx@@@2@@Z 0000000180051ae0 f   GuSDF.obj
 0001:00051340       ?decodeDense@SDF@Gu@physx@@QEBAMHHH@Z 0000000180052340 f   GuSDF.obj
 0001:00051390       ?decodeSparse@SDF@Gu@physx@@QEBAMHHH@Z 0000000180052390 f   GuSDF.obj
 0001:00051630       ?extractIsosurfaceFromSDF@Gu@physx@@YAXAEBVSDF@12@AEAV?$PxArray@V?$PxVec3T@M@physx@@V?$PxReflectionAllocator@V?$PxVec3T@M@physx@@@2@@2@AEAV?$PxArray@IV?$PxReflectionAllocator@I@physx@@@2@@Z 0000000180052630 f   GuSDF.obj
 0001:00052390       ?fixSdfForNonClosedGeometry@Gu@physx@@YAXIIIPEAMAEBV?$PxVec3T@M@2@@Z 0000000180053390 f   GuSDF.obj
 0001:00053470       ?generatePointInCell@Gu@physx@@YA_NAEBVSDF@12@HHHAEAV?$PxVec3T@M@2@QEAY111M@Z 0000000180054470 f   GuSDF.obj
 0001:000538c0       ?growAndPushBack@?$PxArray@HV?$PxInlineAllocator@$0EAA@V?$PxReflectionAllocator@H@physx@@@physx@@@physx@@IEAAAEAHAEBH@Z 00000001800548c0 f i GuSDF.obj
 0001:000539b0       ?growAndPushBack@?$PxArray@MV?$PxReflectionAllocator@M@physx@@@physx@@IEAAAEAMAEBM@Z 00000001800549b0 f i GuSDF.obj
 0001:00053a90       ?growAndPushBack@?$PxArray@PEAV?$PxThreadT@V?$PxReflectionAllocator@VPxThreadImpl@physx@@@physx@@@physx@@V?$PxReflectionAllocator@PEAV?$PxThreadT@V?$PxReflectionAllocator@VPxThreadImpl@physx@@@physx@@@physx@@@2@@physx@@IEAAAEAPEAV?$PxThreadT@V?$PxReflectionAllocator@VPxThreadImpl@physx@@@physx@@@2@AEBQEAV32@@Z 0000000180054a90 f i GuSDF.obj
 0001:00053bb0       ?growAndPushBack@?$PxArray@UMutation@Gu@physx@@V?$PxReflectionAllocator@UMutation@Gu@physx@@@3@@physx@@IEAAAEAUMutation@Gu@2@AEBU342@@Z 0000000180054bb0 f i GuSDF.obj
 0001:00053cd0       ?growAndPushBack@?$PxArray@URange@Gu@physx@@V?$PxReflectionAllocator@URange@Gu@physx@@@3@@physx@@IEAAAEAURange@Gu@2@AEBU342@@Z 0000000180054cd0 f i GuSDF.obj
 0001:00053e00       ?growAndPushBack@?$PxArray@URange@MeshAnalyzer@Gu@physx@@V?$PxReflectionAllocator@URange@MeshAnalyzer@Gu@physx@@@4@@physx@@IEAAAEAURange@MeshAnalyzer@Gu@2@AEBU3452@@Z 0000000180054e00 f i GuSDF.obj
 0001:00053f20       ?growAndPushBack@?$PxArray@USDFCalculationData@Gu@physx@@V?$PxReflectionAllocator@USDFCalculationData@Gu@physx@@@3@@physx@@IEAAAEAUSDFCalculationData@Gu@2@AEBU342@@Z 0000000180054f20 f i GuSDF.obj
 0001:000540a0       ?growAndPushBack@?$PxArray@V?$PxVec3T@M@physx@@V?$PxReflectionAllocator@V?$PxVec3T@M@physx@@@2@@physx@@IEAAAEAV?$PxVec3T@M@2@AEBV32@@Z 00000001800550a0 f i GuSDF.obj
 0001:00054280       ?projectPoint@PointOntoTriangleMeshProjector@Gu@physx@@UEAA?AV?$PxVec3T@M@3@AEBV43@@Z 0000000180055280 f i GuSDF.obj
 0001:000542f0       ?projectPoint@PointOntoTriangleMeshProjector@Gu@physx@@UEAA?AV?$PxVec3T@M@3@AEBV43@AEAI@Z 00000001800552f0 f i GuSDF.obj
 0001:00054370       ?recreate@?$PxArray@HV?$PxReflectionAllocator@H@physx@@@physx@@IEAAXI@Z 0000000180055370 f i GuSDF.obj
 0001:00054460       ?recreate@?$PxArray@MV?$PxReflectionAllocator@M@physx@@@physx@@IEAAXI@Z 0000000180055460 f i GuSDF.obj
 0001:00054540       ?recreate@?$PxArray@UBVHNode@Gu@physx@@V?$PxReflectionAllocator@UBVHNode@Gu@physx@@@3@@physx@@IEAAXI@Z 0000000180055540 f i GuSDF.obj
 0001:00054780       ?release@PointOntoTriangleMeshProjector@Gu@physx@@UEAAXXZ 0000000180055780 f i GuSDF.obj
 0001:000547d0       ?reserveInternal@?$PxHashBase@V?$PxPair@$$CBIU?$ClusterApproximationT@MV?$PxVec3T@M@physx@@@Gu@physx@@@physx@@IU?$PxHash@I@2@UGetKey@?$PxHashMapBase@IU?$ClusterApproximationT@MV?$PxVec3T@M@physx@@@Gu@physx@@U?$PxHash@I@3@VPxAllocator@3@@2@VPxAllocator@2@$00@physx@@AEAAXI@Z 00000001800557d0 f i GuSDF.obj
 0001:000549d0       ?reserveInternal@?$PxHashBase@V?$PxPair@$$CBUSortedTriangle@Gu@physx@@H@physx@@USortedTriangle@Gu@2@UTriangleHash@42@UGetKey@?$PxHashMapBase@USortedTriangle@Gu@physx@@HUTriangleHash@23@VPxAllocator@3@@2@VPxAllocator@2@$00@physx@@AEAAXI@Z 00000001800559d0 f i GuSDF.obj
 0001:00054b70       ?reserveInternal@?$PxHashBase@V?$PxPair@$$CB_KH@physx@@_KU?$PxHash@_K@2@UGetKey@?$PxHashMapBase@_KHU?$PxHash@_K@physx@@VPxAllocator@2@@2@VPxAllocator@2@$00@physx@@AEAAXI@Z 0000000180055b70 f i GuSDF.obj
 0001:00054b70       ?reserveInternal@?$PxHashBase@V?$PxPair@$$CB_KI@physx@@_KU?$PxHash@_K@2@UGetKey@?$PxHashMapBase@_KIU?$PxHash@_K@physx@@VPxAllocator@2@@2@VPxAllocator@2@$00@physx@@AEAAXI@Z 0000000180055b70 f i GuSDF.obj
 0001:00054d50       ?resize@?$PxArray@IV?$PxReflectionAllocator@I@physx@@@physx@@QEAAXIAEBI@Z 0000000180055d50 f i GuSDF.obj
 0001:00054e10       ?resize@?$PxArray@MV?$PxReflectionAllocator@M@physx@@@physx@@QEAAXIAEBM@Z 0000000180055e10 f i GuSDF.obj
 0001:00054f20       ?resize@?$PxArray@UBVHNode@Gu@physx@@V?$PxReflectionAllocator@UBVHNode@Gu@physx@@@3@@physx@@QEAAXIAEBUBVHNode@Gu@2@@Z 0000000180055f20 f i GuSDF.obj
 0001:000550a0       ?sampleSDFDirect@DenseSDF@Gu@physx@@QEAAMAEBV?$PxVec3T@M@3@@Z 00000001800560a0 f i GuSDF.obj
 0001:00055240       ?signedVolume@Gu@physx@@YAMPEBV?$PxVec3T@M@2@PEBII1I@Z 0000000180056240 f   GuSDF.obj
 0001:00055780       ?windingNumbers@Gu@physx@@YAXPEBV?$PxVec3T@M@2@PEBIIIIIPEAMV32@3PEAV32@@Z 0000000180056780 f   GuSDF.obj
 0001:00055bd0       ?windingNumbersInsideCheck@Gu@physx@@YAXPEBV?$PxVec3T@M@2@PEBIIIIIPEA_NV32@3PEAV32@@Z 0000000180056bd0 f   GuSDF.obj
 0001:000565a0       ??0MeshData@physx@@QEAA@AEBVPxTriangleMeshDesc@1@@Z 00000001800575a0 f i GuCookingSDF.obj
 0001:00056680       ?GetBounds@MeshData@physx@@QEBAXAEAV?$PxVec3T@M@2@0@Z 0000000180057680 f i GuCookingSDF.obj
 0001:00056920       ?buildSDF@physx@@YA_NAEAVPxTriangleMeshDesc@1@AEAV?$PxArray@MV?$PxReflectionAllocator@M@physx@@@1@AEAV?$PxArray@EV?$PxReflectionAllocator@E@physx@@@1@AEAV?$PxArray@IV?$PxReflectionAllocator@I@physx@@@1@@Z 0000000180057920 f   GuCookingSDF.obj
 0001:00056960       ?convert16To32Bits@physx@@YAXVPxSimpleTriangleMesh@1@AEAV?$PxArray@IV?$PxReflectionAllocator@I@physx@@@1@@Z 0000000180057960 f   GuCookingSDF.obj
 0001:00057980       ?quantizeSparseSDF@physx@@YAXW4Enum@PxSdfBitsPerSubgridPixel@1@AEBV?$PxArray@MV?$PxReflectionAllocator@M@physx@@@1@AEAV?$PxArray@EV?$PxReflectionAllocator@E@physx@@@1@MM@Z 0000000180058980 f   GuCookingSDF.obj
 0001:00057a60       ?recreate@?$PxArray@EV?$PxReflectionAllocator@E@physx@@@physx@@IEAAXI@Z 0000000180058a60 f i GuCookingSDF.obj
 0001:00057b50       ?recreate@?$PxArray@V?$PxVec3T@M@physx@@V?$PxReflectionAllocator@V?$PxVec3T@M@physx@@@2@@physx@@IEAAXI@Z 0000000180058b50 f i GuCookingSDF.obj
 0001:00057cf0       ?resize@?$PxArray@EV?$PxReflectionAllocator@E@physx@@@physx@@QEAAXIAEBE@Z 0000000180058cf0 f i GuCookingSDF.obj
 0001:00057db0       ?resize@?$PxArray@V?$PxVec3T@M@physx@@V?$PxReflectionAllocator@V?$PxVec3T@M@physx@@@2@@physx@@QEAAXIAEBV?$PxVec3T@M@2@@Z 0000000180058db0 f i GuCookingSDF.obj
 0001:00057ea0       ??$gjk@U?$RelativeConvex@UCustomConvexV@@@Gu@physx@@U?$LocalConvex@UCustomConvexV@@@23@@Gu@physx@@YA?AW4GjkStatus@01@AEBU?$RelativeConvex@UCustomConvexV@@@01@AEBU?$LocalConvex@UCustomConvexV@@@01@AEBT__m128@@2AEAT5@333@Z 0000000180058ea0 f i GuGjkQuery.obj
 0001:00058c30       ??$gjkPenetration@U?$RelativeConvex@UCustomConvexV@@@Gu@physx@@U?$LocalConvex@UCustomConvexV@@@23@@Gu@physx@@YA?AW4GjkStatus@01@AEBU?$RelativeConvex@UCustomConvexV@@@01@AEBU?$LocalConvex@UCustomConvexV@@@01@AEBT__m128@@2_NPEIAE4PEIAT5@5AEAEAEAUGjkOutput@01@@Z 0000000180059c30 f i GuGjkQuery.obj
 0001:0005a1a0       ??$gjkPenetration@U?$RelativeConvex@UCustomConvexV@@@Gu@physx@@U?$LocalConvex@UCustomConvexV@@@23@@Gu@physx@@YA?AW4GjkStatus@01@AEBU?$RelativeConvex@UCustomConvexV@@@01@AEBU?$LocalConvex@UCustomConvexV@@@01@AEBT__m128@@2_NPEIAT5@4AEAEAEAUGjkOutput@01@@Z 000000018005b1a0 f i GuGjkQuery.obj
 0001:0005a200       ??$gjkRaycast@U?$RelativeConvex@UCustomConvexV@@@Gu@physx@@U?$LocalConvex@UCustomConvexV@@@23@@Gu@physx@@YA_NAEBU?$RelativeConvex@UCustomConvexV@@@01@AEBU?$LocalConvex@UCustomConvexV@@@01@AEBT__m128@@222AEAT4@33M@Z 000000018005b200 f i GuGjkQuery.obj
 0001:0005af60       ??$gjkRaycast@U?$RelativeConvex@UCustomConvexV@@@Gu@physx@@U?$LocalConvex@UPointConvexV@@@23@@Gu@physx@@YA_NAEBU?$RelativeConvex@UCustomConvexV@@@01@AEBU?$LocalConvex@UPointConvexV@@@01@AEBT__m128@@222AEAT4@33M@Z 000000018005bf60 f i GuGjkQuery.obj
 0001:0005bba0       ?overlap@PxGjkQuery@physx@@SA_NAEBUSupport@12@0AEBV?$PxTransformT@M@2@1@Z 000000018005cba0 f   GuGjkQuery.obj
 0001:0005bf30       ?proximityInfo@PxGjkQuery@physx@@SA_NAEBUSupport@12@0AEBV?$PxTransformT@M@2@1MMAEAV?$PxVec3T@M@2@22AEAM@Z 000000018005cf30 f   GuGjkQuery.obj
 0001:0005ccd0       ?raycast@PxGjkQuery@physx@@SA_NAEBUSupport@12@AEBV?$PxTransformT@M@2@AEBV?$PxVec3T@M@2@2MAEAMAEAV52@4@Z 000000018005dcd0 f   GuGjkQuery.obj
 0001:0005d180       ?support@?$LocalConvex@UCustomConvexV@@@Gu@physx@@UEBA?AT__m128@@AEBT4@@Z 000000018005e180 f i GuGjkQuery.obj
 0001:0005d200       ?support@?$LocalConvex@UCustomConvexV@@@Gu@physx@@UEBA?AT__m128@@AEBT4@AEAH@Z 000000018005e200 f i GuGjkQuery.obj
 0001:0005d280       ?support@?$LocalConvex@UPointConvexV@@@Gu@physx@@UEBA?AT__m128@@AEBT4@@Z 000000018005e280 f i GuGjkQuery.obj
 0001:0005d280       ?supportPoint@?$LocalConvex@UPointConvexV@@@Gu@physx@@UEBA?AT__m128@@H@Z 000000018005e280 f i GuGjkQuery.obj
 0001:0005d290       ?support@?$LocalConvex@UPointConvexV@@@Gu@physx@@UEBA?AT__m128@@AEBT4@AEAH@Z 000000018005e290 f i GuGjkQuery.obj
 0001:0005d2b0       ?support@?$RelativeConvex@UCustomConvexV@@@Gu@physx@@UEBA?AT__m128@@AEBT4@@Z 000000018005e2b0 f i GuGjkQuery.obj
 0001:0005d380       ?support@?$RelativeConvex@UCustomConvexV@@@Gu@physx@@UEBA?AT__m128@@AEBT4@AEAH@Z 000000018005e380 f i GuGjkQuery.obj
 0001:0005d460       ?supportPoint@?$LocalConvex@UCustomConvexV@@@Gu@physx@@UEBA?AT__m128@@H@Z 000000018005e460 f i GuGjkQuery.obj
 0001:0005d4d0       ?supportPoint@?$RelativeConvex@UCustomConvexV@@@Gu@physx@@UEBA?AT__m128@@H@Z 000000018005e4d0 f i GuGjkQuery.obj
 0001:0005d570       ?sweep@PxGjkQuery@physx@@SA_NAEBUSupport@12@0AEBV?$PxTransformT@M@2@1AEBV?$PxVec3T@M@2@MAEAMAEAV52@4@Z 000000018005e570 f   GuGjkQuery.obj
 0001:0005dd30       ??$approximateCluster@MV?$PxVec3T@M@physx@@@Gu@physx@@YAXAEBV?$PxArray@HV?$PxReflectionAllocator@H@physx@@@1@IIPEBIPEBV?$PxVec3T@M@1@AEBV?$PxArray@MV?$PxReflectionAllocator@M@physx@@@1@AEBV?$PxArray@V?$PxVec3T@M@physx@@V?$PxReflectionAllocator@V?$PxVec3T@M@physx@@@2@@1@4AEAU?$ClusterApproximationT@MV?$PxVec3T@M@physx@@@01@@Z 000000018005ed30 f i GuWindingNumber.obj
 0001:0005e370       ??$copy@V?$PxReflectionAllocator@M@physx@@@?$PxArray@MV?$PxReflectionAllocator@M@physx@@@physx@@IEAAXAEBV01@@Z 000000018005f370 f i GuWindingNumber.obj
 0001:0005e3d0       ??$precomputeClusterInformation@MV?$PxVec3T@M@physx@@@Gu@physx@@YAXHPEBUBVHNode@01@PEBIIPEBV?$PxVec3T@M@1@AEAV?$PxHashMap@IU?$ClusterApproximationT@MV?$PxVec3T@M@physx@@@Gu@physx@@U?$PxHash@I@3@VPxAllocator@3@@1@V?$PxArray@MV?$PxReflectionAllocator@M@physx@@@1@AEBV?$PxArray@V?$PxVec3T@M@physx@@V?$PxReflectionAllocator@V?$PxVec3T@M@physx@@@2@@1@5@Z 000000018005f3d0 f i GuWindingNumber.obj
 0001:0005e7b0       ??$precomputeClusterInformation@MV?$PxVec3T@M@physx@@@Gu@physx@@YAXPEBUBVHNode@01@PEBIIPEBV?$PxVec3T@M@1@AEAV?$PxHashMap@IU?$ClusterApproximationT@MV?$PxVec3T@M@physx@@@Gu@physx@@U?$PxHash@I@3@VPxAllocator@3@@1@H@Z 000000018005f7b0 f i GuWindingNumber.obj
 0001:0005ebc0       ??$traverseBVH@V?$WindingNumberTraversalController@MV?$PxVec3T@M@physx@@@Gu@physx@@@Gu@physx@@YAXPEBUBVHNode@01@AEAV?$WindingNumberTraversalController@MV?$PxVec3T@M@physx@@@01@H@Z 000000018005fbc0 f i GuWindingNumber.obj
 0001:0005f110       ?allocate@?$PxArray@HV?$PxReflectionAllocator@H@physx@@@physx@@IEAAPEAHI@Z 0000000180060110 f i GuWindingNumber.obj
 0001:0005f1a0       ?computeWindingNumber@Gu@physx@@YAMAEBV?$PxVec3T@M@2@PEBIIPEBV32@@Z 00000001800601a0 f   GuWindingNumber.obj
 0001:0005f4d0       ?computeWindingNumber@Gu@physx@@YAMPEBUBVHNode@12@AEBV?$PxVec3T@M@2@AEBV?$PxHashMap@IU?$ClusterApproximationT@MV?$PxVec3T@M@physx@@@Gu@physx@@U?$PxHash@I@3@VPxAllocator@3@@2@PEBIPEBV42@@Z 00000001800604d0 f   GuWindingNumber.obj
 0001:0005f540       ?computeWindingNumber@Gu@physx@@YAMPEBUBVHNode@12@AEBV?$PxVec3T@M@2@MAEBV?$PxHashMap@IU?$ClusterApproximationT@MV?$PxVec3T@M@physx@@@Gu@physx@@U?$PxHash@I@3@VPxAllocator@3@@2@PEBIPEBV42@@Z 0000000180060540 f   GuWindingNumber.obj
 0001:0005f5b0       ?copy@?$PxArray@MV?$PxReflectionAllocator@M@physx@@@physx@@KAXPEAM0PEBM@Z 00000001800605b0 f i GuWindingNumber.obj
 0001:0005f610       ?create@?$PxHashBase@V?$PxPair@$$CBIU?$ClusterApproximationT@MV?$PxVec3T@M@physx@@@Gu@physx@@@physx@@IU?$PxHash@I@2@UGetKey@?$PxHashMapBase@IU?$ClusterApproximationT@MV?$PxVec3T@M@physx@@@Gu@physx@@U?$PxHash@I@3@VPxAllocator@3@@2@VPxAllocator@2@$00@physx@@QEAAPEAV?$PxPair@$$CBIU?$ClusterApproximationT@MV?$PxVec3T@M@physx@@@Gu@physx@@@2@AEBIAEA_N@Z 0000000180060610 f i GuWindingNumber.obj
 0001:0005f760       ?growAndPushBack@?$PxArray@HV?$PxReflectionAllocator@H@physx@@@physx@@IEAAAEAHAEBH@Z 0000000180060760 f i GuWindingNumber.obj
 0001:0005f820       ?growAndPushBack@?$PxArray@USection@Gu@physx@@V?$PxReflectionAllocator@USection@Gu@physx@@@3@@physx@@IEAAAEAUSection@Gu@2@AEBU342@@Z 0000000180060820 f i GuWindingNumber.obj
 0001:0005f940       ?precomputeClusterInformation@Gu@physx@@YAXPEBUBVHNode@12@PEBIIPEBV?$PxVec3T@M@2@AEAV?$PxHashMap@IU?$ClusterApproximationT@MV?$PxVec3T@M@physx@@@Gu@physx@@U?$PxHash@I@3@VPxAllocator@3@@2@H@Z 0000000180060940 f   GuWindingNumber.obj
 0001:0005f9e0       ?SweepAnyShapeHeightfield@Gu@physx@@YAMAEBUCCDShape@12@0AEBUPxTransformPadded@2@111MAEAV?$PxVec3T@M@2@2MAEAIM@Z 00000001800609e0 f   GuCCDSweepConvexMesh.obj
 0001:00060f80       ?SweepAnyShapeMesh@Gu@physx@@YAMAEBUCCDShape@12@0AEBUPxTransformPadded@2@111MAEAV?$PxVec3T@M@2@2MAEAIM@Z 0000000180061f80 f   GuCCDSweepConvexMesh.obj
 0001:00062540       ?SweepEstimateAnyShapeHeightfield@Gu@physx@@YAMAEBUCCDShape@12@0MM@Z 0000000180063540 f   GuCCDSweepConvexMesh.obj
 0001:000631b0       ?SweepEstimateAnyShapeMesh@Gu@physx@@YAMAEBUCCDShape@12@0MM@Z 00000001800641b0 f   GuCCDSweepConvexMesh.obj
 0001:00063450       ?allocate@?$PxArray@IV?$PxInlineAllocator@$0BAA@V?$PxReflectionAllocator@I@physx@@@physx@@@physx@@IEAAPEAII@Z 0000000180064450 f i GuCCDSweepConvexMesh.obj
 0001:00063f30       ?growAndPushBack@?$PxArray@IV?$PxInlineAllocator@$0BAA@V?$PxReflectionAllocator@I@physx@@@physx@@@physx@@IEAAAEAIAEBI@Z 0000000180064f30 f i GuCCDSweepConvexMesh.obj
 0001:00064570       ?recreate@?$PxArray@IV?$PxInlineAllocator@$0BAA@V?$PxReflectionAllocator@I@physx@@@physx@@@physx@@IEAAXI@Z 0000000180065570 f i GuCCDSweepConvexMesh.obj
 0001:000646b0       ?resize@?$PxArray@IV?$PxInlineAllocator@$0BAA@V?$PxReflectionAllocator@I@physx@@@physx@@@physx@@QEAAXIAEBI@Z 00000001800656b0 f i GuCCDSweepConvexMesh.obj
 0001:00064780       ?transformBoxOrthonormal@physx@@YA?AVBox@Gu@1@AEBV231@AEBV?$PxTransformT@M@1@@Z 0000000180065780 f i GuCCDSweepConvexMesh.obj
 0001:00064c10       ?UnimplementedSweep@Gu@physx@@YAMAEBUCCDShape@12@0AEBUPxTransformPadded@2@111MAEAV?$PxVec3T@M@2@2MAEAIM@Z 0000000180065c10 f   GuCCDSweepPrimitives.obj
 0001:00068920       ?UnimplementedTriangleSweep@Gu@physx@@YAMAEBVPxGeometry@2@0AEBUPxTransformPadded@2@111MAEAV?$PxVec3T@M@2@2AEBVFastVertex2ShapeScaling@Cm@2@AEAVTriangleV@12@M@Z 0000000180069920 f   GuCCDSweepPrimitives.obj
 0001:00068930       ??$SweepGeomTriangles@VCapsuleV@Gu@physx@@@Gu@physx@@YAMAEBVPxGeometry@1@0AEBUPxTransformPadded@1@111MAEAV?$PxVec3T@M@1@2AEBVFastVertex2ShapeScaling@Cm@1@AEAVTriangleV@01@M@Z 0000000180069930 f i GuCCDSweepPrimitives.obj
 0001:00069060       ??$SweepGeomTriangles@VBoxV@Gu@physx@@@Gu@physx@@YAMAEBVPxGeometry@1@0AEBUPxTransformPadded@1@111MAEAV?$PxVec3T@M@1@2AEBVFastVertex2ShapeScaling@Cm@1@AEAVTriangleV@01@M@Z 000000018006a060 f i GuCCDSweepPrimitives.obj
 0001:000697b0       ??$SweepGeomTriangles@VConvexHullV@Gu@physx@@@Gu@physx@@YAMAEBVPxGeometry@1@0AEBUPxTransformPadded@1@111MAEAV?$PxVec3T@M@1@2AEBVFastVertex2ShapeScaling@Cm@1@AEAVTriangleV@01@M@Z 000000018006a7b0 f i GuCCDSweepPrimitives.obj
 0001:0006a290       ?supportPoint@?$RelativeConvex@VCapsuleV@Gu@physx@@@Gu@physx@@UEBA?AT__m128@@H@Z 000000018006b290 f i GuCCDSweepPrimitives.obj
 0001:0006a2f0       ?support@?$RelativeConvex@VCapsuleV@Gu@physx@@@Gu@physx@@UEBA?AT__m128@@AEBT4@@Z 000000018006b2f0 f i GuCCDSweepPrimitives.obj
 0001:0006a3a0       ?support@?$RelativeConvex@VCapsuleV@Gu@physx@@@Gu@physx@@UEBA?AT__m128@@AEBT4@AEAH@Z 000000018006b3a0 f i GuCCDSweepPrimitives.obj
 0001:0006a460       ?supportPoint@?$RelativeConvex@VTriangleV@Gu@physx@@@Gu@physx@@UEBA?AT__m128@@H@Z 000000018006b460 f i GuCCDSweepPrimitives.obj
 0001:0006a4b0       ?support@?$RelativeConvex@VTriangleV@Gu@physx@@@Gu@physx@@UEBA?AT__m128@@AEBT4@@Z 000000018006b4b0 f i GuCCDSweepPrimitives.obj
 0001:0006a5b0       ?support@?$RelativeConvex@VTriangleV@Gu@physx@@@Gu@physx@@UEBA?AT__m128@@AEBT4@AEAH@Z 000000018006b5b0 f i GuCCDSweepPrimitives.obj
 0001:0006a6f0       ??$gjkPenetration@U?$RelativeConvex@VCapsuleV@Gu@physx@@@Gu@physx@@U?$LocalConvex@VBoxV@Gu@physx@@@23@@Gu@physx@@YA?AW4GjkStatus@01@AEBU?$RelativeConvex@VCapsuleV@Gu@physx@@@01@AEBU?$LocalConvex@VBoxV@Gu@physx@@@01@AEBT__m128@@2_NPEIAE4AEAEAEAUGjkOutput@01@@Z 000000018006b6f0 f i GuCCDSweepPrimitives.obj
 0001:0006a760       ??$gjkPenetration@U?$RelativeConvex@VCapsuleV@Gu@physx@@@Gu@physx@@U?$LocalConvex@VBoxV@Gu@physx@@@23@@Gu@physx@@YA?AW4GjkStatus@01@AEBU?$RelativeConvex@VCapsuleV@Gu@physx@@@01@AEBU?$LocalConvex@VBoxV@Gu@physx@@@01@AEBT__m128@@2_NPEIAE4PEIAT5@5AEAEAEAUGjkOutput@01@@Z 000000018006b760 f i GuCCDSweepPrimitives.obj
 0001:0006bc60       ??$gjkPenetration@U?$RelativeConvex@VCapsuleV@Gu@physx@@@Gu@physx@@U?$LocalConvex@VCapsuleV@Gu@physx@@@23@@Gu@physx@@YA?AW4GjkStatus@01@AEBU?$RelativeConvex@VCapsuleV@Gu@physx@@@01@AEBU?$LocalConvex@VCapsuleV@Gu@physx@@@01@AEBT__m128@@2_NPEIAE4AEAEAEAUGjkOutput@01@@Z 000000018006cc60 f i GuCCDSweepPrimitives.obj
 0001:0006bcd0       ??$gjkPenetration@U?$RelativeConvex@VCapsuleV@Gu@physx@@@Gu@physx@@U?$LocalConvex@VCapsuleV@Gu@physx@@@23@@Gu@physx@@YA?AW4GjkStatus@01@AEBU?$RelativeConvex@VCapsuleV@Gu@physx@@@01@AEBU?$LocalConvex@VCapsuleV@Gu@physx@@@01@AEBT__m128@@2_NPEIAE4PEIAT5@5AEAEAEAUGjkOutput@01@@Z 000000018006ccd0 f i GuCCDSweepPrimitives.obj
 0001:0006d1c0       ??$gjkPenetration@U?$RelativeConvex@VCapsuleV@Gu@physx@@@Gu@physx@@U?$LocalConvex@VConvexHullV@Gu@physx@@@23@@Gu@physx@@YA?AW4GjkStatus@01@AEBU?$RelativeConvex@VCapsuleV@Gu@physx@@@01@AEBU?$LocalConvex@VConvexHullV@Gu@physx@@@01@AEBT__m128@@2_NPEIAE4AEAEAEAUGjkOutput@01@@Z 000000018006e1c0 f i GuCCDSweepPrimitives.obj
 0001:0006d230       ??$gjkPenetration@U?$RelativeConvex@VCapsuleV@Gu@physx@@@Gu@physx@@U?$LocalConvex@VConvexHullV@Gu@physx@@@23@@Gu@physx@@YA?AW4GjkStatus@01@AEBU?$RelativeConvex@VCapsuleV@Gu@physx@@@01@AEBU?$LocalConvex@VConvexHullV@Gu@physx@@@01@AEBT__m128@@2_NPEIAE4PEIAT5@5AEAEAEAUGjkOutput@01@@Z 000000018006e230 f i GuCCDSweepPrimitives.obj
 0001:0006e7e0       ??$gjkPenetration@U?$RelativeConvex@VTriangleV@Gu@physx@@@Gu@physx@@U?$LocalConvex@VBoxV@Gu@physx@@@23@@Gu@physx@@YA?AW4GjkStatus@01@AEBU?$RelativeConvex@VTriangleV@Gu@physx@@@01@AEBU?$LocalConvex@VBoxV@Gu@physx@@@01@AEBT__m128@@2_NPEIAE4AEAEAEAUGjkOutput@01@@Z 000000018006f7e0 f i GuCCDSweepPrimitives.obj
 0001:0006e850       ??$gjkPenetration@U?$RelativeConvex@VTriangleV@Gu@physx@@@Gu@physx@@U?$LocalConvex@VBoxV@Gu@physx@@@23@@Gu@physx@@YA?AW4GjkStatus@01@AEBU?$RelativeConvex@VTriangleV@Gu@physx@@@01@AEBU?$LocalConvex@VBoxV@Gu@physx@@@01@AEBT__m128@@2_NPEIAE4PEIAT5@5AEAEAEAUGjkOutput@01@@Z 000000018006f850 f i GuCCDSweepPrimitives.obj
 0001:0006fd70       ??$gjkPenetration@U?$RelativeConvex@VTriangleV@Gu@physx@@@Gu@physx@@U?$LocalConvex@VCapsuleV@Gu@physx@@@23@@Gu@physx@@YA?AW4GjkStatus@01@AEBU?$RelativeConvex@VTriangleV@Gu@physx@@@01@AEBU?$LocalConvex@VCapsuleV@Gu@physx@@@01@AEBT__m128@@2_NPEIAE4AEAEAEAUGjkOutput@01@@Z 0000000180070d70 f i GuCCDSweepPrimitives.obj
 0001:0006fde0       ??$gjkPenetration@U?$RelativeConvex@VTriangleV@Gu@physx@@@Gu@physx@@U?$LocalConvex@VCapsuleV@Gu@physx@@@23@@Gu@physx@@YA?AW4GjkStatus@01@AEBU?$RelativeConvex@VTriangleV@Gu@physx@@@01@AEBU?$LocalConvex@VCapsuleV@Gu@physx@@@01@AEBT__m128@@2_NPEIAE4PEIAT5@5AEAEAEAUGjkOutput@01@@Z 0000000180070de0 f i GuCCDSweepPrimitives.obj
 0001:00071300       ??$gjkPenetration@U?$RelativeConvex@VTriangleV@Gu@physx@@@Gu@physx@@U?$LocalConvex@VConvexHullV@Gu@physx@@@23@@Gu@physx@@YA?AW4GjkStatus@01@AEBU?$RelativeConvex@VTriangleV@Gu@physx@@@01@AEBU?$LocalConvex@VConvexHullV@Gu@physx@@@01@AEBT__m128@@2_NPEIAE4AEAEAEAUGjkOutput@01@@Z 0000000180072300 f i GuCCDSweepPrimitives.obj
 0001:00071370       ??$gjkPenetration@U?$RelativeConvex@VTriangleV@Gu@physx@@@Gu@physx@@U?$LocalConvex@VConvexHullV@Gu@physx@@@23@@Gu@physx@@YA?AW4GjkStatus@01@AEBU?$RelativeConvex@VTriangleV@Gu@physx@@@01@AEBU?$LocalConvex@VConvexHullV@Gu@physx@@@01@AEBT__m128@@2_NPEIAE4PEIAT5@5AEAEAEAUGjkOutput@01@@Z 0000000180072370 f i GuCCDSweepPrimitives.obj
 0001:00072930       ??$gjkRaycast@U?$RelativeConvex@VCapsuleV@Gu@physx@@@Gu@physx@@U?$LocalConvex@VBoxV@Gu@physx@@@23@@Gu@physx@@YA_NAEBU?$RelativeConvex@VCapsuleV@Gu@physx@@@01@AEBU?$LocalConvex@VBoxV@Gu@physx@@@01@AEBT__m128@@222AEAT4@33M@Z 0000000180073930 f i GuCCDSweepPrimitives.obj
 0001:000735a0       ??$gjkRaycast@U?$RelativeConvex@VCapsuleV@Gu@physx@@@Gu@physx@@U?$LocalConvex@VCapsuleV@Gu@physx@@@23@@Gu@physx@@YA_NAEBU?$RelativeConvex@VCapsuleV@Gu@physx@@@01@AEBU?$LocalConvex@VCapsuleV@Gu@physx@@@01@AEBT__m128@@222AEAT4@33M@Z 00000001800745a0 f i GuCCDSweepPrimitives.obj
 0001:00074290       ??$gjkRaycast@U?$RelativeConvex@VCapsuleV@Gu@physx@@@Gu@physx@@U?$LocalConvex@VConvexHullV@Gu@physx@@@23@@Gu@physx@@YA_NAEBU?$RelativeConvex@VCapsuleV@Gu@physx@@@01@AEBU?$LocalConvex@VConvexHullV@Gu@physx@@@01@AEBT__m128@@222AEAT4@33M@Z 0000000180075290 f i GuCCDSweepPrimitives.obj
 0001:00075090       ??$gjkRaycast@U?$RelativeConvex@VTriangleV@Gu@physx@@@Gu@physx@@U?$LocalConvex@VBoxV@Gu@physx@@@23@@Gu@physx@@YA_NAEBU?$RelativeConvex@VTriangleV@Gu@physx@@@01@AEBU?$LocalConvex@VBoxV@Gu@physx@@@01@AEBT__m128@@222AEAT4@33M@Z 0000000180076090 f i GuCCDSweepPrimitives.obj
 0001:00075da0       ??$gjkRaycast@U?$RelativeConvex@VTriangleV@Gu@physx@@@Gu@physx@@U?$LocalConvex@VCapsuleV@Gu@physx@@@23@@Gu@physx@@YA_NAEBU?$RelativeConvex@VTriangleV@Gu@physx@@@01@AEBU?$LocalConvex@VCapsuleV@Gu@physx@@@01@AEBT__m128@@222AEAT4@33M@Z 0000000180076da0 f i GuCCDSweepPrimitives.obj
 0001:00076b20       ??$gjkRaycast@U?$RelativeConvex@VTriangleV@Gu@physx@@@Gu@physx@@U?$LocalConvex@VConvexHullV@Gu@physx@@@23@@Gu@physx@@YA_NAEBU?$RelativeConvex@VTriangleV@Gu@physx@@@01@AEBU?$LocalConvex@VConvexHullV@Gu@physx@@@01@AEBT__m128@@222AEAT4@33M@Z 0000000180077b20 f i GuCCDSweepPrimitives.obj
 0001:000779e0       ?SweepShapeShape@Gu@physx@@YAMAEBUCCDShape@12@0AEBUPxTransformPadded@2@111MAEAV?$PxVec3T@M@2@2MAEAIM@Z 00000001800789e0 f   GuCCDSweepPrimitives.obj
 0001:00077a00       ?SweepShapeTriangle@Gu@physx@@YAMAEBVPxGeometry@2@0AEBUPxTransformPadded@2@111MAEAV?$PxVec3T@M@2@2AEBVFastVertex2ShapeScaling@Cm@2@AEAVTriangleV@12@M@Z 0000000180078a00 f   GuCCDSweepPrimitives.obj
 0001:00077a20       ?barycentricCoordinates@Gu@physx@@YAXAEBT__m128@@000AEAT3@1@Z 0000000180078a20 f   GuBarycentricCoordinates.obj
 0001:00077b60       ?barycentricCoordinates@Gu@physx@@YAXAEBT__m128@@00AEAT3@@Z 0000000180078b60 f   GuBarycentricCoordinates.obj
 0001:00077bd0       ??$?_UV?$PxReflectionAllocator@VAdjTriangle@Gu@physx@@@physx@@@PxUserAllocated@physx@@SAPEAX_KV?$PxReflectionAllocator@VAdjTriangle@Gu@physx@@@1@PEBDH@Z 0000000180078bd0 f i GuAdjacencies.obj
 0001:00077cb0       ??0AdjacenciesBuilder@Gu@physx@@QEAA@XZ 0000000180078cb0 f   GuAdjacencies.obj
 0001:00077cc0       ??1AdjacenciesBuilder@Gu@physx@@QEAA@XZ 0000000180078cc0 f   GuAdjacencies.obj
 0001:00077e10       ?ComputeNbBoundaryEdges@Adjacencies@Gu@physx@@QEBAIXZ 0000000180078e10 f   GuAdjacencies.obj
 0001:000780a0       ?Init@AdjacenciesBuilder@Gu@physx@@QEAA_NAEBUADJACENCIESCREATE@23@@Z 00000001800790a0 f   GuAdjacencies.obj
 0001:00078600       ??0EdgeList@Gu@physx@@QEAA@XZ 0000000180079600 f   GuEdgeList.obj
 0001:00078620       ??1EdgeList@Gu@physx@@QEAA@XZ 0000000180079620 f   GuEdgeList.obj
 0001:000786d0       ?computeActiveEdges@EdgeList@Gu@physx@@AEAA_NIPEBIPEBGPEBV?$PxVec3T@M@3@M@Z 00000001800796d0 f   GuEdgeList.obj
 0001:00079a50       ?createEdgesToFaces@EdgeList@Gu@physx@@AEAA_NIPEBIPEBG@Z 000000018007aa50 f   GuEdgeList.obj
 0001:00079cb0       ?createFacesToEdges@EdgeList@Gu@physx@@AEAA_NIPEBIPEBG@Z 000000018007acb0 f   GuEdgeList.obj
 0001:0007a080       ?init@EdgeList@Gu@physx@@QEAA_NAEBUEDGELISTCREATE@23@@Z 000000018007b080 f   GuEdgeList.obj
 0001:0007a1b0       ?addAxis@SeparatingAxes@Gu@physx@@QEAA_NAEBV?$PxVec3T@M@3@@Z 000000018007b1b0 f   GuSeparatingAxes.obj
 0001:0007a270       ??$kmeans_cluster@V?$PxVec3T@M@physx@@M@@YAIPEBV?$PxVec3T@M@physx@@IIPEAV01@PEAIMM@Z 000000018007b270 f i GuQuantizer.obj
 0001:0007ac30       ??_EQuantizer@Gu@physx@@MEAAPEAXI@Z 000000018007bc30 f i GuQuantizer.obj
 0001:0007ac30       ??_GQuantizer@Gu@physx@@MEAAPEAXI@Z 000000018007bc30 f i GuQuantizer.obj
 0001:0007ac60       ??_EQuantizerImpl@@EEAAPEAXI@Z 000000018007bc60 f i GuQuantizer.obj
 0001:0007ac60       ??_GQuantizerImpl@@EEAAPEAXI@Z 000000018007bc60 f i GuQuantizer.obj
 0001:0007ad30       ?createQuantizer@Gu@physx@@YAPEAVQuantizer@12@XZ 000000018007bd30 f   GuQuantizer.obj
 0001:0007ade0       ?getDenormalizeCenter@QuantizerImpl@@UEBAAEBV?$PxVec3T@M@physx@@XZ 000000018007bde0 f i GuQuantizer.obj
 0001:0007adf0       ?getCurrentAABBTreeBounds@PruningPool@Gu@physx@@QEBAAEBVAABBTreeBounds@23@XZ 000000018007bdf0 f i GuIncrementalAABBPrunerCore.obj
 0001:0007adf0       ?getDenormalizeScale@QuantizerImpl@@UEBAAEBV?$PxVec3T@M@physx@@XZ 000000018007bdf0 f i GuQuantizer.obj
 0001:0007ae00       ?kmeansQuantize3D@QuantizerImpl@@UEAAPEBV?$PxVec3T@M@physx@@IPEBV23@I_NIAEAI@Z 000000018007be00 f i GuQuantizer.obj
 0001:0007b070       ?normalizeInput@QuantizerImpl@@AEAAXIPEBV?$PxVec3T@M@physx@@I@Z 000000018007c070 f i GuQuantizer.obj
 0001:0007b4c0       ?release@QuantizerImpl@@UEAAXXZ 000000018007c4c0 f i GuQuantizer.obj
 0001:0007b4e0       ??0MeshCleaner@Gu@physx@@QEAA@IPEBV?$PxVec3T@M@2@IPEBIMM@Z 000000018007c4e0 f   GuMeshCleaner.obj
 0001:0007beb0       ??1MeshCleaner@Gu@physx@@QEAA@XZ 000000018007ceb0 f   GuMeshCleaner.obj
 0001:0007bf40       ??0ReducedVertexCloud@Gu@physx@@QEAA@PEBV?$PxVec3T@M@2@I@Z 000000018007cf40 f   GuVertexReducer.obj
 0001:0007bf60       ??1ReducedVertexCloud@Gu@physx@@QEAA@XZ 000000018007cf60 f   GuVertexReducer.obj
 0001:0007bf70       ?clean@ReducedVertexCloud@Gu@physx@@QEAAAEAV123@XZ 000000018007cf70 f   GuVertexReducer.obj
 0001:0007bfe0       ?reduce@ReducedVertexCloud@Gu@physx@@QEAA_NPEAUREDUCEDCLOUD@23@@Z 000000018007cfe0 f   GuVertexReducer.obj
 0001:0007c280       ??$copy@V?$PxReflectionAllocator@I@physx@@@?$PxArray@IV?$PxReflectionAllocator@I@physx@@@physx@@IEAAXAEBV01@@Z 000000018007d280 f i GuMeshAnalysis.obj
 0001:0007c2f0       ?buildConsistentTriangleOrientationMap@MeshAnalyzer@Gu@physx@@SA_NPEBU?$IndexedTriangleT@H@23@IAEAV?$PxArray@_NV?$PxReflectionAllocator@_N@physx@@@3@AEAV?$PxHashMap@_KHU?$PxHash@_K@physx@@VPxAllocator@2@@3@AEAV?$PxArray@V?$PxArray@IV?$PxReflectionAllocator@I@physx@@@physx@@V?$PxReflectionAllocator@V?$PxArray@IV?$PxReflectionAllocator@I@physx@@@physx@@@2@@3@@Z 000000018007d2f0 f   GuMeshAnalysis.obj
 0001:0007c6a0       ?buildTriangleAdjacency@MeshAnalyzer@Gu@physx@@SA_NPEBU?$IndexedTriangleT@H@23@IAEAV?$PxArray@HV?$PxReflectionAllocator@H@physx@@@3@AEAV?$PxHashMap@_KHU?$PxHash@_K@physx@@VPxAllocator@2@@3@@Z 000000018007d6a0 f   GuMeshAnalysis.obj
 0001:0007c9a0       ?checkConsistentTriangleOrientation@MeshAnalyzer@Gu@physx@@SA_NPEBU?$IndexedTriangleT@H@23@I@Z 000000018007d9a0 f   GuMeshAnalysis.obj
 0001:0007caf0       ?checkMeshWatertightness@MeshAnalyzer@Gu@physx@@SA_NPEBU?$IndexedTriangleT@H@23@I_N@Z 000000018007daf0 f   GuMeshAnalysis.obj
 0001:0007ccd0       ?destroy@?$PxArray@V?$PxArray@IV?$PxReflectionAllocator@I@physx@@@physx@@V?$PxReflectionAllocator@V?$PxArray@IV?$PxReflectionAllocator@I@physx@@@physx@@@2@@physx@@KAXPEAV?$PxArray@IV?$PxReflectionAllocator@I@physx@@@2@0@Z 000000018007dcd0 f i GuMeshAnalysis.obj
 0001:0007cd40       ?erase@?$PxHashBase@V?$PxPair@$$CB_KH@physx@@_KU?$PxHash@_K@2@UGetKey@?$PxHashMapBase@_KHU?$PxHash@_K@physx@@VPxAllocator@2@@2@VPxAllocator@2@$00@physx@@QEAA_NAEB_K@Z 000000018007dd40 f i GuMeshAnalysis.obj
 0001:0007cef0       ?growAndPushBack@?$PxArray@V?$PxArray@IV?$PxReflectionAllocator@I@physx@@@physx@@V?$PxReflectionAllocator@V?$PxArray@IV?$PxReflectionAllocator@I@physx@@@physx@@@2@@physx@@IEAAAEAV?$PxArray@IV?$PxReflectionAllocator@I@physx@@@2@AEBV32@@Z 000000018007def0 f i GuMeshAnalysis.obj
 0001:0007d040       ?makeTriOrientationConsistent@MeshAnalyzer@Gu@physx@@SA_NPEAU?$IndexedTriangleT@H@23@I_N@Z 000000018007e040 f   GuMeshAnalysis.obj
 0001:0007d1c0       ?recreate@?$PxArray@_NV?$PxReflectionAllocator@_N@physx@@@physx@@IEAAXI@Z 000000018007e1c0 f i GuMeshAnalysis.obj
 0001:0007d2b0       ?resize@?$PxArray@HV?$PxReflectionAllocator@H@physx@@@physx@@QEAAXIAEBH@Z 000000018007e2b0 f i GuMeshAnalysis.obj
 0001:0007d370       ?resize@?$PxArray@_NV?$PxReflectionAllocator@_N@physx@@@physx@@QEAAXIAEB_N@Z 000000018007e370 f i GuMeshAnalysis.obj
 0001:0007d430       ?contactBoxBox@Gu@physx@@YA_NAEBVPxGeometry@2@0AEBUPxTransformPadded@2@1AEBUNarrowPhaseParams@12@AEAUCache@12@AEAVPxContactBuffer@2@PEAVPxRenderOutput@2@@Z 000000018007e430 f   GuContactBoxBox.obj
 0001:00081270       ?contactCapsuleBox@Gu@physx@@YA_NAEBVPxGeometry@2@0AEBUPxTransformPadded@2@1AEBUNarrowPhaseParams@12@AEAUCache@12@AEAVPxContactBuffer@2@PEAVPxRenderOutput@2@@Z 0000000180082270 f   GuContactCapsuleBox.obj
 0001:00081a80       ?contactCapsuleCapsule@Gu@physx@@YA_NAEBVPxGeometry@2@0AEBUPxTransformPadded@2@1AEBUNarrowPhaseParams@12@AEAUCache@12@AEAVPxContactBuffer@2@PEAVPxRenderOutput@2@@Z 0000000180082a80 f   GuContactCapsuleCapsule.obj
 0001:00084470       ?contactCapsuleConvex@Gu@physx@@YA_NAEBVPxGeometry@2@0AEBUPxTransformPadded@2@1AEBUNarrowPhaseParams@12@AEAUCache@12@AEAVPxContactBuffer@2@PEAVPxRenderOutput@2@@Z 0000000180085470 f   GuContactCapsuleConvex.obj
 0001:000869a0       ?contactCapsuleHeightfield@Gu@physx@@YA_NAEBVPxGeometry@2@0AEBUPxTransformPadded@2@1AEBUNarrowPhaseParams@12@AEAUCache@12@AEAVPxContactBuffer@2@PEAVPxRenderOutput@2@@Z 00000001800879a0 f   GuContactCapsuleMesh.obj
 0001:000871e0       ?contactCapsuleMesh@Gu@physx@@YA_NAEBVPxGeometry@2@0AEBUPxTransformPadded@2@1AEBUNarrowPhaseParams@12@AEAUCache@12@AEAVPxContactBuffer@2@PEAVPxRenderOutput@2@@Z 00000001800881e0 f   GuContactCapsuleMesh.obj
 0001:00088360       ?transformQueryBounds@FastVertex2ShapeScaling@Cm@physx@@QEBAXAEAV?$PxVec3T@M@3@0AEAV?$PxMat33T@M@3@@Z 0000000180089360 f i GuContactCapsuleMesh.obj
 0001:0008c8c0       ?contactBoxConvex@Gu@physx@@YA_NAEBVPxGeometry@2@0AEBUPxTransformPadded@2@1AEBUNarrowPhaseParams@12@AEAUCache@12@AEAVPxContactBuffer@2@PEAVPxRenderOutput@2@@Z 000000018008d8c0 f   GuContactConvexConvex.obj
 0001:0008ca90       ?contactConvexConvex@Gu@physx@@YA_NAEBVPxGeometry@2@0AEBUPxTransformPadded@2@1AEBUNarrowPhaseParams@12@AEAUCache@12@AEAVPxContactBuffer@2@PEAVPxRenderOutput@2@@Z 000000018008da90 f   GuContactConvexConvex.obj
 0001:0008cf10       ?transformPlaneToShapeSpace@FastVertex2ShapeScaling@Cm@physx@@QEBAXAEBV?$PxVec3T@M@3@MAEAV43@AEAM@Z 000000018008df10 f i GuContactConvexConvex.obj
 0001:0008d3c0       ??_EConvexMeshContactGenerationCallback@@UEAAPEAXI@Z 000000018008e3c0 f i GuContactConvexMesh.obj
 0001:0008d3c0       ??_GConvexMeshContactGenerationCallback@@UEAAPEAXI@Z 000000018008e3c0 f i GuContactConvexMesh.obj
 0001:0008d420       ?addData@?$CacheMap@UCachedEdge@Gu@physx@@$0IA@@Gu@physx@@QEAA_NAEBUCachedEdge@23@@Z 000000018008e420 f i GuContactConvexMesh.obj
 0001:0008d500       ?addData@?$CacheMap@UCachedVertex@Gu@physx@@$0IA@@Gu@physx@@QEAA_NAEBUCachedVertex@23@@Z 000000018008e500 f i GuContactConvexMesh.obj
 0001:0008d590       ?allocate@?$PxArray@IV?$PxInlineAllocator@$0BBAA@V?$PxReflectionAllocator@I@physx@@@physx@@@physx@@IEAAPEAII@Z 000000018008e590 f i GuContactConvexMesh.obj
 0001:0008d990       ?contactBoxHeightfield@Gu@physx@@YA_NAEBVPxGeometry@2@0AEBUPxTransformPadded@2@1AEBUNarrowPhaseParams@12@AEAUCache@12@AEAVPxContactBuffer@2@PEAVPxRenderOutput@2@@Z 000000018008e990 f   GuContactConvexMesh.obj
 0001:0008db10       ?contactBoxMesh@Gu@physx@@YA_NAEBVPxGeometry@2@0AEBUPxTransformPadded@2@1AEBUNarrowPhaseParams@12@AEAUCache@12@AEAVPxContactBuffer@2@PEAVPxRenderOutput@2@@Z 000000018008eb10 f   GuContactConvexMesh.obj
 0001:0008dce0       ?contactConvexHeightfield@Gu@physx@@YA_NAEBVPxGeometry@2@0AEBUPxTransformPadded@2@1AEBUNarrowPhaseParams@12@AEAUCache@12@AEAVPxContactBuffer@2@PEAVPxRenderOutput@2@@Z 000000018008ece0 f   GuContactConvexMesh.obj
 0001:0008de30       ?contactConvexMesh@Gu@physx@@YA_NAEBVPxGeometry@2@0AEBUPxTransformPadded@2@1AEBUNarrowPhaseParams@12@AEAUCache@12@AEAVPxContactBuffer@2@PEAVPxRenderOutput@2@@Z 000000018008ee30 f   GuContactConvexMesh.obj
 0001:00091550       ?processHit@ConvexMeshContactGenerationCallback@@UEAA_NAEBUPxGeomRaycastHit@physx@@AEBV?$PxVec3T@M@3@11AEAMPEBI@Z 0000000180092550 f i GuContactConvexMesh.obj
 0001:00091f10       ?recreate@?$PxArray@IV?$PxInlineAllocator@$0BBAA@V?$PxReflectionAllocator@I@physx@@@physx@@@physx@@IEAAXI@Z 0000000180092f10 f i GuContactConvexMesh.obj
 0001:000933b0       ?contactPlaneBox@Gu@physx@@YA_NAEBVPxGeometry@2@0AEBUPxTransformPadded@2@1AEBUNarrowPhaseParams@12@AEAUCache@12@AEAVPxContactBuffer@2@PEAVPxRenderOutput@2@@Z 00000001800943b0 f   GuContactPlaneBox.obj
 0001:00094050       ?contactPlaneCapsule@Gu@physx@@YA_NAEBVPxGeometry@2@0AEBUPxTransformPadded@2@1AEBUNarrowPhaseParams@12@AEAUCache@12@AEAVPxContactBuffer@2@PEAVPxRenderOutput@2@@Z 0000000180095050 f   GuContactPlaneCapsule.obj
 0001:00094720       ?contactPlaneConvex@Gu@physx@@YA_NAEBVPxGeometry@2@0AEBUPxTransformPadded@2@1AEBUNarrowPhaseParams@12@AEAUCache@12@AEAVPxContactBuffer@2@PEAVPxRenderOutput@2@@Z 0000000180095720 f   GuContactPlaneConvex.obj
 0001:00096450       ?contactPolygonPolygonExt@Gu@physx@@YA_NIPEBV?$PxVec3T@M@2@PEBEAEBV?$PxMat34T@M@2@AEBVPxPlane@2@AEBV?$PxMat33T@M@2@I01234AEBV32@22IIAEAVPxContactBuffer@2@_N5M@Z 0000000180097450 f   GuContactPolygonPolygon.obj
 0001:00097bc0       ?findRotationMatrixFromZ@Gu@physx@@YA?AV?$PxMat33T@M@2@AEBV?$PxVec3T@M@2@@Z 0000000180098bc0 f   GuContactPolygonPolygon.obj
 0001:000985e0       ?contactSphereBox@Gu@physx@@YA_NAEBVPxGeometry@2@0AEBUPxTransformPadded@2@1AEBUNarrowPhaseParams@12@AEAUCache@12@AEAVPxContactBuffer@2@PEAVPxRenderOutput@2@@Z 00000001800995e0 f   GuContactSphereBox.obj
 0001:00098ba0       ?contactSphereCapsule@Gu@physx@@YA_NAEBVPxGeometry@2@0AEBUPxTransformPadded@2@1AEBUNarrowPhaseParams@12@AEAUCache@12@AEAVPxContactBuffer@2@PEAVPxRenderOutput@2@@Z 0000000180099ba0 f   GuContactSphereCapsule.obj
 0001:00099980       ?contactSphereHeightfield@Gu@physx@@YA_NAEBVPxGeometry@2@0AEBUPxTransformPadded@2@1AEBUNarrowPhaseParams@12@AEAUCache@12@AEAVPxContactBuffer@2@PEAVPxRenderOutput@2@@Z 000000018009a980 f   GuContactSphereMesh.obj
 0001:0009a370       ?contactSphereMesh@Gu@physx@@YA_NAEBVPxGeometry@2@0AEBUPxTransformPadded@2@1AEBUNarrowPhaseParams@12@AEAUCache@12@AEAVPxContactBuffer@2@PEAVPxRenderOutput@2@@Z 000000018009b370 f   GuContactSphereMesh.obj
 0001:0009c690       ?contactSpherePlane@Gu@physx@@YA_NAEBVPxGeometry@2@0AEBUPxTransformPadded@2@1AEBUNarrowPhaseParams@12@AEAUCache@12@AEAVPxContactBuffer@2@PEAVPxRenderOutput@2@@Z 000000018009d690 f   GuContactSpherePlane.obj
 0001:0009c8a0       ?contactSphereSphere@Gu@physx@@YA_NAEBVPxGeometry@2@0AEBUPxTransformPadded@2@1AEBUNarrowPhaseParams@12@AEAUCache@12@AEAVPxContactBuffer@2@PEAVPxRenderOutput@2@@Z 000000018009d8a0 f   GuContactSphereSphere.obj
 0001:0009ca20       ?contactCustomGeometryGeometry@Gu@physx@@YA_NAEBVPxGeometry@2@0AEBUPxTransformPadded@2@1AEBUNarrowPhaseParams@12@AEAUCache@12@AEAVPxContactBuffer@2@PEAVPxRenderOutput@2@@Z 000000018009da20 f   GuContactCustomGeometry.obj
 0001:0009ca80       ?contactGeometryCustomGeometry@Gu@physx@@YA_NAEBVPxGeometry@2@0AEBUPxTransformPadded@2@1AEBUNarrowPhaseParams@12@AEAUCache@12@AEAVPxContactBuffer@2@PEAVPxRenderOutput@2@@Z 000000018009da80 f   GuContactCustomGeometry.obj
 0001:0009cb40       ?selectNormal@Gu@physx@@YA_NEMM@Z 000000018009db40 f   GuFeatureCode.obj
 0001:0009cbc0       ??0BigConvexData@physx@@QEAA@XZ 000000018009dbc0 f   GuBigConvexData.obj
 0001:0009cbe0       ??1BigConvexData@physx@@QEAA@XZ 000000018009dbe0 f   GuBigConvexData.obj
 0001:0009cca0       ?ComputeNearestOffset@BigConvexData@physx@@QEBAIAEBV?$PxVec3T@M@2@@Z 000000018009dca0 f   GuBigConvexData.obj
 0001:0009cda0       ?ComputeOffset@BigConvexData@physx@@QEBAIAEBV?$PxVec3T@M@2@@Z 000000018009dda0 f   GuBigConvexData.obj
 0001:0009cea0       ?CreateOffsets@BigConvexData@physx@@IEAAXXZ 000000018009dea0 f   GuBigConvexData.obj
 0001:0009cef0       ?Load@BigConvexData@physx@@QEAA_NAEAVPxInputStream@2@@Z 000000018009def0 f   GuBigConvexData.obj
 0001:0009d000       ?VLoad@BigConvexData@physx@@IEAA_NAEAVPxInputStream@2@@Z 000000018009e000 f   GuBigConvexData.obj
 0001:0009d1a0       ?exportExtraData@BigConvexData@physx@@QEAAXAEAVPxSerializationContext@2@@Z 000000018009e1a0 f   GuBigConvexData.obj
 0001:0009d220       ?importExtraData@BigConvexData@physx@@QEAAXAEAVPxDeserializationContext@2@@Z 000000018009e220 f   GuBigConvexData.obj
 0001:0009d290       ?findUniqueConvexEdges@Gu@physx@@YAIIPEIAUConvexEdge@12@IPEIBUHullPolygonData@12@PEIBE@Z 000000018009e290 f   GuConvexHelper.obj
 0001:0009d3d0       ?getConvexData@Gu@physx@@YA_NAEBVPxConvexMeshGeometry@2@AEAVFastVertex2ShapeScaling@Cm@2@AEAVPxBounds3@2@AEAUPolygonalData@12@@Z 000000018009e3d0 f   GuConvexHelper.obj
 0001:0009d660       ?getScaledConvex@Gu@physx@@YAXAEAPEAV?$PxVec3T@M@2@AEAPEAEPEAV32@PEAE_NPEBV32@PEBEIAEBVFastVertex2ShapeScaling@Cm@2@@Z 000000018009e660 f   GuConvexHelper.obj
 0001:0009d790       ??0ConvexMesh@Gu@physx@@QEAA@PEAVMeshFactory@12@@Z 000000018009e790 f   GuConvexMesh.obj
 0001:0009d820       ??0ConvexMesh@Gu@physx@@QEAA@PEAVMeshFactory@12@AEAUConvexHullInitData@12@@Z 000000018009e820 f   GuConvexMesh.obj
 0001:0009d940       ??_EConvexMesh@Gu@physx@@UEAAPEAXI@Z 000000018009e940 f i GuConvexMesh.obj
 0001:0009d940       ??_GConvexMesh@Gu@physx@@UEAAPEAXI@Z 000000018009e940 f i GuConvexMesh.obj
 0001:0009da50       ??_EPxBVH@physx@@MEAAPEAXI@Z 000000018009ea50 f i GuBVH.obj
 0001:0009da50       ??_EPxBase@physx@@MEAAPEAXI@Z 000000018009ea50 f i GuConvexMesh.obj
 0001:0009da50       ??_GPxBVH@physx@@MEAAPEAXI@Z 000000018009ea50 f i GuBVH.obj
 0001:0009da50       ??_GPxBase@physx@@MEAAPEAXI@Z 000000018009ea50 f i GuConvexMesh.obj
 0001:0009da80       ?acquireReference@ConvexMesh@Gu@physx@@UEAAXXZ 000000018009ea80 f   GuConvexMesh.obj
 0001:0009da80       ?acquireReference@HeightField@Gu@physx@@UEAAXXZ 000000018009ea80 f   GuHeightField.obj
 0001:0009da80       ?acquireReference@SoftBodyAuxData@Gu@physx@@UEAAXXZ 000000018009ea80 f   GuTetrahedronMesh.obj
 0001:0009da80       ?acquireReference@SoftBodyMesh@Gu@physx@@UEAAXXZ 000000018009ea80 f   GuTetrahedronMesh.obj
 0001:0009da80       ?acquireReference@TetrahedronMesh@Gu@physx@@UEAAXXZ 000000018009ea80 f   GuTetrahedronMesh.obj
 0001:0009da80       ?acquireReference@TriangleMesh@Gu@physx@@UEAAXXZ 000000018009ea80 f   GuTriangleMesh.obj
 0001:0009df50       ?createObject@ConvexMesh@Gu@physx@@SAPEAV123@AEAPEAEAEAVPxDeserializationContext@3@@Z 000000018009ef50 f   GuConvexMesh.obj
 0001:0009e040       ?exportExtraData@ConvexMesh@Gu@physx@@UEAAXAEAVPxSerializationContext@3@@Z 000000018009f040 f   GuConvexMesh.obj
 0001:0009e110       ?getConcreteTypeName@PxConvexMesh@physx@@UEBAPEBDXZ 000000018009f110 f i GuConvexMesh.obj
 0001:0009e120       ?getIndexBuffer@ConvexMesh@Gu@physx@@UEBAPEBEXZ 000000018009f120 f i GuConvexMesh.obj
 0001:0009e160       ?getLocalBounds@ConvexMesh@Gu@physx@@UEBA?AVPxBounds3@3@XZ 000000018009f160 f   GuConvexMesh.obj
 0001:0009e1f0       ?getMassInformation@ConvexMesh@Gu@physx@@UEBAXAEAMAEAV?$PxMat33T@M@3@AEAV?$PxVec3T@M@3@@Z 000000018009f1f0 f   GuConvexMesh.obj
 0001:0009e260       ?getNbPolygons@ConvexMesh@Gu@physx@@UEBAIXZ 000000018009f260 f i GuConvexMesh.obj
 0001:0009e270       ?getNbVertices@ConvexMesh@Gu@physx@@UEBAIXZ 000000018009f270 f i GuConvexMesh.obj
 0001:0009e280       ?getPolygonData@ConvexMesh@Gu@physx@@UEBA_NIAEAUPxHullPolygon@3@@Z 000000018009f280 f   GuConvexMesh.obj
 0001:0009e2d0       ?getReferenceCount@ConvexMesh@Gu@physx@@UEBAIXZ 000000018009f2d0 f   GuConvexMesh.obj
 0001:0009e2d0       ?getReferenceCount@HeightField@Gu@physx@@UEBAIXZ 000000018009f2d0 f   GuHeightField.obj
 0001:0009e2d0       ?getReferenceCount@SoftBodyAuxData@Gu@physx@@UEBAIXZ 000000018009f2d0 f   GuTetrahedronMesh.obj
 0001:0009e2d0       ?getReferenceCount@SoftBodyMesh@Gu@physx@@UEBAIXZ 000000018009f2d0 f   GuTetrahedronMesh.obj
 0001:0009e2d0       ?getReferenceCount@TetrahedronMesh@Gu@physx@@UEBAIXZ 000000018009f2d0 f   GuTetrahedronMesh.obj
 0001:0009e2d0       ?getReferenceCount@TriangleMesh@Gu@physx@@UEBAIXZ 000000018009f2d0 f   GuTriangleMesh.obj
 0001:0009e2d0       ?length@DNameStatusNode@@UEBAHXZ 000000018009f2d0 f   libvcruntime:undname.obj
 0001:0009e2d0       ?raw_length@DNameStatusNode@@UEBAHXZ 000000018009f2d0 f   libvcruntime:undname.obj
 0001:0009e2e0       ?getSDF@ConvexMesh@Gu@physx@@UEBAPEBMXZ 000000018009f2e0 f   GuConvexMesh.obj
 0001:0009e2f0       ?getVertices@ConvexMesh@Gu@physx@@UEBAPEBV?$PxVec3T@M@3@XZ 000000018009f2f0 f i GuConvexMesh.obj
 0001:0009e310       ?isGpuCompatible@ConvexMesh@Gu@physx@@UEBA_NXZ 000000018009f310 f   GuConvexMesh.obj
 0001:0009e350       ?isKindOf@PxBase@physx@@MEBA_NPEBD@Z 000000018009f350 f i GuConvexMesh.obj
 0001:0009e370       ?isKindOf@PxConvexMesh@physx@@MEBA_NPEBD@Z 000000018009f370 f i GuConvexMesh.obj
 0001:0009e400       ?isReleasable@PxBase@physx@@UEBA_NXZ 000000018009f400 f i GuConvexMesh.obj
 0001:0009e410       ?load@ConvexMesh@Gu@physx@@QEAA_NAEAVPxInputStream@3@@Z 000000018009f410 f   GuConvexMesh.obj
 0001:0009e960       ?onRefCountZero@ConvexMesh@Gu@physx@@UEAAXXZ 000000018009f960 f   GuConvexMesh.obj
 0001:0009ea90       ?release@ConvexMesh@Gu@physx@@UEAAXXZ 000000018009fa90 f   GuConvexMesh.obj
 0001:0009ea90       ?release@HeightField@Gu@physx@@UEAAXXZ 000000018009fa90 f   GuHeightField.obj
 0001:0009ea90       ?release@SoftBodyAuxData@Gu@physx@@UEAAXXZ 000000018009fa90 f   GuTetrahedronMesh.obj
 0001:0009ea90       ?release@SoftBodyMesh@Gu@physx@@UEAAXXZ 000000018009fa90 f   GuTetrahedronMesh.obj
 0001:0009ea90       ?release@TetrahedronMesh@Gu@physx@@UEAAXXZ 000000018009fa90 f   GuTetrahedronMesh.obj
 0001:0009ea90       ?release@TriangleMesh@Gu@physx@@UEAAXXZ 000000018009fa90 f   GuTriangleMesh.obj
 0001:0009eac0       ??Dphysx@@YA?AV?$PxMat34T@M@0@AEBVPxMeshScale@0@AEBV10@@Z 000000018009fac0 f i GuConvexUtilsInternal.obj
 0001:0009f060       ?computeHullOBB@Gu@physx@@YAXAEAVBox@12@AEBVPxBounds3@2@MAEBV?$PxMat34T@M@2@2AEBVFastVertex2ShapeScaling@Cm@2@_N@Z 00000001800a0060 f   GuConvexUtilsInternal.obj
 0001:0009f510       ?computeOBBAroundConvex@Gu@physx@@YAXAEAVBox@12@AEBVPxConvexMeshGeometry@2@PEBVPxConvexMesh@2@AEBV?$PxTransformT@M@2@@Z 00000001800a0510 f   GuConvexUtilsInternal.obj
 0001:0009fd80       ?computeVertexSpaceOBB@Gu@physx@@YAXAEAVBox@12@AEBV312@AEBV?$PxTransformT@M@2@AEBVPxMeshScale@2@@Z 00000001800a0d80 f   GuConvexUtilsInternal.obj
 0001:000a00b0       ?transform@physx@@YA?AVBox@Gu@1@AEBV?$PxMat34T@M@1@AEBV231@@Z 00000001800a10b0 f i GuConvexUtilsInternal.obj
 0001:000a0300       ?localSearch@physx@@YAXAEAIAEBV?$PxVec3T@M@1@PEBV21@PEBUBigConvexRawData@Gu@1@@Z 00000001800a1300 f   GuHillClimbing.obj
 0001:000a0430       ??0PCMPolygonalBox@Gu@physx@@QEAA@AEBV?$PxVec3T@M@2@@Z 00000001800a1430 f   GuPCMShapeConvex.obj
 0001:000a0430       ??0PolygonalBox@Gu@physx@@QEAA@AEBV?$PxVec3T@M@2@@Z 00000001800a1430 f   GuShapeConvex.obj
 0001:000a18f0       ?getPolygonalData@PolygonalBox@Gu@physx@@QEBAXPEIAUPolygonalData@23@@Z 00000001800a28f0 f   GuShapeConvex.obj
 0001:000a1960       ?getPolygonalData_Convex@Gu@physx@@YAXPEIAUPolygonalData@12@PEIBUConvexHullData@12@AEBVFastVertex2ShapeScaling@Cm@2@@Z 00000001800a2960 f   GuShapeConvex.obj
 0001:000a1ac0       ?distancePointBoxSquared@Gu@physx@@YAMAEBV?$PxVec3T@M@2@00AEBV?$PxMat33T@M@2@PEAV32@@Z 00000001800a2ac0 f   GuDistancePointBox.obj
 0001:000a1c10       ?closestPtPointTriangle@Gu@physx@@YA?AV?$PxVec3T@M@2@AEBV32@000AEAM1@Z 00000001800a2c10 f   GuDistancePointTriangle.obj
 0001:000a2130       ?distancePointTriangleSquared2UnitBox@Gu@physx@@YA?AT__m128@@AEBT3@000AEAT3@11@Z 00000001800a3130 f   GuDistancePointTriangle.obj
 0001:000a2250       ?distancePointTriangleSquared@Gu@physx@@YA?AT__m128@@AEBT3@000AEAT3@11@Z 00000001800a3250 f   GuDistancePointTriangle.obj
 0001:000a2fa0       ?distanceSegmentBoxSquared@Gu@physx@@YAMAEBV?$PxVec3T@M@2@000AEBV?$PxMat33T@M@2@PEAMPEAV32@@Z 00000001800a3fa0 f   GuDistanceSegmentBox.obj
 0001:000a3820       ?distanceSegmentSegmentSquared4@Gu@physx@@YA?AT__m128@@AEBT3@000000000AEAT3@1@Z 00000001800a4820 f   GuDistanceSegmentSegment.obj
 0001:000a3b30       ?distanceSegmentSegmentSquared@Gu@physx@@YA?AT__m128@@AEBT3@000AEAT3@1@Z 00000001800a4b30 f   GuDistanceSegmentSegment.obj
 0001:000a3cf0       ?distanceSegmentSegmentSquared@Gu@physx@@YAMAEBV?$PxVec3T@M@2@000PEAM1@Z 00000001800a4cf0 f   GuDistanceSegmentSegment.obj
 0001:000a3f80       ?distanceSegmentSegmentSquared@Gu@physx@@YAMAEBV?$PxVec3T@M@2@0M00MPEAM1@Z 00000001800a4f80 f   GuDistanceSegmentSegment.obj
 0001:000a46c0       ?distanceSegmentTriangleSquared@Gu@physx@@YA?AT__m128@@AEBT3@0000AEAT3@1@Z 00000001800a56c0 f   GuDistanceSegmentTriangle.obj
 0001:000a4e00       ?distanceSegmentTriangleSquared@Gu@physx@@YAMAEBV?$PxVec3T@M@2@0000PEAM11@Z 00000001800a5e00 f   GuDistanceSegmentTriangle.obj
 0001:000a6470       ?distanceTriangleTriangleSquared@Gu@physx@@YAMAEAV?$PxVec3T@M@2@0QEBVPxVec3Padded@2@1@Z 00000001800a7470 f   GuDistanceTriangleTriangle.obj
 0001:000a6f90       ?PointOutsideOfPlane4@Gu@physx@@YA?AV?$PxVec4T@M@2@AEBV?$PxVec3T@M@2@0000@Z 00000001800a7f90 f   GuDistancePointTetrahedron.obj
 0001:000a7400       ?closestPtPointTetrahedron@Gu@physx@@YA?AV?$PxVec3T@M@2@AEBV32@0000AEBV?$PxVec4T@M@2@@Z 00000001800a8400 f   GuDistancePointTetrahedron.obj
 0001:000a84f0       ?PenetrationDepth@EPA@Gu@physx@@QEAA?AW4GjkStatus@23@AEBUGjkConvex@23@0PEIBT__m128@@1E_NT6@AEAUGjkOutput@23@@Z 00000001800a94f0 f   GuEPA.obj
 0001:000a9010       ?addFacet@EPA@Gu@physx@@QEAAPEAVFacet@23@IIIAEBT__m128@@@Z 00000001800aa010 f   GuEPA.obj
 0001:000a9440       ?epaPenetration@Gu@physx@@YA?AW4GjkStatus@12@AEBUGjkConvex@12@0PEIBE1E_NT__m128@@AEAUGjkOutput@12@@Z 00000001800aa440 f   GuEPA.obj
 0001:000a95b0       ?epaPenetration@Gu@physx@@YA?AW4GjkStatus@12@AEBUGjkConvex@12@0PEIBT__m128@@1E_NT5@AEAUGjkOutput@12@@Z 00000001800aa5b0 f   GuEPA.obj
 0001:000a9660       ?silhouette@Facet@Gu@physx@@QEAAXAEBT__m128@@PEIBT4@1AEAVEdgeBuffer@23@AEAV?$InlineDeferredIDPool@$0EA@@Cm@3@@Z 00000001800aa660 f   GuEPA.obj
 0001:000a9830       ?closestPtPointTetrahedron@Gu@physx@@YA?AT__m128@@PEIAT3@00AEAI@Z 00000001800aa830 f   GuGJKSimplex.obj
 0001:000a9fa0       ?closestPtPointTetrahedron@Gu@physx@@YA?AT__m128@@PEIAT3@00PEIAH1AEAI@Z 00000001800aafa0 f   GuGJKSimplex.obj
 0001:000aba20       ??$gjk@UGjkConvex@Gu@physx@@U123@@Gu@physx@@YA?AW4GjkStatus@01@AEBUGjkConvex@01@0AEBT__m128@@1AEAT4@222@Z 00000001800aca20 f i GuGJKTest.obj
 0001:000ac640       ??$gjkPenetration@UGjkConvex@Gu@physx@@U123@@Gu@physx@@YA?AW4GjkStatus@01@AEBUGjkConvex@01@0AEBT__m128@@1_NPEIAE3AEAEAEAUGjkOutput@01@@Z 00000001800ad640 f i GuGJKTest.obj
 0001:000ac6b0       ??$gjkPenetration@UGjkConvex@Gu@physx@@U123@@Gu@physx@@YA?AW4GjkStatus@01@AEBUGjkConvex@01@0AEBT__m128@@1_NPEIAE3PEIAT4@4AEAEAEAUGjkOutput@01@@Z 00000001800ad6b0 f i GuGJKTest.obj
 0001:000adb10       ?testEpaPenetration@Gu@physx@@YA?AW4GjkStatus@12@AEBUGjkConvex@12@0PEBE1EAEAUGjkOutput@12@@Z 00000001800aeb10 f   GuGJKTest.obj
 0001:000adb60       ?testGjk@Gu@physx@@YA?AW4GjkStatus@12@AEBUGjkConvex@12@0AEBT__m128@@1AEAT5@222@Z 00000001800aeb60 f   GuGJKTest.obj
 0001:000adb70       ?testGjkPenetration@Gu@physx@@YA?AW4GjkStatus@12@AEBUGjkConvex@12@0AEBT__m128@@1PEAE2AEAEAEAUGjkOutput@12@@Z 00000001800aeb70 f   GuGJKTest.obj
 0001:000adbc0       ??0HeightField@Gu@physx@@QEAA@PEAVMeshFactory@12@@Z 00000001800aebc0 f   GuHeightField.obj
 0001:000adc10       ??0HeightField@Gu@physx@@QEAA@PEAVMeshFactory@12@AEAUHeightFieldData@12@@Z 00000001800aec10 f   GuHeightField.obj
 0001:000adcc0       ??1HeightField@Gu@physx@@UEAA@XZ 00000001800aecc0 f   GuHeightField.obj
 0001:000add40       ??_EHeightField@Gu@physx@@UEAAPEAXI@Z 00000001800aed40 f i GuHeightField.obj
 0001:000add40       ??_GHeightField@Gu@physx@@UEAAPEAXI@Z 00000001800aed40 f i GuHeightField.obj
 0001:000addf0       ?computeCellCoordinates@HeightField@Gu@physx@@QEBAIMMAEAM0@Z 00000001800aedf0 f   GuHeightField.obj
 0001:000adf10       ?createObject@HeightField@Gu@physx@@SAPEAV123@AEAPEAEAEAVPxDeserializationContext@3@@Z 00000001800aef10 f   GuHeightField.obj
 0001:000adf60       ?exportExtraData@HeightField@Gu@physx@@UEAAXAEAVPxSerializationContext@3@@Z 00000001800aef60 f   GuHeightField.obj
 0001:000adfb0       ?getConcreteTypeName@PxHeightField@physx@@UEBAPEBDXZ 00000001800aefb0 f i GuHeightField.obj
 0001:000adfc0       ?getConvexEdgeThreshold@HeightField@Gu@physx@@UEBAMXZ 00000001800aefc0 f i GuHeightField.obj
 0001:000adfd0       ?getFlags@HeightField@Gu@physx@@UEBA?AV?$PxFlags@W4Enum@PxHeightFieldFlag@physx@@G@3@XZ 00000001800aefd0 f i GuHeightField.obj
 0001:000adfe0       ?getFormat@HeightField@Gu@physx@@UEBA?AW4Enum@PxHeightFieldFormat@3@XZ 00000001800aefe0 f i GuHeightField.obj
 0001:000adff0       ?getHeight@HeightField@Gu@physx@@UEBAMMM@Z 00000001800aeff0 f i GuHeightField.obj
 0001:000ae110       ?getNbColumns@HeightField@Gu@physx@@UEBAIXZ 00000001800af110 f i GuHeightField.obj
 0001:000ae120       ?getNbBounds@BVH@Gu@physx@@UEBAIXZ 00000001800af120 f i GuBVH.obj
 0001:000ae120       ?getNbPrimitives@SourceMesh@Gu@physx@@UEBAIXZ 00000001800af120 f i GuBV4.obj
 0001:000ae120       ?getNbPrimitives@TetrahedronSourceMesh@Gu@physx@@UEBAIXZ 00000001800af120 f i GuBV4.obj
 0001:000ae120       ?getNbRows@HeightField@Gu@physx@@UEBAIXZ 00000001800af120 f i GuHeightField.obj
 0001:000ae130       ?getSample@HeightField@Gu@physx@@UEBAAEBUPxHeightFieldSample@3@II@Z 00000001800af130 f i GuHeightField.obj
 0001:000ae140       ?getSampleStride@HeightField@Gu@physx@@UEBAIXZ 00000001800af140 f i GuHeightField.obj
 0001:000ae150       ?getTimestamp@HeightField@Gu@physx@@UEBAIXZ 00000001800af150 f i GuHeightField.obj
 0001:000ae160       ?getTriangleMaterialIndex@HeightField@Gu@physx@@UEBAGI@Z 00000001800af160 f i GuHeightField.obj
 0001:000ae190       ?getTriangleNormal@HeightField@Gu@physx@@UEBA?AV?$PxVec3T@M@3@I@Z 00000001800af190 f i GuHeightField.obj
 0001:000ae1b0       ?getTriangleNormalInternal@HeightField@Gu@physx@@QEBA?AV?$PxVec3T@M@3@I@Z 00000001800af1b0 f i GuHeightField.obj
 0001:000ae4e0       ?isCollisionVertexPreca@HeightField@Gu@physx@@QEBA_NIIIG@Z 00000001800af4e0 f   GuHeightField.obj
 0001:000ae580       ?isConvexVertex@HeightField@Gu@physx@@QEBA_NIII@Z 00000001800af580 f i GuHeightField.obj
 0001:000ae650       ?isKindOf@PxHeightField@physx@@MEBA_NPEBD@Z 00000001800af650 f i GuHeightField.obj
 0001:000ae6e0       ?isSolidVertex@HeightField@Gu@physx@@QEBA_NIIIGAEA_N@Z 00000001800af6e0 f   GuHeightField.obj
 0001:000ae970       ?load@HeightField@Gu@physx@@QEAA_NAEAVPxInputStream@3@@Z 00000001800af970 f   GuHeightField.obj
 0001:000aecd0       ?loadFromDesc@HeightField@Gu@physx@@QEAA_NAEBVPxHeightFieldDesc@3@@Z 00000001800afcd0 f   GuHeightField.obj
 0001:000aeed0       ?modifySamples@HeightField@Gu@physx@@UEAA_NHHAEBVPxHeightFieldDesc@3@_N@Z 00000001800afed0 f   GuHeightField.obj
 0001:000af240       ?onRefCountZero@HeightField@Gu@physx@@UEAAXXZ 00000001800b0240 f   GuHeightField.obj
 0001:000af310       ?parseTrianglesForCollisionVertices@HeightField@Gu@physx@@QEAAXG@Z 00000001800b0310 f   GuHeightField.obj
 0001:000af820       ?releaseMemory@HeightField@Gu@physx@@QEAAXXZ 00000001800b0820 f   GuHeightField.obj
 0001:000af870       ?resizeAndClear@?$PxBitMapBase@VPxAllocator@physx@@@physx@@QEAAXI@Z 00000001800b0870 f i GuHeightField.obj
 0001:000af920       ?save@HeightField@Gu@physx@@QEAA_NAEAVPxOutputStream@3@_N@Z 00000001800b0920 f   GuHeightField.obj
 0001:000afb60       ?saveCells@HeightField@Gu@physx@@UEBAIPEAXI@Z 00000001800b0b60 f   GuHeightField.obj
 0001:000afba0       ?computeLocalBounds@HeightFieldUtil@Gu@physx@@QEBAXAEAVPxBounds3@3@@Z 00000001800b0ba0 f   GuHeightFieldUtil.obj
 0001:000b0070       ?getTriangle@HeightFieldUtil@Gu@physx@@QEBAIAEBV?$PxTransformT@M@3@AEAVPxTriangle@3@PEAI2I_N3@Z 00000001800b1070 f   GuHeightFieldUtil.obj
 0001:000b0b70       ?getTriangleAdjacencyIndices@HeightField@Gu@physx@@QEBAXIIIIAEAI00@Z 00000001800b1b70 f i GuHeightFieldUtil.obj
 0001:000b0d20       ?getTriangleVertexIndices@HeightField@Gu@physx@@QEBAXIAEAI00@Z 00000001800b1d20 f i GuHeightFieldUtil.obj
 0001:000b0de0       ?overlapAABBTriangles@HeightFieldUtil@Gu@physx@@QEBAXAEBVPxBounds3@3@AEAVOverlapReport@23@I@Z 00000001800b1de0 f   GuHeightFieldUtil.obj
 0001:000b1240       ??$gjk@U?$RelativeConvex@VTriangleV@Gu@physx@@@Gu@physx@@U?$LocalConvex@VConvexHullV@Gu@physx@@@23@@Gu@physx@@YA?AW4GjkStatus@01@AEBU?$RelativeConvex@VTriangleV@Gu@physx@@@01@AEBU?$LocalConvex@VConvexHullV@Gu@physx@@@01@AEBT__m128@@2AEAT5@333@Z 00000001800b2240 f i GuOverlapTestsHF.obj
 0001:000b2180       ?GeomOverlapCallback_BoxHeightfield@@YA_NAEBVPxGeometry@physx@@AEBV?$PxTransformT@M@2@01PEAUTriggerCache@Gu@2@PEAUPxQueryThreadContext@2@@Z 00000001800b3180 f   GuOverlapTestsHF.obj
 0001:000b26e0       ?GeomOverlapCallback_CapsuleHeightfield@@YA_NAEBVPxGeometry@physx@@AEBV?$PxTransformT@M@2@01PEAUTriggerCache@Gu@2@PEAUPxQueryThreadContext@2@@Z 00000001800b36e0 f   GuOverlapTestsHF.obj
 0001:000b2ce0       ?GeomOverlapCallback_ConvexHeightfield@@YA_NAEBVPxGeometry@physx@@AEBV?$PxTransformT@M@2@01PEAUTriggerCache@Gu@2@PEAUPxQueryThreadContext@2@@Z 00000001800b3ce0 f   GuOverlapTestsHF.obj
 0001:000b3720       ?GeomOverlapCallback_SphereHeightfield@@YA_NAEBVPxGeometry@physx@@AEBV?$PxTransformT@M@2@01PEAUTriggerCache@Gu@2@PEAUPxQueryThreadContext@2@@Z 00000001800b4720 f   GuOverlapTestsHF.obj
 0001:000b42e0       ??$gjkRaycast@U?$LocalConvex@VTriangleV@Gu@physx@@@Gu@physx@@U?$LocalConvex@VConvexHullV@Gu@physx@@@23@@Gu@physx@@YA_NAEBU?$LocalConvex@VTriangleV@Gu@physx@@@01@AEBU?$LocalConvex@VConvexHullV@Gu@physx@@@01@AEBT__m128@@222AEAT4@33M@Z 00000001800b52e0 f i GuSweepsHF.obj
 0001:000b50e0       ??$traceSegment@VBoxTraceSegmentReport@@$0A@$00@HeightFieldTraceUtil@Gu@physx@@QEBAXAEBV?$PxVec3T@M@2@0MPEAVBoxTraceSegmentReport@@AEBVPxBounds3@2@_NPEBV32@@Z 00000001800b60e0 f i GuSweepsHF.obj
 0001:000b50e0       ??$traceSegment@VCapsuleTraceSegmentReport@@$0A@$00@HeightFieldTraceUtil@Gu@physx@@QEBAXAEBV?$PxVec3T@M@2@0MPEAVCapsuleTraceSegmentReport@@AEBVPxBounds3@2@_NPEBV32@@Z 00000001800b60e0 f i GuSweepsHF.obj
 0001:000b50e0       ??$traceSegment@VConvexTraceSegmentReport@@$0A@$00@HeightFieldTraceUtil@Gu@physx@@QEBAXAEBV?$PxVec3T@M@2@0MPEAVConvexTraceSegmentReport@@AEBVPxBounds3@2@_NPEBV32@@Z 00000001800b60e0 f i GuSweepsHF.obj
 0001:000b58b0       ??0ConvexTraceSegmentReport@@QEAA@AEBVHeightFieldUtil@Gu@physx@@AEBUConvexHullData@23@AEBVPxMeshScale@3@AEBV?$PxTransformT@M@3@3AEBV?$PxVec3T@M@3@MV?$PxFlags@W4Enum@PxHitFlag@physx@@G@3@M@Z 00000001800b68b0 f i GuSweepsHF.obj
 0001:000b6230       ??_EBoxTraceSegmentReport@@UEAAPEAXI@Z 00000001800b7230 f i GuSweepsHF.obj
 0001:000b6230       ??_GBoxTraceSegmentReport@@UEAAPEAXI@Z 00000001800b7230 f i GuSweepsHF.obj
 0001:000b6260       ??_ECapsuleTraceSegmentReport@@UEAAPEAXI@Z 00000001800b7260 f i GuSweepsHF.obj
 0001:000b6260       ??_GCapsuleTraceSegmentReport@@UEAAPEAXI@Z 00000001800b7260 f i GuSweepsHF.obj
 0001:000b6290       ??_EConvexTraceSegmentReport@@UEAAPEAXI@Z 00000001800b7290 f i GuSweepsHF.obj
 0001:000b6290       ??_GConvexTraceSegmentReport@@UEAAPEAXI@Z 00000001800b7290 f i GuSweepsHF.obj
 0001:000b62c0       ??_EHeightFieldTraceSegmentReport@@UEAAPEAXI@Z 00000001800b72c0 f i GuSweepsHF.obj
 0001:000b62c0       ??_GHeightFieldTraceSegmentReport@@UEAAPEAXI@Z 00000001800b72c0 f i GuSweepsHF.obj
 0001:000b62f0       ?finalizeHit@ConvexTraceSegmentReport@@QEAA_NAEAUPxGeomSweepHit@physx@@AEBVPxHeightFieldGeometry@3@AEBV?$PxTransformT@M@3@AEBVPxConvexMeshGeometry@3@2AEBV?$PxVec3T@M@3@M@Z 00000001800b72f0 f i GuSweepsHF.obj
 0001:000b6520       ?onEvent@BoxTraceSegmentReport@@UEAA_NIPEBI@Z 00000001800b7520 f i GuSweepsHF.obj
 0001:000b6970       ?onEvent@CapsuleTraceSegmentReport@@UEAA_NIPEBI@Z 00000001800b7970 f i GuSweepsHF.obj
 0001:000b6ba0       ?onEvent@ConvexTraceSegmentReport@@UEAA_NIPEBI@Z 00000001800b7ba0 f i GuSweepsHF.obj
 0001:000b7160       ?prepare@?$OverlapTraceSegment@VBoxTraceSegmentReport@@@HeightFieldTraceUtil@Gu@physx@@QEAAXAEBV?$PxVec3T@M@4@00AEAM1@Z 00000001800b8160 f i GuSweepsHF.obj
 0001:000b7160       ?prepare@?$OverlapTraceSegment@VCapsuleTraceSegmentReport@@@HeightFieldTraceUtil@Gu@physx@@QEAAXAEBV?$PxVec3T@M@4@00AEAM1@Z 00000001800b8160 f i GuSweepsHF.obj
 0001:000b7160       ?prepare@?$OverlapTraceSegment@VConvexTraceSegmentReport@@@HeightFieldTraceUtil@Gu@physx@@QEAAXAEBV?$PxVec3T@M@4@00AEAM1@Z 00000001800b8160 f i GuSweepsHF.obj
 0001:000b7420       ?sweepBox_HeightFieldGeom@@YA_NAEBVPxGeometry@physx@@AEBV?$PxTransformT@M@2@AEBVPxBoxGeometry@2@1AEBVBox@Gu@2@AEBV?$PxVec3T@M@2@MAEAUPxGeomSweepHit@2@V?$PxFlags@W4Enum@PxHitFlag@physx@@G@2@MPEAUPxQueryThreadContext@2@@Z 00000001800b8420 f   GuSweepsHF.obj
 0001:000b8270       ?sweepCapsule_HeightFieldGeom@@YA_NAEBVPxGeometry@physx@@AEBV?$PxTransformT@M@2@AEBVPxCapsuleGeometry@2@1AEBVCapsule@Gu@2@AEBV?$PxVec3T@M@2@MAEAUPxGeomSweepHit@2@V?$PxFlags@W4Enum@PxHitFlag@physx@@G@2@MPEAUPxQueryThreadContext@2@@Z 00000001800b9270 f   GuSweepsHF.obj
 0001:000b8bc0       ?sweepConvex_HeightFieldGeom@@YA_NAEBVPxGeometry@physx@@AEBV?$PxTransformT@M@2@AEBVPxConvexMeshGeometry@2@1AEBV?$PxVec3T@M@2@MAEAUPxGeomSweepHit@2@V?$PxFlags@W4Enum@PxHitFlag@physx@@G@2@MPEAUPxQueryThreadContext@2@@Z 00000001800b9bc0 f   GuSweepsHF.obj
 0001:000b9590       ?testVertexIndex@?$OverlapTraceSegment@VBoxTraceSegmentReport@@@HeightFieldTraceUtil@Gu@physx@@QEAA_NI@Z 00000001800ba590 f i GuSweepsHF.obj
 0001:000b9590       ?testVertexIndex@?$OverlapTraceSegment@VCapsuleTraceSegmentReport@@@HeightFieldTraceUtil@Gu@physx@@QEAA_NI@Z 00000001800ba590 f i GuSweepsHF.obj
 0001:000b9590       ?testVertexIndex@?$OverlapTraceSegment@VConvexTraceSegmentReport@@@HeightFieldTraceUtil@Gu@physx@@QEAA_NI@Z 00000001800ba590 f i GuSweepsHF.obj
 0001:000b96f0       ?transformFast@PxBounds3@physx@@SA?AV12@AEBV?$PxTransformT@M@2@AEBV12@@Z 00000001800ba6f0 f i GuSweepsHF.obj
 0001:000b9ad0       ?visitCells@?$OverlapTraceSegment@VBoxTraceSegmentReport@@@HeightFieldTraceUtil@Gu@physx@@QEAA_NAEBUOverlapRectangle@1234@@Z 00000001800baad0 f i GuSweepsHF.obj
 0001:000b9ad0       ?visitCells@?$OverlapTraceSegment@VCapsuleTraceSegmentReport@@@HeightFieldTraceUtil@Gu@physx@@QEAA_NAEBUOverlapRectangle@1234@@Z 00000001800baad0 f i GuSweepsHF.obj
 0001:000b9ad0       ?visitCells@?$OverlapTraceSegment@VConvexTraceSegmentReport@@@HeightFieldTraceUtil@Gu@physx@@QEAA_NAEBUOverlapRectangle@1234@@Z 00000001800baad0 f i GuSweepsHF.obj
 0001:000b9cc0       ?intersectOBBOBB@Gu@physx@@YA_NAEBV?$PxVec3T@M@2@0AEBV?$PxMat33T@M@2@001_N@Z 00000001800bacc0 f   GuIntersectionBoxBox.obj
 0001:000ba310       ?intersectCapsuleTriangle@Gu@physx@@YA_NAEBV?$PxVec3T@M@2@000AEBVCapsule@12@AEBUCapsuleTriangleOverlapData@12@@Z 00000001800bb310 f   GuIntersectionCapsuleTriangle.obj
 0001:000baf00       ?intersectEdgeEdge@Gu@physx@@YA_NAEBV?$PxVec3T@M@2@0000AEAMAEAV32@@Z 00000001800bbf00 f   GuIntersectionEdgeEdge.obj
 0001:000bb220       ?intersectRayAABB2@Gu@physx@@YA_NAEBT__m128@@0000AEAT3@1@Z 00000001800bc220 f   GuIntersectionRayBox.obj
 0001:000bb2e0       ?intersectRayAABB2@Gu@physx@@YA_NAEBV?$PxVec3T@M@2@000MAEAM1@Z 00000001800bc2e0 f   GuIntersectionRayBox.obj
 0001:000bb490       ?intersectRayAABB@Gu@physx@@YAHAEBV?$PxVec3T@M@2@000AEAM1@Z 00000001800bc490 f   GuIntersectionRayBox.obj
 0001:000bb5a0       ?rayAABBIntersect2@Gu@physx@@YAIAEBV?$PxVec3T@M@2@000AEAV32@AEAM@Z 00000001800bc5a0 f   GuIntersectionRayBox.obj
 0001:000bb7a0       ?intersectRayCapsuleInternal@Gu@physx@@YAIAEBV?$PxVec3T@M@2@000MQEAM@Z 00000001800bc7a0 f   GuIntersectionRayCapsule.obj
 0001:000bbc60       ?intersectRaySphere@Gu@physx@@YA_NAEBV?$PxVec3T@M@2@0M0MAEAMPEAV32@@Z 00000001800bcc60 f   GuIntersectionRaySphere.obj
 0001:000bbd50       ?intersectRaySphereBasic@Gu@physx@@YA_NAEBV?$PxVec3T@M@2@0M0MAEAMPEAV32@@Z 00000001800bcd50 f   GuIntersectionRaySphere.obj
 0001:000bbeb0       ?intersectSphereBox@Gu@physx@@YA_NAEBVSphere@12@AEBVBox@12@@Z 00000001800bceb0 f   GuIntersectionSphereBox.obj
 0001:000bc0e0       ?intersectTetrahedronBox@Gu@physx@@YA_NAEBV?$PxVec3T@M@2@000AEBVPxBounds3@2@@Z 00000001800bd0e0 f   GuIntersectionTetrahedronBox.obj
 0001:000bc4b0       ?intersectTriangleBox@Gu@physx@@YAHAEBVBoxPadded@12@AEBV?$PxVec3T@M@2@11@Z 00000001800bd4b0 f   GuIntersectionTriangleBox.obj
 0001:000bca80       ?intersectTriangleBoxBV4@@YAHAEBV?$PxVec3T@M@physx@@00AEBV?$PxMat33T@M@2@00@Z 00000001800bda80 f   GuIntersectionTriangleBox.obj
 0001:000bcec0       ?intersectTriangleBox_ReferenceCode@Gu@physx@@YAHAEBV?$PxVec3T@M@2@0000@Z 00000001800bdec0 f   GuIntersectionTriangleBox.obj
 0001:000bd690       ?intersectTriangleBox_Unsafe@Gu@physx@@YAHAEBV?$PxVec3T@M@2@0000@Z 00000001800be690 f   GuIntersectionTriangleBox.obj
 0001:000bda50       ?trianglesIntersect@Gu@physx@@YA_NAEBV?$PxVec3T@M@2@00000_N@Z 00000001800bea50 f   GuIntersectionTriangleTriangle.obj
 0001:000bee60       ??0BV4Tree@Gu@physx@@QEAA@W4PxEMPTY@2@@Z 00000001800bfe60 f   GuBV4.obj
 0001:000bee70       ??0BV4Tree@Gu@physx@@QEAA@XZ 00000001800bfe70 f   GuBV4.obj
 0001:000beea0       ??0SourceMesh@Gu@physx@@QEAA@XZ 00000001800bfea0 f   GuBV4.obj
 0001:000beed0       ??0TetrahedronSourceMesh@Gu@physx@@QEAA@XZ 00000001800bfed0 f   GuBV4.obj
 0001:000bef00       ??1BV4Tree@Gu@physx@@QEAA@XZ 00000001800bff00 f   GuBV4.obj
 0001:000bef60       ??1SourceMesh@Gu@physx@@UEAA@XZ 00000001800bff60 f   GuBV4.obj
 0001:000bef60       ??1TetrahedronSourceMesh@Gu@physx@@UEAA@XZ 00000001800bff60 f   GuBV4.obj
 0001:000befb0       ??4BV4Tree@Gu@physx@@QEAAXAEAV012@@Z 00000001800bffb0 f   GuBV4.obj
 0001:000bf040       ??4SourceMesh@Gu@physx@@QEAAXAEAV012@@Z 00000001800c0040 f   GuBV4.obj
 0001:000bf090       ??_ESourceMesh@Gu@physx@@UEAAPEAXI@Z 00000001800c0090 f i GuBV4.obj
 0001:000bf090       ??_ETetrahedronSourceMesh@Gu@physx@@UEAAPEAXI@Z 00000001800c0090 f i GuBV4.obj
 0001:000bf090       ??_GSourceMesh@Gu@physx@@UEAAPEAXI@Z 00000001800c0090 f i GuBV4.obj
 0001:000bf090       ??_GTetrahedronSourceMesh@Gu@physx@@UEAAPEAXI@Z 00000001800c0090 f i GuBV4.obj
 0001:000bf130       ??_ESourceMeshBase@Gu@physx@@UEAAPEAXI@Z 00000001800c0130 f i GuBV4.obj
 0001:000bf130       ??_GSourceMeshBase@Gu@physx@@UEAAPEAXI@Z 00000001800c0130 f i GuBV4.obj
 0001:000bf1d0       ?exportExtraData@BV4Tree@Gu@physx@@QEAAXAEAVPxSerializationContext@3@@Z 00000001800c01d0 f   GuBV4.obj
 0001:000bf230       ?getPrimitiveBox@SourceMesh@Gu@physx@@UEAAXIAEAT__m128@@0@Z 00000001800c0230 f   GuBV4.obj
 0001:000bf2d0       ?getPrimitiveBox@TetrahedronSourceMesh@Gu@physx@@UEAAXIAEAT__m128@@0@Z 00000001800c02d0 f   GuBV4.obj
 0001:000bf390       ?importExtraData@BV4Tree@Gu@physx@@QEAAXAEAVPxDeserializationContext@3@@Z 00000001800c0390 f   GuBV4.obj
 0001:000bf3e0       ?init@BV32Tree@Gu@physx@@QEAA_NPEAVSourceMeshBase@23@AEBVPxBounds3@3@@Z 00000001800c03e0 f   GuBV32.obj
 0001:000bf3e0       ?init@BV4Tree@Gu@physx@@QEAA_NPEAVSourceMeshBase@23@AEBVPxBounds3@3@@Z 00000001800c03e0 f   GuBV4.obj
 0001:000bf480       ?load@BV4Tree@Gu@physx@@QEAA_NAEAVPxInputStream@3@_N@Z 00000001800c0480 f   GuBV4.obj
 0001:000bf6c0       ?refit@BV4Tree@Gu@physx@@QEAA_NAEAVPxBounds3@3@M@Z 00000001800c06c0 f   GuBV4.obj
 0001:000bfd30       ?refit@SourceMesh@Gu@physx@@UEAAXIAEAVPxBounds3@3@@Z 00000001800c0d30 f   GuBV4.obj
 0001:000bfed0       ?refit@TetrahedronSourceMesh@Gu@physx@@UEAAXIAEAVPxBounds3@3@@Z 00000001800c0ed0 f   GuBV4.obj
 0001:000c00f0       ?remapTopology@SourceMesh@Gu@physx@@UEAAXPEBI@Z 00000001800c10f0 f   GuBV4.obj
 0001:000c0380       ?remapTopology@TetrahedronSourceMesh@Gu@physx@@UEAAXPEBI@Z 00000001800c1380 f   GuBV4.obj
 0001:000c0600       ??0BV4_AABBTree@Gu@physx@@QEAA@XZ 00000001800c1600 f   GuBV4Build.obj
 0001:000c0610       ??0BVData@@QEAA@XZ         00000001800c1610 f   GuBV4Build.obj
 0001:000c0640       ??0BuildStats@Gu@physx@@QEAA@XZ 00000001800c1640 f i GuBV4Build.obj
 0001:000c0650       ??1BV4_AABBTree@Gu@physx@@QEAA@XZ 00000001800c1650 f   GuBV4Build.obj
 0001:000c0660       ??4BuildStats@Gu@physx@@QEAAAEAU012@$$QEAU012@@Z 00000001800c1660 f i GuBV4Build.obj
 0001:000c0670       ??4BuildStats@Gu@physx@@QEAAAEAU012@AEBU012@@Z 00000001800c1670 f i GuBV4Build.obj
 0001:000c0680       ?BuildBV4Ex@Gu@physx@@YA_NAEAVBV4Tree@12@AEAVSourceMeshBase@12@MI_NW4BV4_BuildStrategy@12@@Z 00000001800c1680 f   GuBV4Build.obj
 0001:000c1550       ?allocateNode@BV4BuildParams@@QEAAPEAUBV4Node@@XZ 00000001800c2550 f   GuBV4Build.obj
 0001:000c19c0       ?buildFromMesh@BV4_AABBTree@Gu@physx@@QEAA_NAEAVSourceMeshBase@23@IW4BV4_BuildStrategy@23@@Z 00000001800c29c0 f   GuBV4Build.obj
 0001:000c28f0       ?increaseCount@BuildStats@Gu@physx@@QEAAXI@Z 00000001800c38f0 f i GuBV4Build.obj
 0001:000c3350       ?release@BV4_AABBTree@Gu@physx@@QEAAXXZ 00000001800c4350 f   GuBV4Build.obj
 0001:000c3400       ?releaseNodes@BV4BuildParams@@QEAAXXZ 00000001800c4400 f   GuBV4Build.obj
 0001:000c3470       ?reset@BuildStats@Gu@physx@@QEAAXXZ 00000001800c4470 f i GuBV4Build.obj
 0001:000c3480       ?setCount@BuildStats@Gu@physx@@QEAAXI@Z 00000001800c4480 f i GuBV4Build.obj
 0001:000c3ae0       ?walk@BV4_AABBTree@Gu@physx@@QEBAIP6A_NPEBVAABBTreeNode@23@IPEAX@Z1@Z 00000001800c4ae0 f   GuBV4Build.obj
 0001:000c3ba0       ?walkDistance@BV4_AABBTree@Gu@physx@@QEBAIP6A_NPEBVAABBTreeNode@23@IPEAX@ZP6A_N01@Z1@Z 00000001800c4ba0 f   GuBV4Build.obj
 0001:000c7bc0       ?GenericSweep_AABB_CB@@YAXAEBVBox@Gu@physx@@AEBV?$PxVec3T@M@3@MAEBVBV4Tree@23@P6A_NPEAX111IAEAM@Z3I@Z 00000001800c8bc0 f   GuBV4_AABBSweep.obj
 0001:000c7d20       ?Sweep_AABB_BV4@@YAHAEBVBox@Gu@physx@@AEBV?$PxVec3T@M@3@MAEBVBV4Tree@23@PEIAVSweepHit@23@I@Z 00000001800c8d20 f   GuBV4_AABBSweep.obj
 0001:000d0a60       ?BV4_OverlapBoxAll@@YAIAEBVBox@Gu@physx@@AEBVBV4Tree@23@PEIBV?$PxMat44T@M@3@PEAIIAEA_N@Z 00000001800d1a60 f   GuBV4_BoxOverlap.obj
 0001:000d1270       ?BV4_OverlapBoxAny@@YAHAEBVBox@Gu@physx@@AEBVBV4Tree@23@PEIBV?$PxMat44T@M@3@@Z 00000001800d2270 f   GuBV4_BoxOverlap.obj
 0001:000d1a70       ?BV4_OverlapBoxCB@@YAXAEBVBox@Gu@physx@@AEBVBV4Tree@23@P6A_NPEAXAEBV?$PxVec3T@M@3@333IPEBI@Z2@Z 00000001800d2a70 f   GuBV4_BoxOverlap.obj
 0001:000d2130       ?BV4_OverlapBoxCB@@YAXAEBVBox@Gu@physx@@AEBVBV4Tree@23@P6A_NPEAXAEBV?$PxVec3T@M@3@33IPEBI@Z2@Z 00000001800d3130 f   GuBV4_BoxOverlap.obj
 0001:000d25e0       ?BV4_OverlapCapsuleAll@@YAIAEBVCapsule@Gu@physx@@AEBVBV4Tree@23@PEIBV?$PxMat44T@M@3@PEAIIAEA_N@Z 00000001800d35e0 f   GuBV4_BoxOverlap.obj
 0001:000d2d00       ?BV4_OverlapCapsuleAny@@YAHAEBVCapsule@Gu@physx@@AEBVBV4Tree@23@PEIBV?$PxMat44T@M@3@@Z 00000001800d3d00 f   GuBV4_BoxOverlap.obj
 0001:000d5bb0       ?BV4_CapsuleSweepSingle@@YAHAEBVCapsule@Gu@physx@@AEBV?$PxVec3T@M@3@MAEBVBV4Tree@23@PEIAVSweepHit@23@I@Z 00000001800d6bb0 f   GuBV4_CapsuleSweep.obj
 0001:000d9c80       ?BV4_CapsuleSweepSingleAA@@YAHAEBVCapsule@Gu@physx@@AEBV?$PxVec3T@M@3@MAEBVBV4Tree@23@PEIAVSweepHit@23@I@Z 00000001800dac80 f   GuBV4_CapsuleSweepAA.obj
 0001:000ea2b0       ?BV4_OverlapMeshVsMesh@@YA_NAEAV?$PxReportCallback@UPxGeomIndexPair@physx@@@physx@@AEBVBV4Tree@Gu@2@1PEBV?$PxMat44T@M@2@2AEBV?$PxTransformT@M@2@3AEBVPxMeshScale@2@4V?$PxFlags@W4Enum@PxMeshMeshQueryFlag@physx@@I@2@M@Z 00000001800eb2b0 f   GuBV4_MeshMeshOverlap.obj
 0001:000ea4f0       ?BV4_OverlapMeshVsMesh@@YA_NAEAV?$PxReportCallback@UPxGeomIndexPair@physx@@@physx@@AEBVBV4Tree@Gu@2@1PEBV?$PxMat44T@M@2@2V?$PxFlags@W4Enum@PxMeshMeshQueryFlag@physx@@I@2@M@Z 00000001800eb4f0 f   GuBV4_MeshMeshOverlap.obj
 0001:000f3cc0       ??D?$PxMat33T@M@physx@@QEBA?BV?$PxVec3T@M@1@AEBV21@@Z 00000001800f4cc0 f i GuBV4_OBBSweep.obj
 0001:000f3d50       ?BV4_BoxSweepSingle@@YAHAEBVBox@Gu@physx@@AEBV?$PxVec3T@M@3@MAEBVBV4Tree@23@PEIBV?$PxMat44T@M@3@PEIAVSweepHit@23@I@Z 00000001800f4d50 f   GuBV4_OBBSweep.obj
 0001:000f4480       ?BV4_GenericSweepCB@@YAXAEBVBox@Gu@physx@@AEBV?$PxVec3T@M@3@MAEBVBV4Tree@23@P6A_NPEAX111IAEAM@Z3_N@Z 00000001800f5480 f   GuBV4_OBBSweep.obj
 0001:000f46b0       ?Sweep_OBB_BV4@@YAHAEBVBox@Gu@physx@@AEBV?$PxVec3T@M@3@MAEBVBV4Tree@23@PEIAVSweepHit@23@I@Z 00000001800f56b0 f   GuBV4_OBBSweep.obj
 0001:000f71f0       ?BV4_RaycastCB@@YAXAEBV?$PxVec3T@M@physx@@0AEBVBV4Tree@Gu@2@PEIBV?$PxMat44T@M@2@MMIP6A?AW4HitCode@42@PEAX000IMMM@Z3@Z 00000001800f81f0 f   GuBV4_Raycast.obj
 0001:000f7630       ?BV4_RaycastSingle@@YAHAEBV?$PxVec3T@M@physx@@0AEBVBV4Tree@Gu@2@PEIBV?$PxMat44T@M@2@PEIAUPxGeomRaycastHit@2@MMIV?$PxFlags@W4Enum@PxHitFlag@physx@@G@2@@Z 00000001800f8630 f   GuBV4_Raycast.obj
 0001:000f9b60       ?BV4_OverlapSphereAll@@YAIAEBVSphere@Gu@physx@@AEBVBV4Tree@23@PEIBV?$PxMat44T@M@3@PEAIIAEA_N@Z 00000001800fab60 f   GuBV4_SphereOverlap.obj
 0001:000f9e80       ?BV4_OverlapSphereAny@@YAHAEBVSphere@Gu@physx@@AEBVBV4Tree@23@PEIBV?$PxMat44T@M@3@@Z 00000001800fae80 f   GuBV4_SphereOverlap.obj
 0001:000fa160       ?BV4_PointDistance@@YAXAEBV?$PxVec3T@M@physx@@AEBVBV4Tree@Gu@2@MAEAIAEAMAEAV12@@Z 00000001800fb160 f   GuBV4_SphereOverlap.obj
 0001:00100b30       ?BV4_GenericSweepCB_Old@@YAXAEBV?$PxVec3T@M@physx@@00MAEBVBV4Tree@Gu@2@PEIBV?$PxMat44T@M@2@P6A_NPEAX000IAEAM@Z3@Z 0000000180101b30 f   GuBV4_SphereSweep.obj
 0001:00100f40       ?BV4_SphereSweepSingle@@YAHAEBVSphere@Gu@physx@@AEBV?$PxVec3T@M@3@MAEBVBV4Tree@23@PEIBV?$PxMat44T@M@3@PEIAVSweepHit@23@I@Z 0000000180101f40 f   GuBV4_SphereSweep.obj
 0001:00102250       ?computeSweepData@physx@@YAMAEBVPxTriangleMeshGeometry@1@AEAV?$PxVec3T@M@1@11M@Z 0000000180103250 f i GuMidphaseBV4.obj
 0001:00103690       ?intersectBoxVsMesh_BV4@Gu@physx@@YA_NAEBVBox@12@AEBVTriangleMesh@12@AEBV?$PxTransformT@M@2@AEBVPxMeshScale@2@PEAULimitedResults@12@@Z 0000000180104690 f   GuMidphaseBV4.obj
 0001:00104170       ?intersectCapsuleVsMesh_BV4@Gu@physx@@YA_NAEBVCapsule@12@AEBVTriangleMesh@12@AEBV?$PxTransformT@M@2@AEBVPxMeshScale@2@PEAULimitedResults@12@@Z 0000000180105170 f   GuMidphaseBV4.obj
 0001:00104980       ?intersectMeshVsMesh_BV4@Gu@physx@@YA_NAEAV?$PxReportCallback@UPxGeomIndexPair@physx@@@2@AEBVTriangleMesh@12@AEBV?$PxTransformT@M@2@AEBVPxMeshScale@2@123V?$PxFlags@W4Enum@PxMeshMeshQueryFlag@physx@@I@2@M@Z 0000000180105980 f   GuMidphaseBV4.obj
 0001:001052a0       ?intersectOBB_BV4@Gu@physx@@YAXPEBVTetrahedronMesh@12@AEBVBox@12@AEAU?$TetMeshHitCallback@UPxGeomRaycastHit@physx@@@12@@Z 00000001801062a0 f   GuMidphaseBV4.obj
 0001:001052c0       ?intersectOBB_BV4@Gu@physx@@YAXPEBVTriangleMesh@12@AEBVBox@12@AEAU?$MeshHitCallback@UPxGeomRaycastHit@physx@@@12@_N3@Z 00000001801062c0 f   GuMidphaseBV4.obj
 0001:001052e0       ?intersectSphereVsMesh_BV4@Gu@physx@@YA_NAEBVSphere@12@AEBVTriangleMesh@12@AEBV?$PxTransformT@M@2@AEBVPxMeshScale@2@PEAULimitedResults@12@@Z 00000001801062e0 f   GuMidphaseBV4.obj
 0001:001059e0       ?pointMeshDistance_BV4@Gu@physx@@YAXPEBVTriangleMesh@12@AEBVPxTriangleMeshGeometry@2@AEBV?$PxTransformT@M@2@AEBV?$PxVec3T@M@2@MAEAIAEAMAEAV62@@Z 00000001801069e0 f   GuMidphaseBV4.obj
 0001:00106090       ?raycast_triangleMesh_BV4@Gu@physx@@YAIPEBVTriangleMesh@12@AEBVPxTriangleMeshGeometry@2@AEBV?$PxTransformT@M@2@AEBV?$PxVec3T@M@2@3MV?$PxFlags@W4Enum@PxHitFlag@physx@@G@2@IPEIAUPxGeomRaycastHit@2@I@Z 0000000180107090 f   GuMidphaseBV4.obj
 0001:00106ea0       ?sweepBox_MeshGeom_BV4@Gu@physx@@YA_NPEBVTriangleMesh@12@AEBVPxTriangleMeshGeometry@2@AEBV?$PxTransformT@M@2@AEBVBox@12@AEBV?$PxVec3T@M@2@MAEAUPxGeomSweepHit@2@V?$PxFlags@W4Enum@PxHitFlag@physx@@G@2@M@Z 0000000180107ea0 f   GuMidphaseBV4.obj
 0001:001085a0       ?sweepCapsule_MeshGeom_BV4@Gu@physx@@YA_NPEBVTriangleMesh@12@AEBVPxTriangleMeshGeometry@2@AEBV?$PxTransformT@M@2@AEBVCapsule@12@AEBV?$PxVec3T@M@2@MAEAUPxGeomSweepHit@2@V?$PxFlags@W4Enum@PxHitFlag@physx@@G@2@M@Z 00000001801095a0 f   GuMidphaseBV4.obj
 0001:001090c0       ?sweepConvex_MeshGeom_BV4@Gu@physx@@YAXPEBVTriangleMesh@12@AEBVBox@12@AEBV?$PxVec3T@M@2@MAEAUSweepConvexMeshHitCallback@12@_N@Z 000000018010a0c0 f   GuMidphaseBV4.obj
 0001:00109100       ?transform@PxMeshScale@physx@@QEBA?AV?$PxVec3T@M@2@AEBV32@@Z 000000018010a100 f i GuMidphaseBV4.obj
 0001:00109340       ?findOverlapHeightField@PxMeshQuery@physx@@SAIAEBVPxGeometry@2@AEBV?$PxTransformT@M@2@AEBVPxHeightFieldGeometry@2@1PEAIIIAEA_NV?$PxFlags@W4Enum@PxGeometryQueryFlag@physx@@I@2@@Z 000000018010a340 f   GuMeshQuery.obj
 0001:00109ab0       ?findOverlapTriangleMesh@PxMeshQuery@physx@@SAIAEBVPxGeometry@2@AEBV?$PxTransformT@M@2@AEBVPxTriangleMeshGeometry@2@1PEAIIIAEA_NV?$PxFlags@W4Enum@PxGeometryQueryFlag@physx@@I@2@@Z 000000018010aab0 f   GuMeshQuery.obj
 0001:00109dd0       ?findOverlapTriangleMesh@PxMeshQuery@physx@@SA_NAEAV?$PxReportCallback@UPxGeomIndexPair@physx@@@2@AEBVPxTriangleMeshGeometry@2@AEBV?$PxTransformT@M@2@12V?$PxFlags@W4Enum@PxGeometryQueryFlag@physx@@I@2@V?$PxFlags@W4Enum@PxMeshMeshQueryFlag@physx@@I@2@M@Z 000000018010add0 f   GuMeshQuery.obj
 0001:00109f00       ?getTriangle@PxMeshQuery@physx@@SAXAEBVPxHeightFieldGeometry@2@AEBV?$PxTransformT@M@2@IAEAVPxTriangle@2@PEAI3@Z 000000018010af00 f   GuMeshQuery.obj
 0001:00109f80       ?getTriangle@PxMeshQuery@physx@@SAXAEBVPxTriangleMeshGeometry@2@AEBV?$PxTransformT@M@2@IAEAVPxTriangle@2@PEAI3@Z 000000018010af80 f   GuMeshQuery.obj
 0001:0010a480       ?sweep@PxMeshQuery@physx@@SA_NAEBV?$PxVec3T@M@2@MAEBVPxGeometry@2@AEBV?$PxTransformT@M@2@IPEBVPxTriangle@2@AEAUPxGeomSweepHit@2@V?$PxFlags@W4Enum@PxHitFlag@physx@@G@2@PEBIM_NV?$PxFlags@W4Enum@PxGeometryQueryFlag@physx@@I@2@@Z 000000018010b480 f   GuMeshQuery.obj
 0001:0010a710       ??$collide@$00$00@MeshRayCollider@@SAXAEBV?$PxVec3T@M@physx@@0M_NPEBVRTreeTriangleMesh@Gu@2@AEAU?$MeshHitCallback@UPxGeomRaycastHit@physx@@@42@PEBV12@@Z 000000018010b710 f i GuMidphaseRTree.obj
 0001:0010aa80       ??$collide@$00$0A@@MeshRayCollider@@SAXAEBV?$PxVec3T@M@physx@@0M_NPEBVRTreeTriangleMesh@Gu@2@AEAU?$MeshHitCallback@UPxGeomRaycastHit@physx@@@42@PEBV12@@Z 000000018010ba80 f i GuMidphaseRTree.obj
 0001:0010acc0       ??$collide@$0A@$00@MeshRayCollider@@SAXAEBV?$PxVec3T@M@physx@@0M_NPEBVRTreeTriangleMesh@Gu@2@AEAU?$MeshHitCallback@UPxGeomRaycastHit@physx@@@42@PEBV12@@Z 000000018010bcc0 f i GuMidphaseRTree.obj
 0001:0010d000       ??0?$RayRTreeCallback@$00$0A@@@QEAA@MAEAU?$MeshHitCallback@UPxGeomRaycastHit@physx@@@Gu@physx@@HPEBXPEBV?$PxVec3T@M@3@AEBV43@3M_N2@Z 000000018010e000 f i GuMidphaseRTree.obj
 0001:0010d120       ??1?$RayRTreeCallback@$00$00@@UEAA@XZ 000000018010e120 f i GuMidphaseRTree.obj
 0001:0010d1b0       ??1?$RayRTreeCallback@$00$0A@@@UEAA@XZ 000000018010e1b0 f i GuMidphaseRTree.obj
 0001:0010d1b0       ??1?$RayRTreeCallback@$0A@$0A@@@UEAA@XZ 000000018010e1b0 f i GuMidphaseRTree.obj
 0001:0010d240       ??1?$RayRTreeCallback@$0A@$00@@UEAA@XZ 000000018010e240 f i GuMidphaseRTree.obj
 0001:0010d2c8       ??_E?$RayRTreeCallback@$00$00@@W7EAAPEAXI@Z 000000018010e2c8 f i GuMidphaseRTree.obj
 0001:0010d2d4       ??_E?$RayRTreeCallback@$00$0A@@@W7EAAPEAXI@Z 000000018010e2d4 f i GuMidphaseRTree.obj
 0001:0010d2d4       ??_E?$RayRTreeCallback@$0A@$0A@@@W7EAAPEAXI@Z 000000018010e2d4 f i GuMidphaseRTree.obj
 0001:0010d2e0       ??_E?$RayRTreeCallback@$0A@$00@@W7EAAPEAXI@Z 000000018010e2e0 f i GuMidphaseRTree.obj
 0001:0010d350       ??_E?$RayRTreeCallback@$00$00@@UEAAPEAXI@Z 000000018010e350 f i GuMidphaseRTree.obj
 0001:0010d350       ??_G?$RayRTreeCallback@$00$00@@UEAAPEAXI@Z 000000018010e350 f i GuMidphaseRTree.obj
 0001:0010d390       ??_E?$RayRTreeCallback@$00$0A@@@UEAAPEAXI@Z 000000018010e390 f i GuMidphaseRTree.obj
 0001:0010d390       ??_E?$RayRTreeCallback@$0A@$0A@@@UEAAPEAXI@Z 000000018010e390 f i GuMidphaseRTree.obj
 0001:0010d390       ??_G?$RayRTreeCallback@$00$0A@@@UEAAPEAXI@Z 000000018010e390 f i GuMidphaseRTree.obj
 0001:0010d390       ??_G?$RayRTreeCallback@$0A@$0A@@@UEAAPEAXI@Z 000000018010e390 f i GuMidphaseRTree.obj
 0001:0010d3d0       ??_E?$RayRTreeCallback@$0A@$00@@UEAAPEAXI@Z 000000018010e3d0 f i GuMidphaseRTree.obj
 0001:0010d3d0       ??_G?$RayRTreeCallback@$0A@$00@@UEAAPEAXI@Z 000000018010e3d0 f i GuMidphaseRTree.obj
 0001:0010d410       ??_ECallback@RTree@Gu@physx@@UEAAPEAXI@Z 000000018010e410 f i GuMidphaseRTree.obj
 0001:0010d410       ??_GCallback@RTree@Gu@physx@@UEAAPEAXI@Z 000000018010e410 f i GuMidphaseRTree.obj
 0001:0010d440       ??_ERayMeshColliderCallback@@UEAAPEAXI@Z 000000018010e440 f i GuMidphaseRTree.obj
 0001:0010d440       ??_ESweepCapsuleMeshHitCallback@Gu@physx@@UEAAPEAXI@Z 000000018010e440 f i GuSweepsMesh.obj
 0001:0010d440       ??_GRayMeshColliderCallback@@UEAAPEAXI@Z 000000018010e440 f i GuMidphaseRTree.obj
 0001:0010d440       ??_GSweepCapsuleMeshHitCallback@Gu@physx@@UEAAPEAXI@Z 000000018010e440 f i GuSweepsMesh.obj
 0001:0010d470       ?collideOBB@MeshRayCollider@@SAXAEBVBox@Gu@physx@@_NPEBVRTreeTriangleMesh@34@AEAU?$MeshHitCallback@UPxGeomRaycastHit@physx@@@34@1@Z 000000018010e470 f   GuMidphaseRTree.obj
 0001:0010d940       ?intersectBoxVsMesh_RTREE@Gu@physx@@YA_NAEBVBox@12@AEBVTriangleMesh@12@AEBV?$PxTransformT@M@2@AEBVPxMeshScale@2@PEAULimitedResults@12@@Z 000000018010e940 f   GuMidphaseRTree.obj
 0001:0010d9b0       ?intersectCapsuleVsMesh_RTREE@Gu@physx@@YA_NAEBVCapsule@12@AEBVTriangleMesh@12@AEBV?$PxTransformT@M@2@AEBVPxMeshScale@2@PEAULimitedResults@12@@Z 000000018010e9b0 f   GuMidphaseRTree.obj
 0001:0010da30       ?intersectOBB_RTREE@Gu@physx@@YAXPEBVTriangleMesh@12@AEBVBox@12@AEAU?$MeshHitCallback@UPxGeomRaycastHit@physx@@@12@_N3@Z 000000018010ea30 f   GuMidphaseRTree.obj
 0001:0010da60       ?intersectSphereVsMesh_RTREE@Gu@physx@@YA_NAEBVSphere@12@AEBVTriangleMesh@12@AEBV?$PxTransformT@M@2@AEBVPxMeshScale@2@PEAULimitedResults@12@@Z 000000018010ea60 f   GuMidphaseRTree.obj
 0001:0010da90       ?pointMeshDistance_RTREE@Gu@physx@@YAXPEBVTriangleMesh@12@AEBVPxTriangleMeshGeometry@2@AEBV?$PxTransformT@M@2@AEBV?$PxVec3T@M@2@MAEAIAEAMAEAV62@@Z 000000018010ea90 f   GuMidphaseRTree.obj
 0001:0010e880       ?processHit@RayMeshColliderCallback@@UEAA_NAEBUPxGeomRaycastHit@physx@@AEBV?$PxVec3T@M@3@11AEAMPEBI@Z 000000018010f880 f i GuMidphaseRTree.obj
 0001:0010f020       ?processResults@?$RayRTreeCallback@$00$00@@UEAA_NIPEAI@Z 0000000180110020 f i GuMidphaseRTree.obj
 0001:0010f390       ?processResults@?$RayRTreeCallback@$00$00@@UEAA_NIPEAIAEAM@Z 0000000180110390 f i GuMidphaseRTree.obj
 0001:0010f710       ?processResults@?$RayRTreeCallback@$00$0A@@@UEAA_NIPEAI@Z 0000000180110710 f i GuMidphaseRTree.obj
 0001:0010f710       ?processResults@?$RayRTreeCallback@$0A@$0A@@@UEAA_NIPEAI@Z 0000000180110710 f i GuMidphaseRTree.obj
 0001:0010f970       ?processResults@?$RayRTreeCallback@$00$0A@@@UEAA_NIPEAIAEAM@Z 0000000180110970 f i GuMidphaseRTree.obj
 0001:0010f970       ?processResults@?$RayRTreeCallback@$0A@$0A@@@UEAA_NIPEAIAEAM@Z 0000000180110970 f i GuMidphaseRTree.obj
 0001:0010fc00       ?processResults@?$RayRTreeCallback@$0A@$00@@UEAA_NIPEAI@Z 0000000180110c00 f i GuMidphaseRTree.obj
 0001:00110240       ?processResults@?$RayRTreeCallback@$0A@$00@@UEAA_NIPEAIAEAM@Z 0000000180111240 f i GuMidphaseRTree.obj
 0001:00110890       ?raycast_triangleMesh_RTREE@Gu@physx@@YAIPEBVTriangleMesh@12@AEBVPxTriangleMeshGeometry@2@AEBV?$PxTransformT@M@2@AEBV?$PxVec3T@M@2@3MV?$PxFlags@W4Enum@PxHitFlag@physx@@G@2@IPEIAUPxGeomRaycastHit@2@I@Z 0000000180111890 f   GuMidphaseRTree.obj
 0001:00111010       ?sweepBox_MeshGeom_RTREE@Gu@physx@@YA_NPEBVTriangleMesh@12@AEBVPxTriangleMeshGeometry@2@AEBV?$PxTransformT@M@2@AEBVBox@12@AEBV?$PxVec3T@M@2@MAEAUPxGeomSweepHit@2@V?$PxFlags@W4Enum@PxHitFlag@physx@@G@2@M@Z 0000000180112010 f   GuMidphaseRTree.obj
 0001:00112530       ?sweepCapsule_MeshGeom_RTREE@Gu@physx@@YA_NPEBVTriangleMesh@12@AEBVPxTriangleMeshGeometry@2@AEBV?$PxTransformT@M@2@AEBVCapsule@12@AEBV?$PxVec3T@M@2@MAEAUPxGeomSweepHit@2@V?$PxFlags@W4Enum@PxHitFlag@physx@@G@2@M@Z 0000000180113530 f   GuMidphaseRTree.obj
 0001:00112ce0       ?sweepConvex_MeshGeom_RTREE@Gu@physx@@YAXPEBVTriangleMesh@12@AEBVBox@12@AEBV?$PxVec3T@M@2@MAEAUSweepConvexMeshHitCallback@12@_N@Z 0000000180113ce0 f   GuMidphaseRTree.obj
 0001:00113690       ??_E?$PxReportCallback@UPxGeomIndexPair@physx@@@physx@@UEAAPEAXI@Z 0000000180114690 f i GuOverlapTestsMesh.obj
 0001:00113690       ??_G?$PxReportCallback@UPxGeomIndexPair@physx@@@physx@@UEAAPEAXI@Z 0000000180114690 f i GuOverlapTestsMesh.obj
 0001:00113720       ?GeomOverlapCallback_BoxMesh@@YA_NAEBVPxGeometry@physx@@AEBV?$PxTransformT@M@2@01PEAUTriggerCache@Gu@2@PEAUPxQueryThreadContext@2@@Z 0000000180114720 f   GuOverlapTestsMesh.obj
 0001:00113830       ?GeomOverlapCallback_CapsuleMesh@@YA_NAEBVPxGeometry@physx@@AEBV?$PxTransformT@M@2@01PEAUTriggerCache@Gu@2@PEAUPxQueryThreadContext@2@@Z 0000000180114830 f   GuOverlapTestsMesh.obj
 0001:00113940       ?GeomOverlapCallback_ConvexMesh@@YA_NAEBVPxGeometry@physx@@AEBV?$PxTransformT@M@2@01PEAUTriggerCache@Gu@2@PEAUPxQueryThreadContext@2@@Z 0000000180114940 f   GuOverlapTestsMesh.obj
 0001:00113e40       ?GeomOverlapCallback_MeshMesh@@YA_NAEBVPxGeometry@physx@@AEBV?$PxTransformT@M@2@01PEAUTriggerCache@Gu@2@PEAUPxQueryThreadContext@2@@Z 0000000180114e40 f   GuOverlapTestsMesh.obj
 0001:00113f10       ?GeomOverlapCallback_SphereMesh@@YA_NAEBVPxGeometry@physx@@AEBV?$PxTransformT@M@2@01PEAUTriggerCache@Gu@2@PEAUPxQueryThreadContext@2@@Z 0000000180114f10 f   GuOverlapTestsMesh.obj
 0001:00114300       ??0RTree@Gu@physx@@QEAA@W4PxEMPTY@2@@Z 0000000180115300 f   GuRTree.obj
 0001:00114310       ?exportExtraData@RTree@Gu@physx@@QEAAXAEAVPxSerializationContext@3@@Z 0000000180115310 f   GuRTree.obj
 0001:00114350       ?importExtraData@RTree@Gu@physx@@QEAAXAEAVPxDeserializationContext@3@@Z 0000000180115350 f   GuRTree.obj
 0001:00114380       ?load@RTree@Gu@physx@@QEAA_NAEAVPxInputStream@3@I_N@Z 0000000180115380 f   GuRTree.obj
 0001:00114680       ?refitAllStaticTree@RTree@Gu@physx@@QEAAXAEAUCallbackRefit@123@PEAVPxBounds3@3@@Z 0000000180115680 f   GuRTree.obj
 0001:00114be0       ?validate@RTree@Gu@physx@@QEAAXPEAUCallbackRefit@123@@Z 0000000180115be0 f   GuRTree.obj
 0001:00114e20       ?validateRecursive@RTree@Gu@physx@@IEAAXIURTreeNodeQ@23@PEAURTreePage@23@PEAUCallbackRefit@123@@Z 0000000180115e20 f   GuRTree.obj
 0001:00114fe0       ??$traverseRay@$00@RTree@Gu@physx@@QEBAXAEBV?$PxVec3T@M@2@0IPEAIPEAUCallbackRaycast@012@PEBV32@M@Z 0000000180115fe0 f i GuRTreeQueries.obj
 0001:00115380       ??$traverseRay@$0A@@RTree@Gu@physx@@QEBAXAEBV?$PxVec3T@M@2@0IPEAIPEAUCallbackRaycast@012@PEBV32@M@Z 0000000180116380 f i GuRTreeQueries.obj
 0001:001156d0       ?traverseAABB@RTree@Gu@physx@@QEBAXAEBV?$PxVec3T@M@3@0IPEAIPEAUCallback@123@@Z 00000001801166d0 f   GuRTreeQueries.obj
 0001:00115890       ?traverseOBB@RTree@Gu@physx@@QEBAXAEBVBox@23@IPEAIPEAUCallback@123@@Z 0000000180116890 f   GuRTreeQueries.obj
 0001:00116170       ??0SweepBoxMeshHitCallback@Gu@physx@@QEAA@W4Enum@CallbackMode@12@AEBVPxMat34Padded@2@M_NAEBVBox@12@AEBV?$PxVec3T@M@2@44AEBV?$PxFlags@W4Enum@PxHitFlag@physx@@G@2@M2M@Z 0000000180117170 f   GuSweepsMesh.obj
 0001:00116280       ??0SweepCapsuleMeshHitCallback@Gu@physx@@QEAA@AEAUPxGeomSweepHit@2@AEBV?$PxMat34T@M@2@M_NAEBVCapsule@12@AEBV?$PxVec3T@M@2@AEBV?$PxFlags@W4Enum@PxHitFlag@physx@@G@2@2M@Z 0000000180117280 f   GuSweepsMesh.obj
 0001:00116350       ??0SweepConvexMeshHitCallback@Gu@physx@@QEAA@AEBUConvexHullData@12@AEBVPxMeshScale@2@AEBVFastVertex2ShapeScaling@Cm@2@AEBV?$PxTransformT@M@2@3AEBV?$PxVec3T@M@2@MV?$PxFlags@W4Enum@PxHitFlag@physx@@G@2@_NM6M@Z 0000000180117350 f   GuSweepsMesh.obj
 0001:00116cb0       ??_ESweepBoxMeshHitCallback@Gu@physx@@UEAAPEAXI@Z 0000000180117cb0 f i GuSweepsMesh.obj
 0001:00116cb0       ??_GSweepBoxMeshHitCallback@Gu@physx@@UEAAPEAXI@Z 0000000180117cb0 f i GuSweepsMesh.obj
 0001:00116ce0       ??_ESweepConvexMeshHitCallback@Gu@physx@@UEAAPEAXI@Z 0000000180117ce0 f i GuSweepsMesh.obj
 0001:00116ce0       ??_GSweepConvexMeshHitCallback@Gu@physx@@UEAAPEAXI@Z 0000000180117ce0 f i GuSweepsMesh.obj
 0001:00116d10       ??_ESweepShapeMeshHitCallback@Gu@physx@@UEAAPEAXI@Z 0000000180117d10 f i GuSweepsMesh.obj
 0001:00116d10       ??_GSweepShapeMeshHitCallback@Gu@physx@@UEAAPEAXI@Z 0000000180117d10 f i GuSweepsMesh.obj
 0001:00116d40       ?finalizeHit@SweepBoxMeshHitCallback@Gu@physx@@QEBA_NAEAUPxGeomSweepHit@3@AEBVPxTriangleMeshGeometry@3@AEBV?$PxTransformT@M@3@2AEBV?$PxVec3T@M@3@_N4@Z 0000000180117d40 f   GuSweepsMesh.obj
 0001:00117400       ?finalizeHit@SweepCapsuleMeshHitCallback@Gu@physx@@QEBA_NAEAUPxGeomSweepHit@3@AEBVCapsule@23@AEBVPxTriangleMeshGeometry@3@AEBV?$PxTransformT@M@3@_N@Z 0000000180118400 f   GuSweepsMesh.obj
 0001:001175b0       ?finalizeHit@SweepConvexMeshHitCallback@Gu@physx@@QEAA_NAEAUPxGeomSweepHit@3@AEBVPxTriangleMeshGeometry@3@AEBV?$PxTransformT@M@3@AEBVPxConvexMeshGeometry@3@2AEBV?$PxVec3T@M@3@M_N555@Z 00000001801185b0 f   GuSweepsMesh.obj
 0001:00117a80       ?processHit@SweepBoxMeshHitCallback@Gu@physx@@UEAA_NAEBUPxGeomRaycastHit@3@AEBV?$PxVec3T@M@3@11AEAMPEBI@Z 0000000180118a80 f   GuSweepsMesh.obj
 0001:00118270       ?processHit@SweepCapsuleMeshHitCallback@Gu@physx@@UEAA_NAEBUPxGeomRaycastHit@3@AEBV?$PxVec3T@M@3@11AEAMPEBI@Z 0000000180119270 f   GuSweepsMesh.obj
 0001:001187d0       ?processHit@SweepConvexMeshHitCallback@Gu@physx@@UEAA_NAEBUPxGeomRaycastHit@3@AEBV?$PxVec3T@M@3@11AEAMPEBI@Z 00000001801197d0 f   GuSweepsMesh.obj
 0001:00118f10       ?sweepBox_MeshGeom@@YA_NAEBVPxGeometry@physx@@AEBV?$PxTransformT@M@2@AEBVPxBoxGeometry@2@1AEBVBox@Gu@2@AEBV?$PxVec3T@M@2@MAEAUPxGeomSweepHit@2@V?$PxFlags@W4Enum@PxHitFlag@physx@@G@2@MPEAUPxQueryThreadContext@2@@Z 0000000180119f10 f   GuSweepsMesh.obj
 0001:00118fa0       ?sweepCapsule_MeshGeom@@YA_NAEBVPxGeometry@physx@@AEBV?$PxTransformT@M@2@AEBVPxCapsuleGeometry@2@1AEBVCapsule@Gu@2@AEBV?$PxVec3T@M@2@MAEAUPxGeomSweepHit@2@V?$PxFlags@W4Enum@PxHitFlag@physx@@G@2@MPEAUPxQueryThreadContext@2@@Z 0000000180119fa0 f   GuSweepsMesh.obj
 0001:00119030       ?sweepConvex_MeshGeom@@YA_NAEBVPxGeometry@physx@@AEBV?$PxTransformT@M@2@AEBVPxConvexMeshGeometry@2@1AEBV?$PxVec3T@M@2@MAEAUPxGeomSweepHit@2@V?$PxFlags@W4Enum@PxHitFlag@physx@@G@2@MPEAUPxQueryThreadContext@2@@Z 000000018011a030 f   GuSweepsMesh.obj
 0001:00119b70       ??0TriangleMesh@Gu@physx@@QEAA@AEBUPxTriangleMeshInternalData@2@@Z 000000018011ab70 f   GuTriangleMesh.obj
 0001:00119c50       ??0TriangleMesh@Gu@physx@@QEAA@PEAVMeshFactory@12@AEAVTriangleMeshData@12@@Z 000000018011ac50 f   GuTriangleMesh.obj
 0001:00119fd0       ??1TriangleMesh@Gu@physx@@UEAA@XZ 000000018011afd0 f   GuTriangleMesh.obj
 0001:0011a240       ??_ETriangleMesh@Gu@physx@@UEAAPEAXI@Z 000000018011b240 f i GuTriangleMesh.obj
 0001:0011a240       ??_GTriangleMesh@Gu@physx@@UEAAPEAXI@Z 000000018011b240 f i GuTriangleMesh.obj
 0001:0011a2b0       ?exportExtraData@TriangleMesh@Gu@physx@@UEAAXAEAVPxSerializationContext@3@@Z 000000018011b2b0 f   GuTriangleMesh.obj
 0001:0011a480       ?getLocalBounds@TriangleMesh@Gu@physx@@UEBA?AVPxBounds3@3@XZ 000000018011b480 f i GuTriangleMesh.obj
 0001:0011a510       ?getMassInformation@TriangleMesh@Gu@physx@@UEBAXAEAMAEAV?$PxMat33T@M@3@AEAV?$PxVec3T@M@3@@Z 000000018011b510 f i GuTriangleMesh.obj
 0001:0011a590       ?getNbTriangles@TriangleMesh@Gu@physx@@UEBAIXZ 000000018011b590 f i GuTriangleMesh.obj
 0001:0011a5a0       ?getPreferSDFProjection@TriangleMesh@Gu@physx@@UEBA_NXZ 000000018011b5a0 f i GuTriangleMesh.obj
 0001:0011a5b0       ?getSDF@TriangleMesh@Gu@physx@@UEBAPEBMXZ 000000018011b5b0 f i GuTriangleMesh.obj
 0001:0011a5c0       ?getSDFDimensions@TriangleMesh@Gu@physx@@UEBAXAEAI00@Z 000000018011b5c0 f i GuTriangleMesh.obj
 0001:0011a5f0       ?getTriangleMaterialIndex@TriangleMesh@Gu@physx@@UEBAGI@Z 000000018011b5f0 f i GuTriangleMesh.obj
 0001:0011a610       ?getTriangleMeshFlags@TriangleMesh@Gu@physx@@UEBA?AV?$PxFlags@W4Enum@PxTriangleMeshFlag@physx@@E@3@XZ 000000018011b610 f i GuTriangleMesh.obj
 0001:0011a620       ?getTrianglesRemap@TriangleMesh@Gu@physx@@UEBAPEBIXZ 000000018011b620 f i GuTriangleMesh.obj
 0001:0011a630       ?getVerticesForModification@TriangleMesh@Gu@physx@@UEAAPEAV?$PxVec3T@M@3@XZ 000000018011b630 f   GuTriangleMesh.obj
 0001:0011a670       ?importExtraData@TriangleMesh@Gu@physx@@QEAAXAEAVPxDeserializationContext@3@@Z 000000018011b670 f   GuTriangleMesh.obj
 0001:0011a800       ?isKindOf@PxTriangleMesh@physx@@MEBA_NPEBD@Z 000000018011b800 f i GuTriangleMesh.obj
 0001:0011a890       ?onRefCountZero@TriangleMesh@Gu@physx@@UEAAXXZ 000000018011b890 f   GuTriangleMesh.obj
 0001:0011a960       ?refitBVH@TriangleMesh@Gu@physx@@UEAA?AVPxBounds3@3@XZ 000000018011b960 f   GuTriangleMesh.obj
 0001:0011aa30       ?requestEdgeList@TriangleMesh@Gu@physx@@QEBAPEBVEdgeList@23@XZ 000000018011ba30 f   GuTriangleMesh.obj
 0001:0011ab20       ?setAllEdgesActive@TriangleMesh@Gu@physx@@QEAAXXZ 000000018011bb20 f   GuTriangleMesh.obj
 0001:0011ac10       ?setPreferSDFProjection@TriangleMesh@Gu@physx@@UEAAX_N@Z 000000018011bc10 f i GuTriangleMesh.obj
 0001:0011ac40       ??0BV4TriangleMesh@Gu@physx@@QEAA@AEBUPxTriangleMeshInternalData@2@@Z 000000018011bc40 f   GuTriangleMeshBV4.obj
 0001:0011ada0       ??0BV4TriangleMesh@Gu@physx@@QEAA@PEAVMeshFactory@12@AEAVTriangleMeshData@12@@Z 000000018011bda0 f   GuTriangleMeshBV4.obj
 0001:0011ae30       ??_EBV4TriangleMesh@Gu@physx@@UEAAPEAXI@Z 000000018011be30 f i GuTriangleMeshBV4.obj
 0001:0011ae30       ??_GBV4TriangleMesh@Gu@physx@@UEAAPEAXI@Z 000000018011be30 f i GuTriangleMeshBV4.obj
 0001:0011aec0       ?createObject@BV4TriangleMesh@Gu@physx@@SAPEAVTriangleMesh@23@AEAPEAEAEAVPxDeserializationContext@3@@Z 000000018011bec0 f   GuTriangleMeshBV4.obj
 0001:0011afa0       ?exportExtraData@BV4TriangleMesh@Gu@physx@@UEAAXAEAVPxSerializationContext@3@@Z 000000018011bfa0 f   GuTriangleMeshBV4.obj
 0001:0011afe0       ?getConcreteTypeName@BV4TriangleMesh@Gu@physx@@UEBAPEBDXZ 000000018011bfe0 f i GuTriangleMeshBV4.obj
 0001:0011aff0       ?getInternalData@BV4TriangleMesh@Gu@physx@@UEBA_NAEAUPxTriangleMeshInternalData@3@_N@Z 000000018011bff0 f   GuTriangleMeshBV4.obj
 0001:0011b0e0       ?getMidphaseID@BV4TriangleMesh@Gu@physx@@UEBA?AW4Enum@PxMeshMidPhase@3@XZ 000000018011c0e0 f i GuTriangleMeshBV4.obj
 0001:0011b0e0       ?getMidphaseID@BV4TriangleMeshBuilder@physx@@UEBA?AW4Enum@PxMeshMidPhase@2@XZ 000000018011c0e0 f i GuCookingTriangleMesh.obj
 0001:0011b0e0       ?length@charNode@@UEBAHXZ  000000018011c0e0 f i libvcruntime:undname.obj
 0001:0011b0e0       ?raw_length@charNode@@UEBAHXZ 000000018011c0e0 f i libvcruntime:undname.obj
 0001:0011b0e0       DllMain                    000000018011c0e0 f i LIBCMT:dll_dllmain_stub.obj
 0001:0011b0e0       _get_startup_argv_mode     000000018011c0e0 f i LIBCMT:argv_mode.obj
 0001:0011b0f0       ?getVerticesForModification@BV4TriangleMesh@Gu@physx@@UEAAPEAV?$PxVec3T@M@3@XZ 000000018011c0f0 f   GuTriangleMeshBV4.obj
 0001:0011b0f0       ?getVerticesForModification@RTreeTriangleMesh@Gu@physx@@UEAAPEAV?$PxVec3T@M@3@XZ 000000018011c0f0 f   GuTriangleMeshRTree.obj
 0001:0011b100       ?refitBVH@BV4TriangleMesh@Gu@physx@@UEAA?AVPxBounds3@3@XZ 000000018011c100 f   GuTriangleMeshBV4.obj
 0001:0011b270       PxGetTriangleMeshInternalData 000000018011c270 f   GuTriangleMeshBV4.obj
 0001:0011b290       ??0RTreeTriangleMesh@Gu@physx@@QEAA@PEAVMeshFactory@12@AEAVTriangleMeshData@12@@Z 000000018011c290 f   GuTriangleMeshRTree.obj
 0001:0011b400       ??_E?$RefitCallback@G@physx@@UEAAPEAXI@Z 000000018011c400 f i GuTriangleMeshRTree.obj
 0001:0011b400       ??_E?$RefitCallback@I@physx@@UEAAPEAXI@Z 000000018011c400 f i GuTriangleMeshRTree.obj
 0001:0011b400       ??_G?$RefitCallback@G@physx@@UEAAPEAXI@Z 000000018011c400 f i GuTriangleMeshRTree.obj
 0001:0011b400       ??_G?$RefitCallback@I@physx@@UEAAPEAXI@Z 000000018011c400 f i GuTriangleMeshRTree.obj
 0001:0011b430       ??_ERTreeTriangleMesh@Gu@physx@@UEAAPEAXI@Z 000000018011c430 f i GuTriangleMeshRTree.obj
 0001:0011b430       ??_GRTreeTriangleMesh@Gu@physx@@UEAAPEAXI@Z 000000018011c430 f i GuTriangleMeshRTree.obj
 0001:0011b4e0       ?createObject@RTreeTriangleMesh@Gu@physx@@SAPEAVTriangleMesh@23@AEAPEAEAEAVPxDeserializationContext@3@@Z 000000018011c4e0 f   GuTriangleMeshRTree.obj
 0001:0011b570       ?exportExtraData@RTreeTriangleMesh@Gu@physx@@UEAAXAEAVPxSerializationContext@3@@Z 000000018011c570 f   GuTriangleMeshRTree.obj
 0001:0011b5b0       ?getConcreteTypeName@RTreeTriangleMesh@Gu@physx@@UEBAPEBDXZ 000000018011c5b0 f i GuTriangleMeshRTree.obj
 0001:0011b5c0       ?recomputeBounds@?$RefitCallback@G@physx@@UEAAXIAEAT__m128@@0@Z 000000018011c5c0 f i GuTriangleMeshRTree.obj
 0001:0011b8f0       ?recomputeBounds@?$RefitCallback@I@physx@@UEAAXIAEAT__m128@@0@Z 000000018011c8f0 f i GuTriangleMeshRTree.obj
 0001:0011bc10       ?refitBVH@RTreeTriangleMesh@Gu@physx@@UEAA?AVPxBounds3@3@XZ 000000018011cc10 f   GuTriangleMeshRTree.obj
 0001:0011bd30       ??0BV32Tree@Gu@physx@@QEAA@XZ 000000018011cd30 f   GuBV32.obj
 0001:0011bd60       ??1BV32Tree@Gu@physx@@QEAA@XZ 000000018011cd60 f   GuBV32.obj
 0001:0011bd70       ?createSOAformatNode@BV32Tree@Gu@physx@@QEAAXAEAUBV32DataPacked@23@AEBUBV32Data@23@IAEAI2@Z 000000018011cd70 f   GuBV32.obj
 0001:0011c1d0       ?load@BV32Tree@Gu@physx@@QEAA_NAEAVPxInputStream@3@_N@Z 000000018011d1d0 f   GuBV32.obj
 0001:0011c510       ?release@BV32Tree@Gu@physx@@QEAAXXZ 000000018011d510 f   GuBV32.obj
 0001:0011c5d0       ??0BV32Node@@QEAA@XZ       000000018011d5d0 f i GuBV32Build.obj
 0001:0011ca50       ?BuildBV32Ex@Gu@physx@@YA_NAEAVBV32Tree@12@AEAVSourceMeshBase@12@MI@Z 000000018011da50 f   GuBV32Build.obj
 0001:0011da70       ??0BVTetrahedronMesh@Gu@physx@@QEAA@AEAVTetrahedronMeshData@12@AEAVSoftBodyCollisionData@12@PEAVMeshFactory@12@@Z 000000018011ea70 f   GuTetrahedronMesh.obj
 0001:0011dcd0       ??0SoftBodyMesh@Gu@physx@@QEAA@PEAVMeshFactory@12@AEAVSoftBodyMeshData@12@@Z 000000018011ecd0 f   GuTetrahedronMesh.obj
 0001:0011e070       ??0TetrahedronMesh@Gu@physx@@QEAA@PEAVMeshFactory@12@AEAVTetrahedronMeshData@12@@Z 000000018011f070 f   GuTetrahedronMesh.obj
 0001:0011e160       ??1SoftBodyAuxData@Gu@physx@@UEAA@XZ 000000018011f160 f   GuTetrahedronMesh.obj
 0001:0011e3e0       ??1TetrahedronMesh@Gu@physx@@UEAA@XZ 000000018011f3e0 f   GuTetrahedronMesh.obj
 0001:0011e480       ??_EBVTetrahedronMesh@Gu@physx@@UEAAPEAXI@Z 000000018011f480 f i GuTetrahedronMesh.obj
 0001:0011e480       ??_GBVTetrahedronMesh@Gu@physx@@UEAAPEAXI@Z 000000018011f480 f i GuTetrahedronMesh.obj
 0001:0011e600       ??_ESoftBodyAuxData@Gu@physx@@UEAAPEAXI@Z 000000018011f600 f i GuTetrahedronMesh.obj
 0001:0011e600       ??_GSoftBodyAuxData@Gu@physx@@UEAAPEAXI@Z 000000018011f600 f i GuTetrahedronMesh.obj
 0001:0011e670       ??_ESoftBodyMesh@Gu@physx@@UEAAPEAXI@Z 000000018011f670 f i GuTetrahedronMesh.obj
 0001:0011e670       ??_GSoftBodyMesh@Gu@physx@@UEAAPEAXI@Z 000000018011f670 f i GuTetrahedronMesh.obj
 0001:0011e740       ??_ETetrahedronMesh@Gu@physx@@UEAAPEAXI@Z 000000018011f740 f i GuTetrahedronMesh.obj
 0001:0011e740       ??_GTetrahedronMesh@Gu@physx@@UEAAPEAXI@Z 000000018011f740 f i GuTetrahedronMesh.obj
 0001:0011e7b0       ?exportExtraData@SoftBodyMesh@Gu@physx@@UEAAXAEAVPxSerializationContext@3@@Z 000000018011f7b0 f   GuTetrahedronMesh.obj
 0001:0011e8a0       ?getConcreteTypeName@SoftBodyAuxData@Gu@physx@@UEBAPEBDXZ 000000018011f8a0 f i GuTetrahedronMesh.obj
 0001:0011e8b0       ?getConcreteTypeName@SoftBodyMesh@Gu@physx@@UEBAPEBDXZ 000000018011f8b0 f i GuTetrahedronMesh.obj
 0001:0011e8c0       ?getConcreteTypeName@TetrahedronMesh@Gu@physx@@UEBAPEBDXZ 000000018011f8c0 f i GuTetrahedronMesh.obj
 0001:0011e8d0       ?getLocalBounds@TetrahedronMesh@Gu@physx@@UEBA?AVPxBounds3@3@XZ 000000018011f8d0 f i GuTetrahedronMesh.obj
 0001:0011e960       ?getNbTetrahedrons@TetrahedronMesh@Gu@physx@@UEBAIXZ 000000018011f960 f i GuTetrahedronMesh.obj
 0001:0011e970       ?getBounds@BVH@Gu@physx@@UEBAPEBVPxBounds3@3@XZ 000000018011f970 f i GuBVH.obj
 0001:0011e970       ?getTetrahedraRemap@BVTetrahedronMesh@Gu@physx@@UEBAPEBIXZ 000000018011f970 f i GuTetrahedronMesh.obj
 0001:0011e980       ?getTetrahedronMeshFlags@TetrahedronMesh@Gu@physx@@UEBA?AV?$PxFlags@W4Enum@PxTetrahedronMeshFlag@physx@@E@3@XZ 000000018011f980 f i GuTetrahedronMesh.obj
 0001:0011e990       ?getTetrahedrons@TetrahedronMesh@Gu@physx@@UEBAPEBXXZ 000000018011f990 f i GuTetrahedronMesh.obj
 0001:0011e9a0       ?isKindOf@PxSoftBodyAuxData@physx@@MEBA_NPEBD@Z 000000018011f9a0 f i GuTetrahedronMesh.obj
 0001:0011ea30       ?isKindOf@PxSoftBodyMesh@physx@@MEBA_NPEBD@Z 000000018011fa30 f i GuTetrahedronMesh.obj
 0001:0011eac0       ?isKindOf@PxTetrahedronMesh@physx@@MEBA_NPEBD@Z 000000018011fac0 f i GuTetrahedronMesh.obj
 0001:0011eb50       ?onRefCountZero@SoftBodyAuxData@Gu@physx@@UEAAXXZ 000000018011fb50 f i GuTetrahedronMesh.obj
 0001:0011eb50       ?release@SimulationTetrahedronMeshData@Gu@physx@@UEAAXXZ 000000018011fb50 f i GuCookingTetrahedronMesh.obj
 0001:0011eb70       ?onRefCountZero@SoftBodyMesh@Gu@physx@@UEAAXXZ 000000018011fb70 f   GuTetrahedronMesh.obj
 0001:0011ec10       ?onRefCountZero@TetrahedronMesh@Gu@physx@@UEAAXXZ 000000018011fc10 f   GuTetrahedronMesh.obj
 0001:0011ecb0       ?addAxisToSimMeshBarycentric@Gu@physx@@YA?AV?$PxVec4T@M@2@AEBVPxTetrahedronMesh@2@IAEBV32@AEBV?$PxVec3T@M@2@@Z 000000018011fcb0 f   GuTetrahedronMeshUtils.obj
 0001:0011ef70       ?closestPtPointTetrahedron@Gu@physx@@YA?AV?$PxVec3T@M@2@AEBV32@0000@Z 000000018011ff70 f i GuTetrahedronMeshUtils.obj
 0001:001200b0       ?computeBarycentric@physx@@YAXAEBV?$PxVec3T@M@1@0000AEAV?$PxVec4T@M@1@@Z 00000001801210b0 f i GuTetrahedronMeshUtils.obj
 0001:00120360       ?convertSoftbodyCollisionToSimMeshTets@Gu@physx@@YAXAEBVPxTetrahedronMesh@2@AEBVSoftBodyAuxData@12@AEBVBVTetrahedronMesh@12@IAEBV?$PxVec4T@M@2@AEAIAEAV62@@Z 0000000180121360 f   GuTetrahedronMeshUtils.obj
 0001:00122f30       ?pcmContactBoxBox@Gu@physx@@YA_NAEBVPxGeometry@2@0AEBUPxTransformPadded@2@1AEBUNarrowPhaseParams@12@AEAUCache@12@AEAVPxContactBuffer@2@PEAVPxRenderOutput@2@@Z 0000000180123f30 f   GuPCMContactBoxBox.obj
 0001:00123dd0       ??$gjkPenetration@U?$RelativeConvex@VBoxV@Gu@physx@@@Gu@physx@@U?$LocalConvex@VConvexHullNoScaleV@Gu@physx@@@23@@Gu@physx@@YA?AW4GjkStatus@01@AEBU?$RelativeConvex@VBoxV@Gu@physx@@@01@AEBU?$LocalConvex@VConvexHullNoScaleV@Gu@physx@@@01@AEBT__m128@@2_NPEIAE4AEAEAEAUGjkOutput@01@@Z 0000000180124dd0 f i GuPCMContactBoxConvex.obj
 0001:00123e40       ??$gjkPenetration@U?$RelativeConvex@VBoxV@Gu@physx@@@Gu@physx@@U?$LocalConvex@VConvexHullNoScaleV@Gu@physx@@@23@@Gu@physx@@YA?AW4GjkStatus@01@AEBU?$RelativeConvex@VBoxV@Gu@physx@@@01@AEBU?$LocalConvex@VConvexHullNoScaleV@Gu@physx@@@01@AEBT__m128@@2_NPEIAE4PEIAT5@5AEAEAEAUGjkOutput@01@@Z 0000000180124e40 f i GuPCMContactBoxConvex.obj
 0001:00125a20       ?pcmContactBoxConvex@Gu@physx@@YA_NAEBVPxGeometry@2@0AEBUPxTransformPadded@2@1AEBUNarrowPhaseParams@12@AEAUCache@12@AEAVPxContactBuffer@2@PEAVPxRenderOutput@2@@Z 0000000180126a20 f   GuPCMContactBoxConvex.obj
 0001:00126820       ?support@?$LocalConvex@VConvexHullNoScaleV@Gu@physx@@@Gu@physx@@UEBA?AT__m128@@AEBT4@@Z 0000000180127820 f i GuPCMContactBoxConvex.obj
 0001:00126870       ?support@?$LocalConvex@VConvexHullNoScaleV@Gu@physx@@@Gu@physx@@UEBA?AT__m128@@AEBT4@AEAH@Z 0000000180127870 f i GuPCMContactBoxConvex.obj
 0001:001268d0       ?supportPoint@?$LocalConvex@VConvexHullNoScaleV@Gu@physx@@@Gu@physx@@UEBA?AT__m128@@H@Z 00000001801278d0 f i GuPCMContactBoxConvex.obj
 0001:00126900       ?pcmContactCapsuleBox@Gu@physx@@YA_NAEBVPxGeometry@2@0AEBUPxTransformPadded@2@1AEBUNarrowPhaseParams@12@AEAUCache@12@AEAVPxContactBuffer@2@PEAVPxRenderOutput@2@@Z 0000000180127900 f   GuPCMContactCapsuleBox.obj
 0001:00127870       ?pcmContactCapsuleCapsule@Gu@physx@@YA_NAEBVPxGeometry@2@0AEBUPxTransformPadded@2@1AEBUNarrowPhaseParams@12@AEAUCache@12@AEAVPxContactBuffer@2@PEAVPxRenderOutput@2@@Z 0000000180128870 f   GuPCMContactCapsuleCapsule.obj
 0001:00128010       ??$gjkPenetration@U?$LocalConvex@VCapsuleV@Gu@physx@@@Gu@physx@@U?$LocalConvex@VConvexHullNoScaleV@Gu@physx@@@23@@Gu@physx@@YA?AW4GjkStatus@01@AEBU?$LocalConvex@VCapsuleV@Gu@physx@@@01@AEBU?$LocalConvex@VConvexHullNoScaleV@Gu@physx@@@01@AEBT__m128@@2_NPEIAE4AEAEAEAUGjkOutput@01@@Z 0000000180129010 f i GuPCMContactCapsuleConvex.obj
 0001:00128080       ??$gjkPenetration@U?$LocalConvex@VCapsuleV@Gu@physx@@@Gu@physx@@U?$LocalConvex@VConvexHullNoScaleV@Gu@physx@@@23@@Gu@physx@@YA?AW4GjkStatus@01@AEBU?$LocalConvex@VCapsuleV@Gu@physx@@@01@AEBU?$LocalConvex@VConvexHullNoScaleV@Gu@physx@@@01@AEBT__m128@@2_NPEIAE4PEIAT5@5AEAEAEAUGjkOutput@01@@Z 0000000180129080 f i GuPCMContactCapsuleConvex.obj
 0001:00129740       ?pcmContactCapsuleConvex@Gu@physx@@YA_NAEBVPxGeometry@2@0AEBUPxTransformPadded@2@1AEBUNarrowPhaseParams@12@AEAUCache@12@AEAVPxContactBuffer@2@PEAVPxRenderOutput@2@@Z 000000018012a740 f   GuPCMContactCapsuleConvex.obj
 0001:0012a930       ??_EPCMCapsuleVsHeightfieldContactGenerationCallback@@UEAAPEAXI@Z 000000018012b930 f i GuPCMContactCapsuleHeightField.obj
 0001:0012a930       ??_GPCMCapsuleVsHeightfieldContactGenerationCallback@@UEAAPEAXI@Z 000000018012b930 f i GuPCMContactCapsuleHeightField.obj
 0001:0012a960       ?pcmContactCapsuleHeightField@Gu@physx@@YA_NAEBVPxGeometry@2@0AEBUPxTransformPadded@2@1AEBUNarrowPhaseParams@12@AEAUCache@12@AEAVPxContactBuffer@2@PEAVPxRenderOutput@2@@Z 000000018012b960 f   GuPCMContactCapsuleHeightField.obj
 0001:0012b880       ?reportTouchedTris@?$PCMHeightfieldContactGenerationCallback@UPCMCapsuleVsHeightfieldContactGenerationCallback@@@Gu@physx@@UEAA_NIPEBI@Z 000000018012c880 f i GuPCMContactCapsuleHeightField.obj
 0001:0012bef0       ?generateContacts@PCMCapsuleVsMeshContactGeneration@Gu@physx@@SAXAEBT__m128@@0000I000PEAVMeshPersistentContact@23@AEAI@Z 000000018012cef0 f   GuPCMContactCapsuleMesh.obj
 0001:0012c310       ?generateEE@PCMCapsuleVsMeshContactGeneration@Gu@physx@@QEAAXAEBT__m128@@000I00PEAVMeshPersistentContact@23@AEAI@Z 000000018012d310 f   GuPCMContactCapsuleMesh.obj
 0001:0012c580       ?generateEEMTD@PCMCapsuleVsMeshContactGeneration@Gu@physx@@SAXAEBT__m128@@000I00PEAVMeshPersistentContact@23@AEAI@Z 000000018012d580 f   GuPCMContactCapsuleMesh.obj
 0001:0012c7b0       ?pcmContactCapsuleMesh@Gu@physx@@YA_NAEBVPxGeometry@2@0AEBUPxTransformPadded@2@1AEBUNarrowPhaseParams@12@AEAUCache@12@AEAVPxContactBuffer@2@PEAVPxRenderOutput@2@@Z 000000018012d7b0 f   GuPCMContactCapsuleMesh.obj
 0001:0012e020       ?pcmDistanceSegmentTriangleSquaredExported@@YA?AT__m128@@AEBT1@0000AEAT1@11@Z 000000018012f020 f   GuPCMContactCapsuleMesh.obj
 0001:0012e480       ?processTriangle@PCMCapsuleVsMeshContactGeneration@Gu@physx@@QEAA_NPEBV?$PxVec3T@M@3@IEPEBI@Z 000000018012f480 f   GuPCMContactCapsuleMesh.obj
 0001:0012f080       ?processTriangle@PCMCapsuleVsMeshContactGeneration@Gu@physx@@SA_NAEBVTriangleV@23@IAEBVCapsuleV@23@AEBT__m128@@EPEAVMeshPersistentContact@23@AEAI@Z 0000000180130080 f   GuPCMContactCapsuleMesh.obj
 0001:0012f3b0       ?addContactsToPatch@PCMConvexVsMeshContactGeneration@Gu@physx@@QEAAXAEBT__m128@@I@Z 00000001801303b0 f   GuPCMContactConvexCommon.obj
 0001:0012fcf0       ?doSupport@?$SupportLocalImpl@VTriangleV@Gu@physx@@@Gu@physx@@UEBA?AT__m128@@AEBT4@@Z 0000000180130cf0 f i GuPCMContactConvexCommon.obj
 0001:0012fd80       ?doSupport@?$SupportLocalImpl@VTriangleV@Gu@physx@@@Gu@physx@@UEBAXAEBT__m128@@AEAT4@1@Z 0000000180130d80 f i GuPCMContactConvexCommon.obj
 0001:0012fdf0       ?generateLastContacts@PCMConvexVsMeshContactGeneration@Gu@physx@@QEAAXXZ 0000000180130df0 f   GuPCMContactConvexCommon.obj
 0001:00130350       ?populateVerts@?$SupportLocalImpl@VTriangleV@Gu@physx@@@Gu@physx@@UEBAXPEBEIPEBV?$PxVec3T@M@3@PEAT__m128@@@Z 0000000180131350 f i GuPCMContactConvexCommon.obj
 0001:00130490       ?processTriangle@PCMConvexVsMeshContactGeneration@Gu@physx@@QEAA_NPEBV?$PxVec3T@M@3@IEPEBI@Z 0000000180131490 f   GuPCMContactConvexCommon.obj
 0001:001309e0       ?processTriangle@PCMConvexVsMeshContactGeneration@Gu@physx@@SA_NAEBUPolygonalData@23@PEBVSupportLocal@23@PEBV?$PxVec3T@M@3@IEAEBT__m128@@_NAEBVPxTransformV@aos@3@AEBVPxMatTransformV@93@PEAVMeshPersistentContact@23@AEAI@Z 00000001801319e0 f   GuPCMContactConvexCommon.obj
 0001:00130c60       ??$gjkPenetration@U?$RelativeConvex@VConvexHullNoScaleV@Gu@physx@@@Gu@physx@@U?$LocalConvex@VConvexHullNoScaleV@Gu@physx@@@23@@Gu@physx@@YA?AW4GjkStatus@01@AEBU?$RelativeConvex@VConvexHullNoScaleV@Gu@physx@@@01@AEBU?$LocalConvex@VConvexHullNoScaleV@Gu@physx@@@01@AEBT__m128@@2_NPEIAE4AEAEAEAUGjkOutput@01@@Z 0000000180131c60 f i GuPCMContactConvexConvex.obj
 0001:00130cd0       ??$gjkPenetration@U?$RelativeConvex@VConvexHullNoScaleV@Gu@physx@@@Gu@physx@@U?$LocalConvex@VConvexHullNoScaleV@Gu@physx@@@23@@Gu@physx@@YA?AW4GjkStatus@01@AEBU?$RelativeConvex@VConvexHullNoScaleV@Gu@physx@@@01@AEBU?$LocalConvex@VConvexHullNoScaleV@Gu@physx@@@01@AEBT__m128@@2_NPEIAE4PEIAT5@5AEAEAEAUGjkOutput@01@@Z 0000000180131cd0 f i GuPCMContactConvexConvex.obj
 0001:001321e0       ??$gjkPenetration@U?$RelativeConvex@VConvexHullNoScaleV@Gu@physx@@@Gu@physx@@U?$LocalConvex@VConvexHullV@Gu@physx@@@23@@Gu@physx@@YA?AW4GjkStatus@01@AEBU?$RelativeConvex@VConvexHullNoScaleV@Gu@physx@@@01@AEBU?$LocalConvex@VConvexHullV@Gu@physx@@@01@AEBT__m128@@2_NPEIAE4AEAEAEAUGjkOutput@01@@Z 00000001801331e0 f i GuPCMContactConvexConvex.obj
 0001:00132250       ??$gjkPenetration@U?$RelativeConvex@VConvexHullNoScaleV@Gu@physx@@@Gu@physx@@U?$LocalConvex@VConvexHullV@Gu@physx@@@23@@Gu@physx@@YA?AW4GjkStatus@01@AEBU?$RelativeConvex@VConvexHullNoScaleV@Gu@physx@@@01@AEBU?$LocalConvex@VConvexHullV@Gu@physx@@@01@AEBT__m128@@2_NPEIAE4PEIAT5@5AEAEAEAUGjkOutput@01@@Z 0000000180133250 f i GuPCMContactConvexConvex.obj
 0001:001337f0       ??$gjkPenetration@U?$RelativeConvex@VConvexHullV@Gu@physx@@@Gu@physx@@U?$LocalConvex@VConvexHullNoScaleV@Gu@physx@@@23@@Gu@physx@@YA?AW4GjkStatus@01@AEBU?$RelativeConvex@VConvexHullV@Gu@physx@@@01@AEBU?$LocalConvex@VConvexHullNoScaleV@Gu@physx@@@01@AEBT__m128@@2_NPEIAE4AEAEAEAUGjkOutput@01@@Z 00000001801347f0 f i GuPCMContactConvexConvex.obj
 0001:00133860       ??$gjkPenetration@U?$RelativeConvex@VConvexHullV@Gu@physx@@@Gu@physx@@U?$LocalConvex@VConvexHullNoScaleV@Gu@physx@@@23@@Gu@physx@@YA?AW4GjkStatus@01@AEBU?$RelativeConvex@VConvexHullV@Gu@physx@@@01@AEBU?$LocalConvex@VConvexHullNoScaleV@Gu@physx@@@01@AEBT__m128@@2_NPEIAE4PEIAT5@5AEAEAEAUGjkOutput@01@@Z 0000000180134860 f i GuPCMContactConvexConvex.obj
 0001:00135880       ?pcmContactConvexConvex@Gu@physx@@YA_NAEBVPxGeometry@2@0AEBUPxTransformPadded@2@1AEBUNarrowPhaseParams@12@AEAUCache@12@AEAVPxContactBuffer@2@PEAVPxRenderOutput@2@@Z 0000000180136880 f   GuPCMContactConvexConvex.obj
 0001:00136980       ?support@?$RelativeConvex@VConvexHullNoScaleV@Gu@physx@@@Gu@physx@@UEBA?AT__m128@@AEBT4@@Z 0000000180137980 f i GuPCMContactConvexConvex.obj
 0001:00136a30       ?support@?$RelativeConvex@VConvexHullNoScaleV@Gu@physx@@@Gu@physx@@UEBA?AT__m128@@AEBT4@AEAH@Z 0000000180137a30 f i GuPCMContactConvexConvex.obj
 0001:00136af0       ?supportPoint@?$RelativeConvex@VConvexHullNoScaleV@Gu@physx@@@Gu@physx@@UEBA?AT__m128@@H@Z 0000000180137af0 f i GuPCMContactConvexConvex.obj
 0001:00136b80       ?PCMContactConvexHeightfield@Gu@physx@@YA_NAEBUPolygonalData@12@PEBVSupportLocal@12@AEBT__m128@@AEBVPxBounds3@2@AEBVPxHeightFieldGeometry@2@AEBV?$PxTransformT@M@2@5MAEAVPxContactBuffer@2@AEBVFastVertex2ShapeScaling@Cm@2@_NAEAVMultiplePersistentContactManifold@12@PEAVPxRenderOutput@2@@Z 0000000180137b80 f   GuPCMContactConvexHeightField.obj
 0001:00137a20       ?pcmContactBoxHeightField@Gu@physx@@YA_NAEBVPxGeometry@2@0AEBUPxTransformPadded@2@1AEBUNarrowPhaseParams@12@AEAUCache@12@AEAVPxContactBuffer@2@PEAVPxRenderOutput@2@@Z 0000000180138a20 f   GuPCMContactConvexHeightField.obj
 0001:00137cc0       ?pcmContactConvexHeightField@Gu@physx@@YA_NAEBVPxGeometry@2@0AEBUPxTransformPadded@2@1AEBUNarrowPhaseParams@12@AEAUCache@12@AEAVPxContactBuffer@2@PEAVPxRenderOutput@2@@Z 0000000180138cc0 f   GuPCMContactConvexHeightField.obj
 0001:001389f0       ?PCMContactConvexMesh@Gu@physx@@YA_NAEBUPolygonalData@12@PEBVSupportLocal@12@AEBT__m128@@AEBVPxBounds3@2@AEBVPxTriangleMeshGeometry@2@AEBV?$PxTransformT@M@2@5MAEAVPxContactBuffer@2@AEBVFastVertex2ShapeScaling@Cm@2@7_N8AEAVMultiplePersistentContactManifold@12@PEAVPxRenderOutput@2@@Z 00000001801399f0 f   GuPCMContactConvexMesh.obj
 0001:001394f0       ?pcmContactBoxMesh@Gu@physx@@YA_NAEBVPxGeometry@2@0AEBUPxTransformPadded@2@1AEBUNarrowPhaseParams@12@AEAUCache@12@AEAVPxContactBuffer@2@PEAVPxRenderOutput@2@@Z 000000018013a4f0 f   GuPCMContactConvexMesh.obj
 0001:00139830       ?pcmContactConvexMesh@Gu@physx@@YA_NAEBVPxGeometry@2@0AEBUPxTransformPadded@2@1AEBUNarrowPhaseParams@12@AEAUCache@12@AEAVPxContactBuffer@2@PEAVPxRenderOutput@2@@Z 000000018013a830 f   GuPCMContactConvexMesh.obj
 0001:0013a4c0       ?addGJKEPAContacts@Gu@physx@@YA_NPEBUGjkConvex@12@0AEBVPxMatTransformV@aos@2@W4GjkStatus@12@PEAVPersistentContact@12@T__m128@@4AEAUGjkOutput@12@AEAVPersistentContactManifold@12@@Z 000000018013b4c0 f   GuPCMContactGenBoxConvex.obj
 0001:0013a9a0       ?computeMTD@Gu@physx@@YA_NAEBUPolygonalData@12@0PEBVSupportLocal@12@1AEAT__m128@@2@Z 000000018013b9a0 f   GuPCMContactGenBoxConvex.obj
 0001:0013afd0       ?generateFullContactManifold@Gu@physx@@YA_NAEBUPolygonalData@12@0PEBVSupportLocal@12@1PEAVPersistentContact@12@AEAIAEBT__m128@@444MM_NPEAVPxRenderOutput@2@M@Z 000000018013bfd0 f   GuPCMContactGenBoxConvex.obj
 0001:0013cf40       ?computeMTD@Gu@physx@@YA_NAEBVCapsuleV@12@AEBUPolygonalData@12@PEBVSupportLocal@12@AEAT__m128@@3@Z 000000018013df40 f   GuPCMContactGenSphereCapsule.obj
 0001:0013d030       ?generateCapsuleBoxFullContactManifold@Gu@physx@@YA_NAEBVCapsuleV@12@AEBUPolygonalData@12@PEBVSupportLocal@12@AEBVPxMatTransformV@aos@2@PEAVPersistentContact@12@AEAIAEBT__m128@@AEAT9@6M_NMPEAVPxRenderOutput@2@@Z 000000018013e030 f   GuPCMContactGenSphereCapsule.obj
 0001:0013d1d0       ?generateFullContactManifold@Gu@physx@@YA_NAEBVCapsuleV@12@AEBUPolygonalData@12@PEBVSupportLocal@12@AEBVPxMatTransformV@aos@2@PEAVPersistentContact@12@AEAIAEBT__m128@@AEAT9@6M_NM@Z 000000018013e1d0 f   GuPCMContactGenSphereCapsule.obj
 0001:0013d3c0       ?generateSphereFullContactManifold@Gu@physx@@YA_NAEBVCapsuleV@12@AEBUPolygonalData@12@PEBVSupportLocal@12@PEAVPersistentContact@12@AEAIAEBT__m128@@AEAT7@_N@Z 000000018013e3c0 f   GuPCMContactGenSphereCapsule.obj
 0001:0013e890       ?pcmContactPlaneBox@Gu@physx@@YA_NAEBVPxGeometry@2@0AEBUPxTransformPadded@2@1AEBUNarrowPhaseParams@12@AEAUCache@12@AEAVPxContactBuffer@2@PEAVPxRenderOutput@2@@Z 000000018013f890 f   GuPCMContactPlaneBox.obj
 0001:0013f450       ?pcmContactPlaneCapsule@Gu@physx@@YA_NAEBVPxGeometry@2@0AEBUPxTransformPadded@2@1AEBUNarrowPhaseParams@12@AEAUCache@12@AEAVPxContactBuffer@2@PEAVPxRenderOutput@2@@Z 0000000180140450 f   GuPCMContactPlaneCapsule.obj
 0001:0013fbd0       ?pcmContactPlaneConvex@Gu@physx@@YA_NAEBVPxGeometry@2@0AEBUPxTransformPadded@2@1AEBUNarrowPhaseParams@12@AEAUCache@12@AEAVPxContactBuffer@2@PEAVPxRenderOutput@2@@Z 0000000180140bd0 f   GuPCMContactPlaneConvex.obj
 0001:00140850       ?pcmContactSphereBox@Gu@physx@@YA_NAEBVPxGeometry@2@0AEBUPxTransformPadded@2@1AEBUNarrowPhaseParams@12@AEAUCache@12@AEAVPxContactBuffer@2@PEAVPxRenderOutput@2@@Z 0000000180141850 f   GuPCMContactSphereBox.obj
 0001:00140cb0       ?pcmContactSphereCapsule@Gu@physx@@YA_NAEBVPxGeometry@2@0AEBUPxTransformPadded@2@1AEBUNarrowPhaseParams@12@AEAUCache@12@AEAVPxContactBuffer@2@PEAVPxRenderOutput@2@@Z 0000000180141cb0 f   GuPCMContactSphereCapsule.obj
 0001:00141120       ?pcmContactSphereConvex@Gu@physx@@YA_NAEBVPxGeometry@2@0AEBUPxTransformPadded@2@1AEBUNarrowPhaseParams@12@AEAUCache@12@AEAVPxContactBuffer@2@PEAVPxRenderOutput@2@@Z 0000000180142120 f   GuPCMContactSphereConvex.obj
 0001:00141df0       ??1?$PxArray@USortedTriangle@Gu@physx@@V?$PxInlineAllocator@$0IAA@V?$PxReflectionAllocator@USortedTriangle@Gu@physx@@@physx@@@3@@physx@@QEAA@XZ 0000000180142df0 f i GuPCMContactSphereHeightField.obj
 0001:00141eb0       ?pcmContactSphereHeightField@Gu@physx@@YA_NAEBVPxGeometry@2@0AEBUPxTransformPadded@2@1AEBUNarrowPhaseParams@12@AEAUCache@12@AEAVPxContactBuffer@2@PEAVPxRenderOutput@2@@Z 0000000180142eb0 f   GuPCMContactSphereHeightField.obj
 0001:00142f20       ??$PxSort@USortedTriangle@Gu@physx@@U?$PxLess@USortedTriangle@Gu@physx@@@3@V?$PxReflectionAllocator@USortedTriangle@Gu@physx@@@3@@physx@@YAXPEAUSortedTriangle@Gu@0@IAEBU?$PxLess@USortedTriangle@Gu@physx@@@0@AEBV?$PxReflectionAllocator@USortedTriangle@Gu@physx@@@0@I@Z 0000000180143f20 f i GuPCMContactSphereMesh.obj
 0001:00143440       ??$processTriangleCache@$0BA@VPCMSphereVsMeshContactGeneration@Gu@physx@@@PCMMeshContactGeneration@Gu@physx@@QEAA_NAEAU?$TriangleCache@$0BA@@12@@Z 0000000180144440 f i GuPCMContactSphereMesh.obj
 0001:00143910       ?addToPatch@PCMSphereVsMeshContactGeneration@Gu@physx@@QEAAXAEBT__m128@@0T4@I@Z 0000000180144910 f   GuPCMContactSphereMesh.obj
 0001:00143fd0       ?allocate@?$PxArray@IV?$PxInlineAllocator@$0PAA@V?$PxReflectionAllocator@I@physx@@@physx@@@physx@@IEAAPEAII@Z 0000000180144fd0 f i GuPCMContactSphereMesh.obj
 0001:00144090       ?allocate@?$PxArray@USortedTriangle@Gu@physx@@V?$PxInlineAllocator@$0IAA@V?$PxReflectionAllocator@USortedTriangle@Gu@physx@@@physx@@@3@@physx@@IEAAPEAUSortedTriangle@Gu@2@I@Z 0000000180145090 f i GuPCMContactSphereMesh.obj
 0001:00144150       ?generateLastContacts@PCMSphereVsMeshContactGeneration@Gu@physx@@QEAAXXZ 0000000180145150 f   GuPCMContactSphereMesh.obj
 0001:00144780       ?growAndPushBack@?$PxArray@USortedTriangle@Gu@physx@@V?$PxInlineAllocator@$0IAA@V?$PxReflectionAllocator@USortedTriangle@Gu@physx@@@physx@@@3@@physx@@IEAAAEAUSortedTriangle@Gu@2@AEBU342@@Z 0000000180145780 f i GuPCMContactSphereMesh.obj
 0001:00144890       ?pcmContactSphereMesh@Gu@physx@@YA_NAEBVPxGeometry@2@0AEBUPxTransformPadded@2@1AEBUNarrowPhaseParams@12@AEAUCache@12@AEAVPxContactBuffer@2@PEAVPxRenderOutput@2@@Z 0000000180145890 f   GuPCMContactSphereMesh.obj
 0001:00145e00       ?processTriangle@PCMSphereVsMeshContactGeneration@Gu@physx@@QEAA_NPEBV?$PxVec3T@M@3@IEPEBI@Z 0000000180146e00 f   GuPCMContactSphereMesh.obj
 0001:001461f0       ?recreate@?$PxArray@IV?$PxInlineAllocator@$0PAA@V?$PxReflectionAllocator@I@physx@@@physx@@@physx@@IEAAXI@Z 00000001801471f0 f i GuPCMContactSphereMesh.obj
 0001:001462b0       ?pcmContactSpherePlane@Gu@physx@@YA_NAEBVPxGeometry@2@0AEBUPxTransformPadded@2@1AEBUNarrowPhaseParams@12@AEAUCache@12@AEAVPxContactBuffer@2@PEAVPxRenderOutput@2@@Z 00000001801472b0 f   GuPCMContactSpherePlane.obj
 0001:00146430       ?pcmContactSphereSphere@Gu@physx@@YA_NAEBVPxGeometry@2@0AEBUPxTransformPadded@2@1AEBUNarrowPhaseParams@12@AEAUCache@12@AEAVPxContactBuffer@2@PEAVPxRenderOutput@2@@Z 0000000180147430 f   GuPCMContactSphereSphere.obj
 0001:00146d00       ?pcmContactGeometryCustomGeometry@Gu@physx@@YA_NAEBVPxGeometry@2@0AEBUPxTransformPadded@2@1AEBUNarrowPhaseParams@12@AEAUCache@12@AEAVPxContactBuffer@2@PEAVPxRenderOutput@2@@Z 0000000180147d00 f   GuPCMContactCustomGeometry.obj
 0001:00146db0       ?getPCMConvexData@Gu@physx@@YAXAEBVConvexHullV@12@_NAEAUPolygonalData@12@@Z 0000000180147db0 f   GuPCMShapeConvex.obj
 0001:00146df0       ?getPCMConvexData@Gu@physx@@YA_NAEBVPxConvexMeshGeometry@2@AEAVFastVertex2ShapeScaling@Cm@2@AEAVPxBounds3@2@AEAUPolygonalData@12@@Z 0000000180147df0 f   GuPCMShapeConvex.obj
 0001:00147350       ?getPolygonalData@PCMPolygonalBox@Gu@physx@@QEBAXPEIAUPolygonalData@23@@Z 0000000180148350 f   GuPCMShapeConvex.obj
 0001:001473d0       ?generatePolyDataContactManifold@PCMConvexVsMeshContactGeneration@Gu@physx@@QEAA_NAEBVTriangleV@23@IIEPEAVMeshPersistentContact@23@AEAIAEBT__m128@@AEAT6@@Z 00000001801483d0 f   GuPCMTriangleContactGen.obj
 0001:001474f0       ?generateTriangleFullContactManifold@PCMConvexVsMeshContactGeneration@Gu@physx@@QEAA_NAEBVTriangleV@23@IPEBIEAEBUPolygonalData@23@PEBV?$SupportLocalImpl@VTriangleV@Gu@physx@@@23@PEBVSupportLocal@23@PEAVMeshPersistentContact@23@AEAIAEBT__m128@@AEAT9@@Z 00000001801484f0 f   GuPCMTriangleContactGen.obj
 0001:00147a20       ?generateTriangleFullContactManifold@PCMConvexVsMeshContactGeneration@Gu@physx@@SA_NAEBVTriangleV@23@IEAEBUPolygonalData@23@PEBV?$SupportLocalImpl@VTriangleV@Gu@physx@@@23@PEBVSupportLocal@23@PEAVMeshPersistentContact@23@AEAIAEBT__m128@@AEAT9@PEAVPxRenderOutput@3@@Z 0000000180148a20 f   GuPCMTriangleContactGen.obj
 0001:00149ab0       ?addBatchManifoldContacts2@PersistentContactManifold@Gu@physx@@QEAAXPEBVPersistentContact@23@I@Z 000000018014aab0 f   GuPersistentContactManifold.obj
 0001:00149b20       ?addBatchManifoldContacts@PersistentContactManifold@Gu@physx@@QEAAXPEBVPersistentContact@23@IM@Z 000000018014ab20 f   GuPersistentContactManifold.obj
 0001:00149ba0       ?addBatchManifoldContactsCluster@PersistentContactManifold@Gu@physx@@QEAAXPEBVPersistentContact@23@I@Z 000000018014aba0 f   GuPersistentContactManifold.obj
 0001:00149e20       ?addManifoldContactPoints@MultiplePersistentContactManifold@Gu@physx@@QEAAXPEAVMeshPersistentContact@23@IPEAPEAUPCMContactPatch@23@IAEBT__m128@@2E@Z 000000018014ae20 f   GuPersistentContactManifold.obj
 0001:0014a210       ?addManifoldContactsToContactBuffer@MultiplePersistentContactManifold@Gu@physx@@QEAA_NAEAVPxContactBuffer@3@AEBVPxTransformV@aos@3@1AEBT__m128@@@Z 000000018014b210 f   GuPersistentContactManifold.obj
 0001:0014a4d0       ?addManifoldContactsToContactBuffer@MultiplePersistentContactManifold@Gu@physx@@QEAA_NAEAVPxContactBuffer@3@AEBVPxTransformV@aos@3@@Z 000000018014b4d0 f   GuPersistentContactManifold.obj
 0001:0014a750       ?addManifoldContactsToContactBuffer@PersistentContactManifold@Gu@physx@@QEAAXAEAVPxContactBuffer@3@AEBT__m128@@1AEBVPxTransformV@aos@3@11@Z 000000018014b750 f   GuPersistentContactManifold.obj
 0001:0014a8e0       ?addManifoldContactsToContactBuffer@PersistentContactManifold@Gu@physx@@QEAAXAEAVPxContactBuffer@3@AEBT__m128@@AEBVPxMatTransformV@aos@3@@Z 000000018014b8e0 f   GuPersistentContactManifold.obj
 0001:0014a990       ?addManifoldContactsToContactBuffer@PersistentContactManifold@Gu@physx@@QEAAXAEAVPxContactBuffer@3@AEBT__m128@@AEBVPxTransformV@aos@3@1@Z 000000018014b990 f   GuPersistentContactManifold.obj
 0001:0014aaf0       ?addManifoldPoint2@PersistentContactManifold@Gu@physx@@QEAAIAEBT__m128@@000@Z 000000018014baf0 f   GuPersistentContactManifold.obj
 0001:0014ac20       ?addManifoldPoint@Gu@physx@@YAXPEAVPersistentContact@12@AEAVPersistentContactManifold@12@AEAUGjkOutput@12@AEBVPxMatTransformV@aos@2@T__m128@@@Z 000000018014bc20 f   GuPersistentContactManifold.obj
 0001:0014add0       ?addManifoldPoint@PersistentContactManifold@Gu@physx@@QEAAIAEBT__m128@@000@Z 000000018014bdd0 f   GuPersistentContactManifold.obj
 0001:0014b210       ?drawLine@MultiplePersistentContactManifold@Gu@physx@@SAXAEAVPxRenderOutput@3@AEBT__m128@@1I@Z 000000018014c210 f   GuPersistentContactManifold.obj
 0001:0014b2c0       ?drawLine@MultiplePersistentContactManifold@Gu@physx@@SAXAEAVPxRenderOutput@3@V?$PxVec3T@M@3@1I@Z 000000018014c2c0 f   GuPersistentContactManifold.obj
 0001:0014b330       ?drawManifold@MultiplePersistentContactManifold@Gu@physx@@QEBAXAEAVPxRenderOutput@3@AEBVPxTransformV@aos@3@1@Z 000000018014c330 f   GuPersistentContactManifold.obj
 0001:0014b3b0       ?drawManifold@SinglePersistentContactManifold@Gu@physx@@QEBAXAEAVPxRenderOutput@3@AEBVPxTransformV@aos@3@1@Z 000000018014c3b0 f   GuPersistentContactManifold.obj
 0001:0014b9e0       ?drawPoint@MultiplePersistentContactManifold@Gu@physx@@SAXAEAVPxRenderOutput@3@AEBT__m128@@MI@Z 000000018014c9e0 f   GuPersistentContactManifold.obj
 0001:0014bbf0       ?drawPolygon@MultiplePersistentContactManifold@Gu@physx@@SAXAEAVPxRenderOutput@3@AEBVPxTransformV@aos@3@PEAT__m128@@II@Z 000000018014cbf0 f   GuPersistentContactManifold.obj
 0001:0014be70       ?findRotationMatrixFromZAxis@Gu@physx@@YA?AUMat33V@aos@2@AEBT__m128@@@Z 000000018014ce70 f   GuPersistentContactManifold.obj
 0001:0014c0f0       ?fromBuffer@MultiplePersistentContactManifold@Gu@physx@@QEAAXPEIAE@Z 000000018014d0f0 f   GuPersistentContactManifold.obj
 0001:0014c240       ?reduceBatchContacts2@PersistentContactManifold@Gu@physx@@QEAAXPEBVPersistentContact@23@I@Z 000000018014d240 f   GuPersistentContactManifold.obj
 0001:0014c440       ?reduceBatchContacts@PersistentContactManifold@Gu@physx@@QEAAXPEBVPersistentContact@23@IM@Z 000000018014d440 f   GuPersistentContactManifold.obj
 0001:0014c900       ?reduceBatchContactsCapsule@SinglePersistentContactManifold@Gu@physx@@QEAA?AT__m128@@PEBVMeshPersistentContact@23@IAEAUPCMContactPatch@23@@Z 000000018014d900 f   GuPersistentContactManifold.obj
 0001:0014cb90       ?reduceBatchContactsCluster@PersistentContactManifold@Gu@physx@@QEAAXPEBVPersistentContact@23@I@Z 000000018014db90 f   GuPersistentContactManifold.obj
 0001:0014d020       ?reduceBatchContactsConvex@SinglePersistentContactManifold@Gu@physx@@QEAA?AT__m128@@PEBVMeshPersistentContact@23@IAEAUPCMContactPatch@23@@Z 000000018014e020 f   GuPersistentContactManifold.obj
 0001:0014d610       ?reduceContacts@SinglePersistentContactManifold@Gu@physx@@SAIPEAVMeshPersistentContact@23@I@Z 000000018014e610 f   GuPersistentContactManifold.obj
 0001:0014db90       ?reduceContactsForPCM@PersistentContactManifold@Gu@physx@@QEAAIAEBT__m128@@00@Z 000000018014eb90 f   GuPersistentContactManifold.obj
 0001:0014e130       ?refreshContactPoints@SinglePersistentContactManifold@Gu@physx@@QEAA?AT__m128@@AEBVPxMatTransformV@aos@3@AEBT4@1@Z 000000018014f130 f   GuPersistentContactManifold.obj
 0001:0014e280       ?replaceManifoldPoint@PersistentContactManifold@Gu@physx@@QEAA_NAEBT__m128@@000@Z 000000018014f280 f   GuPersistentContactManifold.obj
 0001:0014e340       ?toBuffer@MultiplePersistentContactManifold@Gu@physx@@QEBAXPEIAE@Z 000000018014f340 f   GuPersistentContactManifold.obj
 0001:0014e420       ?contains@Gu@physx@@YA_NPEAT__m128@@IAEBT3@11@Z 000000018014f420 f   GuPCMContactGenUtil.obj
 0001:0014e5e0       ?getPolygonIndex@Gu@physx@@YAHAEBUPolygonalData@12@PEBVSupportLocal@12@AEBT__m128@@AEAH@Z 000000018014f5e0 f   GuPCMContactGenUtil.obj
 0001:0014e880       ?getWitnessPolygonIndex@Gu@physx@@YAIAEBUPolygonalData@12@PEBVSupportLocal@12@AEBT__m128@@2M@Z 000000018014f880 f   GuPCMContactGenUtil.obj
 0001:0014edd0       ?sweepBoxBox@Gu@physx@@YA_NAEBVBox@12@0AEBV?$PxVec3T@M@2@MV?$PxFlags@W4Enum@PxHitFlag@physx@@G@2@AEAUPxGeomSweepHit@2@@Z 000000018014fdd0 f   GuSweepBoxBox.obj
 0001:00150410       ?sweepBoxSphere@Gu@physx@@YA_NAEBVBox@12@MAEBV?$PxVec3T@M@2@1MAEAMAEAV42@V?$PxFlags@W4Enum@PxHitFlag@physx@@G@2@@Z 0000000180151410 f   GuSweepBoxSphere.obj
 0001:001510d0       ?sweepBoxTriangle@Gu@physx@@YA_NAEBVPxTriangle@2@AEBVPxBounds3@2@AEBV?$PxVec3T@M@2@2AEAV52@3AEAM_N@Z 00000001801520d0 f   GuSweepBoxTriangle_FeatureBased.obj
 0001:001527f0       ?triBoxSweepTestBoxSpace@Gu@physx@@YAHAEBVPxTriangle@2@AEBV?$PxVec3T@M@2@11MAEAM_N@Z 00000001801537f0 f   GuSweepBoxTriangle_SAT.obj
 0001:001540f0       ?sweepCapsuleBox@Gu@physx@@YA_NAEBVCapsule@12@AEBV?$PxTransformT@M@2@AEBV?$PxVec3T@M@2@2MAEAV52@AEAM3V?$PxFlags@W4Enum@PxHitFlag@physx@@G@2@@Z 00000001801550f0 f   GuSweepCapsuleBox.obj
 0001:00154450       ?distancePointSegmentSquared@Gu@physx@@YAMAEBVSegment@12@AEBV?$PxVec3T@M@2@PEAM@Z 0000000180155450 f i GuSweepCapsuleCapsule.obj
 0001:00154560       ?edgeEdgeDist@@YAXAEAV?$PxVec3T@M@physx@@0AEBV12@111@Z 0000000180155560 f   GuSweepCapsuleCapsule.obj
 0001:001547d0       ?sweepCapsuleCapsule@Gu@physx@@YA_NAEBVCapsule@12@0AEBV?$PxVec3T@M@2@MAEAMAEAV42@3IAEAG@Z 00000001801557d0 f   GuSweepCapsuleCapsule.obj
 0001:001555e0       ?sweepCapsuleTriangles_Precise@Gu@physx@@YA_NIPEIBVPxTriangle@2@AEBVCapsule@12@AEBV?$PxVec3T@M@2@MPEIBIAEAUPxGeomSweepHit@2@AEAV52@V?$PxFlags@W4Enum@PxHitFlag@physx@@G@2@_NPEBVBoxPadded@12@@Z 00000001801565e0 f   GuSweepCapsuleTriangle.obj
 0001:001577f0       ?sweepSphereCapsule@Gu@physx@@YA_NAEBVSphere@12@AEBVCapsule@12@AEBV?$PxVec3T@M@2@MAEAMAEAV52@4V?$PxFlags@W4Enum@PxHitFlag@physx@@G@2@@Z 00000001801587f0 f   GuSweepSphereCapsule.obj
 0001:00157e90       ?sweepSphereSphere@Gu@physx@@YA_NAEBV?$PxVec3T@M@2@M0M0AEAMAEAV32@@Z 0000000180158e90 f   GuSweepSphereSphere.obj
 0001:00158100       ?sweepSphereTriangles@Gu@physx@@YA_NIPEIBVPxTriangle@2@AEBV?$PxVec3T@M@2@M1MPEIBIAEAUPxGeomSweepHit@2@AEAV42@_N555@Z 0000000180159100 f   GuSweepSphereTriangle.obj
 0001:001589d0       ?sweepSphereVSQuad@Gu@physx@@YA_NPEIBV?$PxVec3T@M@2@AEBV32@1M1AEAM@Z 00000001801599d0 f   GuSweepSphereTriangle.obj
 0001:001599b0       ?sweepSphereVSTri@Gu@physx@@YA_NPEIBV?$PxVec3T@M@2@AEBV32@1M1AEAMAEA_N_N@Z 000000018015a9b0 f   GuSweepSphereTriangle.obj
 0001:0015a6d0       ??$gjk@U?$LocalConvex@VTriangleV@Gu@physx@@@Gu@physx@@U?$LocalConvex@VBoxV@Gu@physx@@@23@@Gu@physx@@YA?AW4GjkStatus@01@AEBU?$LocalConvex@VTriangleV@Gu@physx@@@01@AEBU?$LocalConvex@VBoxV@Gu@physx@@@01@AEBT__m128@@2AEAT5@333@Z 000000018015b6d0 f i GuSweepTriangleUtils.obj
 0001:0015b3b0       ?computeBoxTriImpactData@Gu@physx@@YAXAEAV?$PxVec3T@M@2@0AEBV32@1AEBVPxTriangle@2@M@Z 000000018015c3b0 f   GuSweepTriangleUtils.obj
 0001:0015b640       ?computeEdgeEdgeNormal@Gu@physx@@YAXAEAV?$PxVec3T@M@2@AEBV32@1111M@Z 000000018015c640 f   GuSweepTriangleUtils.obj
 0001:0015b8f0       ?computeSphereTriImpactData@Gu@physx@@YAXAEAV?$PxVec3T@M@2@0AEBV32@1MAEBVPxTriangle@2@@Z 000000018015c8f0 f   GuSweepTriangleUtils.obj
 0001:0015bdd0       ??0ShapeData@Gu@physx@@QEAA@AEBVPxGeometry@2@AEBV?$PxTransformT@M@2@M@Z 000000018015cdd0 f   GuBounds.obj
 0001:0015c340       ?computeBounds@Gu@physx@@YAXAEAVPxBounds3@2@AEBVPxGeometry@2@AEBV?$PxTransformT@M@2@MM@Z 000000018015d340 f   GuBounds.obj
 0001:0015cec0       ?computeBoundsAroundVertices@Gu@physx@@YAXAEAVPxBounds3@2@IPEIBV?$PxVec3T@M@2@@Z 000000018015dec0 f   GuBounds.obj
 0001:0015cf70       ?computeGlobalBox@Gu@physx@@YAXAEAVPxBounds3@2@IPEIBV32@PEIBI@Z 000000018015df70 f   GuBounds.obj
 0001:0015d000       ?computeLocalBoundsAndGeomEpsilon@Gu@physx@@YAXPEBV?$PxVec3T@M@2@IAEAVPxBounds3@2@AEAM@Z 000000018015e000 f   GuBounds.obj
 0001:0015e120       ?computeTightBounds@Gu@physx@@YAXAEAVPxBounds3@2@IPEIBV?$PxVec3T@M@2@AEBV?$PxTransformT@M@2@AEBVPxMeshScale@2@MM@Z 000000018015f120 f   GuBounds.obj
 0001:0015e4e0       ??0AABBTree@Gu@physx@@QEAA@XZ 000000018015f4e0 f   GuAABBTree.obj
 0001:0015e510       ??0BVHPartialRefitData@Gu@physx@@QEAA@XZ 000000018015f510 f   GuAABBTree.obj
 0001:0015e540       ??0NodeAllocator@Gu@physx@@QEAA@XZ 000000018015f540 f   GuAABBTree.obj
 0001:0015e560       ??1AABBTree@Gu@physx@@QEAA@XZ 000000018015f560 f   GuAABBTree.obj
 0001:0015e580       ??1BVHPartialRefitData@Gu@physx@@QEAA@XZ 000000018015f580 f   GuAABBTree.obj
 0001:0015e620       ??1NodeAllocator@Gu@physx@@QEAA@XZ 000000018015f620 f   GuAABBTree.obj
 0001:0015e670       ?_buildHierarchy@AABBTreeBuildNode@Gu@physx@@QEAAXAEBVAABBTreeBuildParams@23@AEAUBuildStats@23@AEAVNodeAllocator@23@QEAI@Z 000000018015f670 f   GuAABBTree.obj
 0001:0015e700       ?_buildHierarchySAH@AABBTreeBuildNode@Gu@physx@@QEAAXAEBVAABBTreeBuildParams@23@AEAUSAH_Buffers@23@AEAUBuildStats@23@AEAVNodeAllocator@23@QEAI@Z 000000018015f700 f   GuAABBTree.obj
 0001:0015e7b0       ?addRuntimeChilds@AABBTree@Gu@physx@@AEAAXAEAIAEBVAABBTreeMergeData@23@@Z 000000018015f7b0 f   GuAABBTree.obj
 0001:0015e8b0       ?build@AABBTree@Gu@physx@@QEAA_NAEBVAABBTreeBuildParams@23@AEAVNodeAllocator@23@@Z 000000018015f8b0 f   GuAABBTree.obj
 0001:0015ead0       ?buildAABBTree@Gu@physx@@YAPEAIAEBVAABBTreeBuildParams@12@AEAVNodeAllocator@12@AEAUBuildStats@12@@Z 000000018015fad0 f   GuAABBTree.obj
 0001:0015eb70       ?buildAABBTree@Gu@physx@@YAXIAEBVAABBTreeBounds@12@AEAV?$PxArray@UBVHNode@Gu@physx@@V?$PxReflectionAllocator@UBVHNode@Gu@physx@@@3@@2@@Z 000000018015fb70 f   GuAABBTree.obj
 0001:0015ef40       ?buildEnd@AABBTree@Gu@physx@@AEAAXAEBVAABBTreeBuildParams@23@AEAVNodeAllocator@23@AEBUBuildStats@23@@Z 000000018015ff40 f   GuAABBTree.obj
 0001:0015f160       ?createUpdateMap@BVHPartialRefitData@Gu@physx@@QEAAXI@Z 0000000180160160 f   GuAABBTree.obj
 0001:0015f280       ?flattenTree@Gu@physx@@YAXAEBVNodeAllocator@12@PEAUBVHNode@12@PEBI@Z 0000000180160280 f   GuAABBTree.obj
 0001:0015f470       ?fullRefit@BVHCoreData@Gu@physx@@QEAAXPEBVPxBounds3@3@@Z 0000000180160470 f   GuAABBTree.obj
 0001:0015f630       ?getBiNode@NodeAllocator@Gu@physx@@QEAAPEAVAABBTreeBuildNode@23@XZ 0000000180160630 f   GuAABBTree.obj
 0001:0015f760       ?getParentIndices@BVHPartialRefitData@Gu@physx@@IEAAPEAIXZ 0000000180160760 f   GuAABBTree.obj
 0001:0015f7f0       ?growAndPushBack@?$PxArray@PEAVAABBTreeBuildNode@Gu@physx@@V?$PxReflectionAllocator@PEAVAABBTreeBuildNode@Gu@physx@@@3@@physx@@IEAAAEAPEAVAABBTreeBuildNode@Gu@2@AEBQEAV342@@Z 00000001801607f0 f i GuAABBTree.obj
 0001:0015f910       ?growAndPushBack@?$PxArray@USlab@NodeAllocator@Gu@physx@@V?$PxReflectionAllocator@USlab@NodeAllocator@Gu@physx@@@4@@physx@@IEAAAEAUSlab@NodeAllocator@Gu@2@AEBU3452@@Z 0000000180160910 f i GuAABBTree.obj
 0001:0015f9d0       ?init@AABBTreeBounds@Gu@physx@@QEAAXIPEBVPxBounds3@3@@Z 00000001801609d0 f   GuAABBTree.obj
 0001:0015fa90       ?init@NodeAllocator@Gu@physx@@QEAAXII@Z 0000000180160a90 f   GuAABBTree.obj
 0001:0015fdd0       ?initTree@AABBTree@Gu@physx@@QEAAXAEBVAABBTreeMergeData@23@@Z 0000000180160dd0 f   GuAABBTree.obj
 0001:0015ff00       ?markNodeForRefit@BVHPartialRefitData@Gu@physx@@QEAAXI@Z 0000000180160f00 f   GuAABBTree.obj
 0001:00160010       ?mergeRuntimeLeaf@AABBTree@Gu@physx@@AEAAXAEAUBVHNode@23@AEBVAABBTreeMergeData@23@I@Z 0000000180161010 f   GuAABBTree.obj
 0001:00160260       ?mergeRuntimeNode@AABBTree@Gu@physx@@AEAAXAEAUBVHNode@23@AEBVAABBTreeMergeData@23@I@Z 0000000180161260 f   GuAABBTree.obj
 0001:00160580       ?mergeTree@AABBTree@Gu@physx@@QEAAXAEBVAABBTreeMergeData@23@@Z 0000000180161580 f   GuAABBTree.obj
 0001:00160810       ?progressiveBuild@AABBTree@Gu@physx@@QEAAIAEBVAABBTreeBuildParams@23@AEAVNodeAllocator@23@AEAUBuildStats@23@II@Z 0000000180161810 f   GuAABBTree.obj
 0001:00160ac0       ?refitMarkedNodes@BVHPartialRefitData@Gu@physx@@QEAAXPEBVPxBounds3@3@@Z 0000000180161ac0 f   GuAABBTree.obj
 0001:00160c30       ?release@AABBTree@Gu@physx@@QEAAX_N@Z 0000000180161c30 f   GuAABBTree.obj
 0001:00160d20       ?release@AABBTreeBounds@Gu@physx@@QEAAXXZ 0000000180161d20 f   GuAABBTree.obj
 0001:00160d70       ?release@NodeAllocator@Gu@physx@@QEAAXXZ 0000000180161d70 f   GuAABBTree.obj
 0001:00160e20       ?releasePartialRefitData@BVHPartialRefitData@Gu@physx@@QEAAX_N@Z 0000000180161e20 f   GuAABBTree.obj
 0001:00160eb0       ?reshuffle@Gu@physx@@YAIIQEIAIPEIBV?$PxVec3T@M@2@MI@Z 0000000180161eb0 f   GuAABBTree.obj
 0001:00160ff0       ?resize@?$PxArray@USlab@NodeAllocator@Gu@physx@@V?$PxReflectionAllocator@USlab@NodeAllocator@Gu@physx@@@4@@physx@@QEAAXIAEBUSlab@NodeAllocator@Gu@2@@Z 0000000180161ff0 f i GuAABBTree.obj
 0001:00161070       ?resize@AABBTreeBounds@Gu@physx@@QEAAXII@Z 0000000180162070 f   GuAABBTree.obj
 0001:00161110       ?shiftIndices@AABBTree@Gu@physx@@QEAAXI@Z 0000000180162110 f   GuAABBTree.obj
 0001:00161130       ?shiftOrigin@AABBTree@Gu@physx@@QEAAXAEBV?$PxVec3T@M@3@@Z 0000000180162130 f   GuAABBTree.obj
 0001:001614a0       ?subdivide@AABBTreeBuildNode@Gu@physx@@QEAAXAEBVAABBTreeBuildParams@23@AEAUBuildStats@23@AEAVNodeAllocator@23@QEAI@Z 00000001801624a0 f   GuAABBTree.obj
 0001:001616a0       ?subdivideSAH@AABBTreeBuildNode@Gu@physx@@QEAAXAEBVAABBTreeBuildParams@23@AEAUSAH_Buffers@23@AEAUBuildStats@23@AEAVNodeAllocator@23@QEAI@Z 00000001801626a0 f   GuAABBTree.obj
 0001:00161790       ?traverseRuntimeNode@AABBTree@Gu@physx@@AEAAXAEAUBVHNode@23@AEBVAABBTreeMergeData@23@I@Z 0000000180162790 f   GuAABBTree.obj
 0001:001618d0       ?initMap@AABBTreeUpdateMap@Gu@physx@@QEAAXIAEBVAABBTree@23@@Z 00000001801628d0 f   GuAABBTreeUpdateMap.obj
 0001:00161a60       ?invalidate@AABBTreeUpdateMap@Gu@physx@@QEAAXIIAEAVAABBTree@23@@Z 0000000180162a60 f   GuAABBTreeUpdateMap.obj
 0001:00161d00       ?visualizeTree@@YAXAEAVPxRenderOutput@physx@@IPEBVAABBTree@Gu@2@@Z 0000000180162d00 f   GuSqInternal.obj
 0001:00161d70       ?visualizeTree@@YAXAEAVPxRenderOutput@physx@@IPEBVBVH@Gu@2@@Z 0000000180162d70 f   GuSqInternal.obj
 0001:00161de0       ?visualizeTree@@YAXAEAVPxRenderOutput@physx@@IPEBVIncrementalAABBTree@Gu@2@PEAVDebugVizCallback@2@@Z 0000000180162de0 f   GuSqInternal.obj
 0001:00161e60       ??$PxSort@PEAXU?$PxLess@PEAX@physx@@V?$PxReflectionAllocator@UAABBTreeIndices@Gu@physx@@@2@@physx@@YAXPEAPEAXIAEBU?$PxLess@PEAX@0@AEBV?$PxReflectionAllocator@UAABBTreeIndices@Gu@physx@@@0@I@Z 0000000180162e60 f i GuIncrementalAABBTree.obj
 0001:001622c0       ??$PxSort@PEAXU?$PxLess@PEAX@physx@@V?$PxReflectionAllocator@UIncrementalAABBTreeNodePair@Gu@physx@@@2@@physx@@YAXPEAPEAXIAEBU?$PxLess@PEAX@0@AEBV?$PxReflectionAllocator@UIncrementalAABBTreeNodePair@Gu@physx@@@0@I@Z 00000001801632c0 f i GuIncrementalAABBTree.obj
 0001:00162720       ??0IncrementalAABBTree@Gu@physx@@QEAA@XZ 0000000180163720 f   GuIncrementalAABBTree.obj
 0001:001627a0       ??1?$PxPoolBase@UAABBTreeIndices@Gu@physx@@V?$PxReflectionAllocator@UAABBTreeIndices@Gu@physx@@@3@@physx@@QEAA@XZ 00000001801637a0 f i GuIncrementalAABBTree.obj
 0001:00162900       ??1?$PxPoolBase@UIncrementalAABBTreeNodePair@Gu@physx@@V?$PxReflectionAllocator@UIncrementalAABBTreeNodePair@Gu@physx@@@3@@physx@@QEAA@XZ 0000000180163900 f i GuIncrementalAABBTree.obj
 0001:00162a60       ??1IncrementalAABBTree@Gu@physx@@QEAA@XZ 0000000180163a60 f   GuIncrementalAABBTree.obj
 0001:00162aa0       ?allocate@?$PxArray@PEAXV?$PxReflectionAllocator@UAABBTreeIndices@Gu@physx@@@physx@@@physx@@IEAAPEAPEAXI@Z 0000000180163aa0 f i GuIncrementalAABBTree.obj
 0001:00162b30       ?allocate@?$PxArray@PEAXV?$PxReflectionAllocator@UIncrementalAABBTreeNodePair@Gu@physx@@@physx@@@physx@@IEAAPEAPEAXI@Z 0000000180163b30 f i GuIncrementalAABBTree.obj
 0001:00162bc0       ?allocate@?$PxPoolBase@UAABBTreeIndices@Gu@physx@@V?$PxReflectionAllocator@UAABBTreeIndices@Gu@physx@@@3@@physx@@QEAAPEAUAABBTreeIndices@Gu@2@XZ 0000000180163bc0 f i GuIncrementalAABBTree.obj
 0001:00162cb0       ?allocate@?$PxPoolBase@UIncrementalAABBTreeNodePair@Gu@physx@@V?$PxReflectionAllocator@UIncrementalAABBTreeNodePair@Gu@physx@@@3@@physx@@QEAAPEAUIncrementalAABBTreeNodePair@Gu@2@XZ 0000000180163cb0 f i GuIncrementalAABBTree.obj
 0001:00162da0       ?build@IncrementalAABBTree@Gu@physx@@QEAA_NAEBVAABBTreeBuildParams@23@AEAV?$PxArray@PEAVIncrementalAABBTreeNode@Gu@physx@@V?$PxReflectionAllocator@PEAVIncrementalAABBTreeNode@Gu@physx@@@3@@3@@Z 0000000180163da0 f   GuIncrementalAABBTree.obj
 0001:00162f80       ?clone@IncrementalAABBTree@Gu@physx@@AEAAXAEAV?$PxArray@PEAVIncrementalAABBTreeNode@Gu@physx@@V?$PxReflectionAllocator@PEAVIncrementalAABBTreeNode@Gu@physx@@@3@@3@PEBIPEAPEAVIncrementalAABBTreeNode@23@@Z 0000000180163f80 f   GuIncrementalAABBTree.obj
 0001:00163470       ?copy@IncrementalAABBTree@Gu@physx@@QEAAXAEBVBVH@23@AEAV?$PxArray@PEAVIncrementalAABBTreeNode@Gu@physx@@V?$PxReflectionAllocator@PEAVIncrementalAABBTreeNode@Gu@physx@@@3@@3@@Z 0000000180164470 f   GuIncrementalAABBTree.obj
 0001:00163520       ?copyNode@IncrementalAABBTree@Gu@physx@@AEAAXAEAVIncrementalAABBTreeNode@23@AEBUBVHNode@23@PEBU523@PEAV423@PEBIAEAV?$PxArray@PEAVIncrementalAABBTreeNode@Gu@physx@@V?$PxReflectionAllocator@PEAVIncrementalAABBTreeNode@Gu@physx@@@3@@3@@Z 0000000180164520 f   GuIncrementalAABBTree.obj
 0001:001636e0       ?fixupTreeIndices@IncrementalAABBTree@Gu@physx@@QEAAXPEAVIncrementalAABBTreeNode@23@II@Z 00000001801646e0 f   GuIncrementalAABBTree.obj
 0001:00163710       ?getTreeLeafDepth@IncrementalAABBTree@Gu@physx@@QEAAIPEAVIncrementalAABBTreeNode@23@@Z 0000000180164710 f   GuIncrementalAABBTree.obj
 0001:00163730       ?growAndPushBack@?$PxArray@PEAVIncrementalAABBTreeNode@Gu@physx@@V?$PxReflectionAllocator@PEAVIncrementalAABBTreeNode@Gu@physx@@@3@@physx@@IEAAAEAPEAVIncrementalAABBTreeNode@Gu@2@AEBQEAV342@@Z 0000000180164730 f i GuIncrementalAABBTree.obj
 0001:00163850       ?growAndPushBack@?$PxArray@PEAXV?$PxReflectionAllocator@UAABBTreeIndices@Gu@physx@@@physx@@@physx@@IEAAAEAPEAXAEBQEAX@Z 0000000180164850 f i GuIncrementalAABBTree.obj
 0001:00163910       ?growAndPushBack@?$PxArray@PEAXV?$PxReflectionAllocator@UIncrementalAABBTreeNodePair@Gu@physx@@@physx@@@physx@@IEAAAEAPEAXAEBQEAX@Z 0000000180164910 f i GuIncrementalAABBTree.obj
 0001:001639d0       ?hierarchyCheck@IncrementalAABBTree@Gu@physx@@QEAAXIPEBVPxBounds3@3@@Z 00000001801649d0 f   GuIncrementalAABBTree.obj
 0001:00163b20       ?hierarchyCheck@IncrementalAABBTree@Gu@physx@@QEAAXPEBVPxBounds3@3@@Z 0000000180164b20 f   GuIncrementalAABBTree.obj
 0001:00163c90       ?insert@IncrementalAABBTree@Gu@physx@@QEAAPEAVIncrementalAABBTreeNode@23@IPEBVPxBounds3@3@AEAV?$PxArray@PEAVIncrementalAABBTreeNode@Gu@physx@@V?$PxReflectionAllocator@PEAVIncrementalAABBTreeNode@Gu@physx@@@3@@3@@Z 0000000180164c90 f   GuIncrementalAABBTree.obj
 0001:00164370       ?recreate@?$PxArray@PEAXV?$PxReflectionAllocator@UAABBTreeIndices@Gu@physx@@@physx@@@physx@@IEAAXI@Z 0000000180165370 f i GuIncrementalAABBTree.obj
 0001:00164410       ?recreate@?$PxArray@PEAXV?$PxReflectionAllocator@UIncrementalAABBTreeNodePair@Gu@physx@@@physx@@@physx@@IEAAXI@Z 0000000180165410 f i GuIncrementalAABBTree.obj
 0001:001644b0       ?release@IncrementalAABBTree@Gu@physx@@QEAAXXZ 00000001801654b0 f   GuIncrementalAABBTree.obj
 0001:001644e0       ?releaseNode@IncrementalAABBTree@Gu@physx@@AEAAXPEAVIncrementalAABBTreeNode@23@@Z 00000001801654e0 f   GuIncrementalAABBTree.obj
 0001:00164570       ?remove@IncrementalAABBTree@Gu@physx@@QEAAPEAVIncrementalAABBTreeNode@23@PEAV423@IPEBVPxBounds3@3@@Z 0000000180165570 f   GuIncrementalAABBTree.obj
 0001:00164890       ?rotateTree@IncrementalAABBTree@Gu@physx@@AEAAXPEAVIncrementalAABBTreeNode@23@AEAV?$PxArray@PEAVIncrementalAABBTreeNode@Gu@physx@@V?$PxReflectionAllocator@PEAVIncrementalAABBTreeNode@Gu@physx@@@3@@3@IPEBVPxBounds3@3@_N@Z 0000000180165890 f   GuIncrementalAABBTree.obj
 0001:001651f0       ?shiftOrigin@IncrementalAABBTree@Gu@physx@@QEAAXAEBV?$PxVec3T@M@3@@Z 00000001801661f0 f   GuIncrementalAABBTree.obj
 0001:00165250       ?splitLeafNode@IncrementalAABBTree@Gu@physx@@AEAAPEAVIncrementalAABBTreeNode@23@PEAV423@IAEBT__m128@@1PEBVPxBounds3@3@@Z 0000000180166250 f   GuIncrementalAABBTree.obj
 0001:00165540       ?update@IncrementalAABBTree@Gu@physx@@QEAAPEAVIncrementalAABBTreeNode@23@PEAV423@IPEBVPxBounds3@3@AEAV?$PxArray@PEAVIncrementalAABBTreeNode@Gu@physx@@V?$PxReflectionAllocator@PEAVIncrementalAABBTreeNode@Gu@physx@@@3@@3@@Z 0000000180166540 f   GuIncrementalAABBTree.obj
 0001:00165600       ?updateFast@IncrementalAABBTree@Gu@physx@@QEAAPEAVIncrementalAABBTreeNode@23@PEAV423@IPEBVPxBounds3@3@AEAV?$PxArray@PEAVIncrementalAABBTreeNode@Gu@physx@@V?$PxReflectionAllocator@PEAVIncrementalAABBTreeNode@Gu@physx@@@3@@3@@Z 0000000180166600 f   GuIncrementalAABBTree.obj
 0001:00165820       ??0SAH_Buffers@Gu@physx@@QEAA@I@Z 0000000180166820 f   GuSAH.obj
 0001:00165930       ??1SAH_Buffers@Gu@physx@@QEAA@XZ 0000000180166930 f   GuSAH.obj
 0001:00165a00       ?split@SAH_Buffers@Gu@physx@@QEAA_NAEAIIPEIBIPEIBVPxBounds3@3@PEIBV?$PxVec3T@M@3@@Z 0000000180166a00 f   GuSAH.obj
 0001:001660d0       ??0BVH@Gu@physx@@QEAA@AEBUPxBVHInternalData@2@@Z 00000001801670d0 f   GuBVH.obj
 0001:00166190       ??0BVH@Gu@physx@@QEAA@PEAVMeshFactory@12@@Z 0000000180167190 f   GuBVH.obj
 0001:00166200       ??0BVH@Gu@physx@@QEAA@PEAVMeshFactory@12@AEAVBVHData@12@@Z 0000000180167200 f   GuBVH.obj
 0001:001662b0       ??1BVHData@Gu@physx@@QEAA@XZ 00000001801672b0 f i GuBVH.obj
 0001:00169cb0       ??_EBVH@Gu@physx@@WBA@EAAPEAXI@Z 000000018016acb0 f i GuBVH.obj
 0001:00169cc0       ??_EBVH@Gu@physx@@UEAAPEAXI@Z 000000018016acc0 f i GuBVH.obj
 0001:00169cc0       ??_GBVH@Gu@physx@@UEAAPEAXI@Z 000000018016acc0 f i GuBVH.obj
 0001:00169d50       ??_ERefCountable@Cm@physx@@UEAAPEAXI@Z 000000018016ad50 f i GuBVH.obj
 0001:00169d50       ??_GRefCountable@Cm@physx@@UEAAPEAXI@Z 000000018016ad50 f i GuBVH.obj
 0001:00169f80       ?allocate@?$PxArray@PEBUBVHNode@Gu@physx@@V?$PxInlineAllocator@$0IAA@V?$PxReflectionAllocator@PEBUBVHNode@Gu@physx@@@physx@@@3@@physx@@IEAAPEAPEBUBVHNode@Gu@2@I@Z 000000018016af80 f i GuBVH.obj
 0001:0016a040       ?build@BVHData@Gu@physx@@QEAA_NIPEBXIMIW4BVHBuildStrategy@23@@Z 000000018016b040 f   GuBVH.obj
 0001:0016a440       ?cull@BVH@Gu@physx@@UEBA_NIPEBVPxPlane@3@AEAUOverlapCallback@PxBVH@3@V?$PxFlags@W4Enum@PxGeometryQueryFlag@physx@@I@3@@Z 000000018016b440 f   GuBVH.obj
 0001:0016ad80       ?getConcreteTypeName@PxBVH@physx@@UEBAPEBDXZ 000000018016bd80 f i GuBVH.obj
 0001:0016ad90       ?init@BVH@Gu@physx@@QEAA_NIPEAVAABBTreeBounds@23@PEBXIW4BVHBuildStrategy@23@IM@Z 000000018016bd90 f   GuBVH.obj
 0001:0016b1a0       ?isKindOf@PxBVH@physx@@MEBA_NPEBD@Z 000000018016c1a0 f i GuBVH.obj
 0001:0016b210       ?load@BVH@Gu@physx@@QEAA_NAEAVPxInputStream@3@@Z 000000018016c210 f   GuBVH.obj
 0001:0016b3a0       ?onRefCountZero@BVH@Gu@physx@@UEAAXXZ 000000018016c3a0 f   GuBVH.obj
 0001:0016b480       ?onRefCountZero@RefCountable@Cm@physx@@UEAAXXZ 000000018016c480 f i GuBVH.obj
 0001:0016b4a0       ?overlap@BVH@Gu@physx@@QEBA_NAEBVShapeData@23@AEAUOverlapCallback@PxBVH@3@V?$PxFlags@W4Enum@PxGeometryQueryFlag@physx@@I@3@@Z 000000018016c4a0 f   GuBVH.obj
 0001:0016bcd0       ?overlap@BVH@Gu@physx@@UEBA_NAEBVPxGeometry@3@AEBV?$PxTransformT@M@3@AEAUOverlapCallback@PxBVH@3@V?$PxFlags@W4Enum@PxGeometryQueryFlag@physx@@I@3@@Z 000000018016ccd0 f   GuBVH.obj
 0001:0016bd30       ?partialRefit@BVH@Gu@physx@@UEAAXXZ 000000018016cd30 f   GuBVH.obj
 0001:0016bd40       ?raycast@BVH@Gu@physx@@UEBA_NAEBV?$PxVec3T@M@3@0MAEAURaycastCallback@PxBVH@3@V?$PxFlags@W4Enum@PxGeometryQueryFlag@physx@@I@3@@Z 000000018016cd40 f   GuBVH.obj
 0001:0016be70       ?recreate@?$PxArray@PEBUBVHNode@Gu@physx@@V?$PxInlineAllocator@$0IAA@V?$PxReflectionAllocator@PEBUBVHNode@Gu@physx@@@physx@@@3@@physx@@IEAAXI@Z 000000018016ce70 f i GuBVH.obj
 0001:0016bf30       ?refit@BVH@Gu@physx@@UEAAXXZ 000000018016cf30 f   GuBVH.obj
 0001:0016bf40       ?release@BVH@Gu@physx@@UEAAXXZ 000000018016cf40 f   GuBVH.obj
 0001:0016bf70       ?resizeUninitialized@?$PxArray@PEBUBVHNode@Gu@physx@@V?$PxInlineAllocator@$0IAA@V?$PxReflectionAllocator@PEBUBVHNode@Gu@physx@@@physx@@@3@@physx@@QEAAXI@Z 000000018016cf70 f i GuBVH.obj
 0001:0016bfc0       ?save@BVHData@Gu@physx@@QEBA_NAEAVPxOutputStream@3@_N@Z 000000018016cfc0 f   GuBVH.obj
 0001:0016c130       ?sweep@BVH@Gu@physx@@QEBA_NAEBVShapeData@23@AEBV?$PxVec3T@M@3@MAEAURaycastCallback@PxBVH@3@V?$PxFlags@W4Enum@PxGeometryQueryFlag@physx@@I@3@@Z 000000018016d130 f   GuBVH.obj
 0001:0016c320       ?sweep@BVH@Gu@physx@@UEBA_NAEBVPxGeometry@3@AEBV?$PxTransformT@M@3@AEBV?$PxVec3T@M@3@MAEAURaycastCallback@PxBVH@3@V?$PxFlags@W4Enum@PxGeometryQueryFlag@physx@@I@3@@Z 000000018016d320 f   GuBVH.obj
 0001:0016c3a0       ?traverse@BVH@Gu@physx@@UEBA_NAEAUTraversalCallback@PxBVH@3@@Z 000000018016d3a0 f   GuBVH.obj
 0001:0016c510       ?updateBounds@BVH@Gu@physx@@UEAA_NIAEBVPxBounds3@3@@Z 000000018016d510 f   GuBVH.obj
 0001:0016c5c0       ?updateBoundsInternal@BVH@Gu@physx@@QEAA_NIAEBVPxBounds3@3@@Z 000000018016d5c0 f   GuBVH.obj
 0001:0016c670       PxFindOverlap              000000018016d670 f   GuBVH.obj
 0001:0016c760       PxGetBVHInternalData       000000018016d760 f   GuBVH.obj
 0001:0016c7a0       ??0IncrementalAABBPrunerCore@Gu@physx@@QEAA@PEBVPruningPool@12@@Z 000000018016d7a0 f   GuIncrementalAABBPrunerCore.obj
 0001:0016c8b0       ??1IncrementalAABBPrunerCore@Gu@physx@@QEAA@XZ 000000018016d8b0 f   GuIncrementalAABBPrunerCore.obj
 0001:0016ca20       ??R?$AABBTreeOverlap@$00U?$OBBAABBTests@$00@Gu@physx@@VIncrementalAABBTree@23@VIncrementalAABBTreeNode@23@UOverlapCallbackAdapter@23@@Gu@physx@@QEAA_NAEBVAABBTreeBounds@12@AEBVIncrementalAABBTree@12@AEBU?$OBBAABBTests@$00@12@AEAUOverlapCallbackAdapter@12@@Z 000000018016da20 f i GuIncrementalAABBPrunerCore.obj
 0001:0016cfd0       ??R?$AABBTreeOverlap@$00UAABBAABBTest@Gu@physx@@VIncrementalAABBTree@23@VIncrementalAABBTreeNode@23@UOverlapCallbackAdapter@23@@Gu@physx@@QEAA_NAEBVAABBTreeBounds@12@AEBVIncrementalAABBTree@12@AEBUAABBAABBTest@12@AEAUOverlapCallbackAdapter@12@@Z 000000018016dfd0 f i GuIncrementalAABBPrunerCore.obj
 0001:0016d240       ??R?$AABBTreeOverlap@$00UCapsuleAABBTest@Gu@physx@@VIncrementalAABBTree@23@VIncrementalAABBTreeNode@23@UOverlapCallbackAdapter@23@@Gu@physx@@QEAA_NAEBVAABBTreeBounds@12@AEBVIncrementalAABBTree@12@AEBUCapsuleAABBTest@12@AEAUOverlapCallbackAdapter@12@@Z 000000018016e240 f i GuIncrementalAABBPrunerCore.obj
 0001:0016d660       ??R?$AABBTreeRaycast@$00$00VIncrementalAABBTree@Gu@physx@@VIncrementalAABBTreeNode@23@URaycastCallbackAdapter@23@@Gu@physx@@QEAA_NAEBVAABBTreeBounds@12@AEBVIncrementalAABBTree@12@AEBV?$PxVec3T@M@2@2AEAM2AEAURaycastCallbackAdapter@12@@Z 000000018016e660 f i GuIncrementalAABBPrunerCore.obj
 0001:0016dd20       ??R?$AABBTreeRaycast@$0A@$00VIncrementalAABBTree@Gu@physx@@VIncrementalAABBTreeNode@23@URaycastCallbackAdapter@23@@Gu@physx@@QEAA_NAEBVAABBTreeBounds@12@AEBVIncrementalAABBTree@12@AEBV?$PxVec3T@M@2@2AEAM2AEAURaycastCallbackAdapter@12@@Z 000000018016ed20 f i GuIncrementalAABBPrunerCore.obj
 0001:0016e370       ?addObject@IncrementalAABBPrunerCore@Gu@physx@@QEAA_NII@Z 000000018016f370 f   GuIncrementalAABBPrunerCore.obj
 0001:0016e460       ?allocate@?$PxArray@PEBVIncrementalAABBTreeNode@Gu@physx@@V?$PxInlineAllocator@$0IAA@V?$PxReflectionAllocator@PEBVIncrementalAABBTreeNode@Gu@physx@@@physx@@@3@@physx@@IEAAPEAPEBVIncrementalAABBTreeNode@Gu@2@I@Z 000000018016f460 f i GuIncrementalAABBPrunerCore.obj
 0001:0016e520       ?clear@?$PxHashMapBase@IPEAVIncrementalAABBTreeNode@Gu@physx@@U?$PxHash@I@3@VPxAllocator@3@@physx@@QEAAXXZ 000000018016f520 f i GuIncrementalAABBPrunerCore.obj
 0001:0016e520       ?clear@?$PxHashMapBase@UPrunerPayload@Gu@physx@@UExtendedBucketPrunerData@23@UExtendedBucketPrunerHash@23@VPxAllocator@3@@physx@@QEAAXXZ 000000018016f520 f i GuExtendedBucketPruner.obj
 0001:0016e5b0       ?create@?$PxHashBase@V?$PxPair@$$CBIPEAVIncrementalAABBTreeNode@Gu@physx@@@physx@@IU?$PxHash@I@2@UGetKey@?$PxHashMapBase@IPEAVIncrementalAABBTreeNode@Gu@physx@@U?$PxHash@I@3@VPxAllocator@3@@2@VPxAllocator@2@$00@physx@@QEAAPEAV?$PxPair@$$CBIPEAVIncrementalAABBTreeNode@Gu@physx@@@2@AEBIAEA_N@Z 000000018016f5b0 f i GuIncrementalAABBPrunerCore.obj
 0001:0016e700       ?erase@?$PxHashBase@V?$PxPair@$$CBIPEAVIncrementalAABBTreeNode@Gu@physx@@@physx@@IU?$PxHash@I@2@UGetKey@?$PxHashMapBase@IPEAVIncrementalAABBTreeNode@Gu@physx@@U?$PxHash@I@3@VPxAllocator@3@@2@VPxAllocator@2@$00@physx@@QEAA_NAEBIAEAV?$PxPair@$$CBIPEAVIncrementalAABBTreeNode@Gu@physx@@@2@@Z 000000018016f700 f i GuIncrementalAABBPrunerCore.obj
 0001:0016e870       ?getCurrentWorldBoxes@PruningPool@Gu@physx@@QEAAPEAVPxBounds3@3@XZ 000000018016f870 f i GuIncrementalAABBPrunerCore.obj
 0001:0016e870       ?getCurrentWorldBoxes@PruningPool@Gu@physx@@QEBAPEBVPxBounds3@3@XZ 000000018016f870 f i GuIncrementalAABBPrunerCore.obj
 0001:0016e870       ?getMesh@CollisionTetrahedronMeshData@Gu@physx@@UEAAPEAVPxTetrahedronMeshData@3@XZ 000000018016f870 f i GuCookingTetrahedronMesh.obj
 0001:0016e870       ?getMesh@CollisionTetrahedronMeshData@Gu@physx@@UEBAPEBVPxTetrahedronMeshData@3@XZ 000000018016f870 f i GuCookingTetrahedronMesh.obj
 0001:0016e870       ?getMesh@SimulationTetrahedronMeshData@Gu@physx@@UEAAPEAVPxTetrahedronMeshData@3@XZ 000000018016f870 f i GuCookingTetrahedronMesh.obj
 0001:0016e880       ?getGlobalBounds@IncrementalAABBPrunerCore@Gu@physx@@QEBAXAEAVPxBounds3@3@@Z 000000018016f880 f   GuIncrementalAABBPrunerCore.obj
 0001:0016e9b0       ?getIndex@PruningPool@Gu@physx@@QEBAII@Z 000000018016f9b0 f i GuIncrementalAABBPrunerCore.obj
 0001:0016e9c0       ?getPayloadData@PruningPool@Gu@physx@@QEBAAEBUPrunerPayload@23@IPEAUPrunerPayloadData@23@@Z 000000018016f9c0 f i GuIncrementalAABBPrunerCore.obj
 0001:0016ea10       ?overlap@IncrementalAABBPrunerCore@Gu@physx@@QEBA_NAEBVShapeData@23@AEAUPrunerOverlapCallback@23@@Z 000000018016fa10 f   GuIncrementalAABBPrunerCore.obj
 0001:0016f510       ?raycast@IncrementalAABBPrunerCore@Gu@physx@@QEBA_NAEBV?$PxVec3T@M@3@0AEAMAEAUPrunerRaycastCallback@23@@Z 0000000180170510 f   GuIncrementalAABBPrunerCore.obj
 0001:0016f5f0       ?recreate@?$PxArray@PEAVIncrementalAABBTreeNode@Gu@physx@@V?$PxReflectionAllocator@PEAVIncrementalAABBTreeNode@Gu@physx@@@3@@physx@@IEAAXI@Z 00000001801705f0 f i GuIncrementalAABBPrunerCore.obj
 0001:0016f6e0       ?recreate@?$PxArray@PEBVIncrementalAABBTreeNode@Gu@physx@@V?$PxInlineAllocator@$0IAA@V?$PxReflectionAllocator@PEBVIncrementalAABBTreeNode@Gu@physx@@@physx@@@3@@physx@@IEAAXI@Z 00000001801706e0 f i GuIncrementalAABBPrunerCore.obj
 0001:0016f7a0       ?release@IncrementalAABBPrunerCore@Gu@physx@@QEAAXXZ 00000001801707a0 f   GuIncrementalAABBPrunerCore.obj
 0001:0016f8a0       ?removeMarkedObjects@IncrementalAABBPrunerCore@Gu@physx@@QEAAII@Z 00000001801708a0 f   GuIncrementalAABBPrunerCore.obj
 0001:0016f900       ?removeObject@IncrementalAABBPrunerCore@Gu@physx@@QEAA_NIIAEAI@Z 0000000180170900 f   GuIncrementalAABBPrunerCore.obj
 0001:0016fb10       ?reserveInternal@?$PxHashBase@V?$PxPair@$$CBIPEAVIncrementalAABBTreeNode@Gu@physx@@@physx@@IU?$PxHash@I@2@UGetKey@?$PxHashMapBase@IPEAVIncrementalAABBTreeNode@Gu@physx@@U?$PxHash@I@3@VPxAllocator@3@@2@VPxAllocator@2@$00@physx@@AEAAXI@Z 0000000180170b10 f i GuIncrementalAABBPrunerCore.obj
 0001:0016fcd0       ?resizeUninitialized@?$PxArray@PEBVIncrementalAABBTreeNode@Gu@physx@@V?$PxInlineAllocator@$0IAA@V?$PxReflectionAllocator@PEBVIncrementalAABBTreeNode@Gu@physx@@@physx@@@3@@physx@@QEAAXI@Z 0000000180170cd0 f i GuIncrementalAABBPrunerCore.obj
 0001:0016fd20       ?setTransform@PruningPool@Gu@physx@@QEAA_NIAEBV?$PxTransformT@M@3@@Z 0000000180170d20 f i GuIncrementalAABBPrunerCore.obj
 0001:0016fd80       ?shiftOrigin@IncrementalAABBPrunerCore@Gu@physx@@QEAAXAEBV?$PxVec3T@M@3@@Z 0000000180170d80 f   GuIncrementalAABBPrunerCore.obj
 0001:0016fdd0       ?swapIndex@IncrementalAABBPrunerCore@Gu@physx@@QEAAXII@Z 0000000180170dd0 f   GuIncrementalAABBPrunerCore.obj
 0001:0016feb0       ?sweep@IncrementalAABBPrunerCore@Gu@physx@@QEBA_NAEBVShapeData@23@AEBV?$PxVec3T@M@3@AEAMAEAUPrunerRaycastCallback@23@@Z 0000000180170eb0 f   GuIncrementalAABBPrunerCore.obj
 0001:00170040       ?updateMapping@IncrementalAABBPrunerCore@Gu@physx@@AEAAXAEAV?$PxHashMap@IPEAVIncrementalAABBTreeNode@Gu@physx@@U?$PxHash@I@3@VPxAllocator@3@@3@IPEAVIncrementalAABBTreeNode@23@@Z 0000000180171040 f   GuIncrementalAABBPrunerCore.obj
 0001:00170190       ?updateObject@IncrementalAABBPrunerCore@Gu@physx@@QEAA_NI@Z 0000000180171190 f   GuIncrementalAABBPrunerCore.obj
 0001:00170330       ?visualize@IncrementalAABBPrunerCore@Gu@physx@@QEBAXAEAVPxRenderOutput@3@I@Z 0000000180171330 f   GuIncrementalAABBPrunerCore.obj
 0001:00170390       ??0IncrementalAABBPruner@Gu@physx@@QEAA@I_K@Z 0000000180171390 f   GuIncrementalAABBPruner.obj
 0001:00170440       ??R?$AABBTreeOverlap@$00USphereAABBTest@Gu@physx@@VIncrementalAABBTree@23@VIncrementalAABBTreeNode@23@UOverlapCallbackAdapter@23@@Gu@physx@@QEAA_NAEBVAABBTreeBounds@12@AEBVIncrementalAABBTree@12@AEBUSphereAABBTest@12@AEAUOverlapCallbackAdapter@12@@Z 0000000180171440 f i GuIncrementalAABBPruner.obj
 0001:00170720       ??_EBasePruner@Gu@physx@@UEAAPEAXI@Z 0000000180171720 f i GuIncrementalAABBPruner.obj
 0001:00170720       ??_GBasePruner@Gu@physx@@UEAAPEAXI@Z 0000000180171720 f i GuIncrementalAABBPruner.obj
 0001:00170770       ??_EIncrementalAABBPruner@Gu@physx@@UEAAPEAXI@Z 0000000180171770 f i GuIncrementalAABBPruner.obj
 0001:00170770       ??_GIncrementalAABBPruner@Gu@physx@@UEAAPEAXI@Z 0000000180171770 f i GuIncrementalAABBPruner.obj
 0001:00170880       ?addObjects@IncrementalAABBPruner@Gu@physx@@UEAA_NPEAIPEBVPxBounds3@3@PEBUPrunerPayload@23@PEBV?$PxTransformT@M@3@I_N@Z 0000000180171880 f   GuIncrementalAABBPruner.obj
 0001:00170a00       ?commit@IncrementalAABBPruner@Gu@physx@@UEAAXXZ 0000000180171a00 f   GuIncrementalAABBPruner.obj
 0001:00170bd0       ?getGlobalBounds@IncrementalAABBPruner@Gu@physx@@UEBAXAEAVPxBounds3@3@@Z 0000000180171bd0 f   GuIncrementalAABBPruner.obj
 0001:00170c40       ?getPayloadData@IncrementalAABBPruner@Gu@physx@@UEBAAEBUPrunerPayload@23@IPEAUPrunerPayloadData@23@@Z 0000000180171c40 f i GuIncrementalAABBPruner.obj
 0001:00170c90       ?overlap@IncrementalAABBPruner@Gu@physx@@UEBA_NAEBVShapeData@23@AEAUPrunerOverlapCallback@23@@Z 0000000180171c90 f   GuIncrementalAABBPruner.obj
 0001:001713a0       ?preallocate@IncrementalAABBPruner@Gu@physx@@UEAAXI@Z 00000001801723a0 f i GuIncrementalAABBPruner.obj
 0001:001713b0       ?purge@IncrementalAABBPruner@Gu@physx@@UEAAXXZ 00000001801723b0 f   GuIncrementalAABBPruner.obj
 0001:00171400       ?raycast@IncrementalAABBPruner@Gu@physx@@UEBA_NAEBV?$PxVec3T@M@3@0AEAMAEAUPrunerRaycastCallback@23@@Z 0000000180172400 f   GuIncrementalAABBPruner.obj
 0001:00171480       ?removeObjects@IncrementalAABBPruner@Gu@physx@@UEAAXPEBIIPEAUPrunerPayloadRemovalCallback@23@@Z 0000000180172480 f   GuIncrementalAABBPruner.obj
 0001:00171680       ?resize@?$PxArray@PEAVIncrementalAABBTreeNode@Gu@physx@@V?$PxReflectionAllocator@PEAVIncrementalAABBTreeNode@Gu@physx@@@3@@physx@@QEAAXIAEBQEAVIncrementalAABBTreeNode@Gu@2@@Z 0000000180172680 f i GuIncrementalAABBPruner.obj
 0001:00171740       ?resizeUninitialized@?$PxArray@PEAVIncrementalAABBTreeNode@Gu@physx@@V?$PxReflectionAllocator@PEAVIncrementalAABBTreeNode@Gu@physx@@@3@@physx@@QEAAXI@Z 0000000180172740 f i GuIncrementalAABBPruner.obj
 0001:00171780       ?setTransform@IncrementalAABBPruner@Gu@physx@@UEAA_NIAEBV?$PxTransformT@M@3@@Z 0000000180172780 f i GuIncrementalAABBPruner.obj
 0001:001717e0       ?shiftOrigin@IncrementalAABBPruner@Gu@physx@@UEAAXAEBV?$PxVec3T@M@3@@Z 00000001801727e0 f   GuIncrementalAABBPruner.obj
 0001:00171820       ?sweep@IncrementalAABBPruner@Gu@physx@@UEBA_NAEBVShapeData@23@AEBV?$PxVec3T@M@3@AEAMAEAUPrunerRaycastCallback@23@@Z 0000000180172820 f   GuIncrementalAABBPruner.obj
 0001:00171940       ?updateMapping@IncrementalAABBPruner@Gu@physx@@AEAAXIPEAVIncrementalAABBTreeNode@23@@Z 0000000180172940 f   GuIncrementalAABBPruner.obj
 0001:00171a30       ?updateObjects@IncrementalAABBPruner@Gu@physx@@UEAAXPEBIIM0PEBVPxBounds3@3@PEBUPxTransformPadded@3@@Z 0000000180172a30 f   GuIncrementalAABBPruner.obj
 0001:00171bf0       ?visualize@IncrementalAABBPruner@Gu@physx@@UEBAXAEAVPxRenderOutput@3@II@Z 0000000180172bf0 f   GuIncrementalAABBPruner.obj
 0001:00171de0       ??0PruningPool@Gu@physx@@QEAA@_KW4TransformCacheMode@12@@Z 0000000180172de0 f   GuPruningPool.obj
 0001:00171e10       ??1PruningPool@Gu@physx@@QEAA@XZ 0000000180172e10 f   GuPruningPool.obj
 0001:00171ee0       ?addObjects@PruningPool@Gu@physx@@QEAAIPEAIPEBVPxBounds3@3@PEBUPrunerPayload@23@PEBV?$PxTransformT@M@3@I@Z 0000000180172ee0 f   GuPruningPool.obj
 0001:00172160       ?preallocate@PruningPool@Gu@physx@@QEAAXI@Z 0000000180173160 f   GuPruningPool.obj
 0001:00172170       ?removeObject@PruningPool@Gu@physx@@QEAAIIPEAUPrunerPayloadRemovalCallback@23@@Z 0000000180173170 f   GuPruningPool.obj
 0001:00172340       ?resize@PruningPool@Gu@physx@@QEAA_NI@Z 0000000180173340 f   GuPruningPool.obj
 0001:001726e0       ?shiftOrigin@PruningPool@Gu@physx@@QEAAXAEBV?$PxVec3T@M@3@@Z 00000001801736e0 f   GuPruningPool.obj
 0001:00172b30       ?updateAndInflateBounds@PruningPool@Gu@physx@@QEAAXPEBI0PEBVPxBounds3@3@PEBUPxTransformPadded@3@IM@Z 0000000180173b30 f   GuPruningPool.obj
 0001:00174640       ??0BucketPruner@Gu@physx@@QEAA@_K@Z 0000000180175640 f   GuBucketPruner.obj
 0001:00174690       ??0BucketPrunerCore@Gu@physx@@QEAA@_N@Z 0000000180175690 f   GuBucketPruner.obj
 0001:00174a10       ??1BucketPrunerCore@Gu@physx@@QEAA@XZ 0000000180175a10 f   GuBucketPruner.obj
 0001:00174a30       ??R?$BucketPrunerOverlapTraversal@UBucketPrunerAABBAABBTest@@$00@@QEBA_NAEBVBucketPrunerCore@Gu@physx@@AEBUBucketPrunerAABBAABBTest@@AEAUPrunerOverlapCallback@23@AEBVPxBounds3@3@@Z 0000000180175a30 f i GuBucketPruner.obj
 0001:00174ff0       ??R?$BucketPrunerOverlapTraversal@UOBBAABBTest_SIMD@@$0A@@@QEBA_NAEBVBucketPrunerCore@Gu@physx@@AEBUOBBAABBTest_SIMD@@AEAUPrunerOverlapCallback@23@AEBVPxBounds3@3@@Z 0000000180175ff0 f i GuBucketPruner.obj
 0001:00175870       ??R?$BucketPrunerOverlapTraversal@USphereAABBTest_SIMD@@$00@@QEBA_NAEBVBucketPrunerCore@Gu@physx@@AEBUSphereAABBTest_SIMD@@AEAUPrunerOverlapCallback@23@AEBVPxBounds3@3@@Z 0000000180176870 f i GuBucketPruner.obj
 0001:00175e50       ??_FBucketPrunerCore@Gu@physx@@QEAAXXZ 0000000180176e50 f i GuBucketPruner.obj
 0001:00175e60       ??_EBucketPruner@Gu@physx@@UEAAPEAXI@Z 0000000180176e60 f i GuBucketPruner.obj
 0001:00175e60       ??_GBucketPruner@Gu@physx@@UEAAPEAXI@Z 0000000180176e60 f i GuBucketPruner.obj
 0001:00175f00       ?addObject@BucketPrunerCore@Gu@physx@@QEAA_NAEBUPrunerPayload@23@AEBVPxBounds3@3@AEBV?$PxTransformT@M@3@I@Z 0000000180176f00 f   GuBucketPruner.obj
 0001:00176220       ?addObjects@BucketPruner@Gu@physx@@UEAA_NPEAIPEBVPxBounds3@3@PEBUPrunerPayload@23@PEBV?$PxTransformT@M@3@I_N@Z 0000000180177220 f   GuBucketPruner.obj
 0001:001762b0       ?addPair@BucketPrunerMap@Gu@physx@@QEAAPEAUBucketPrunerPair@23@AEBUPrunerPayload@23@II@Z 00000001801772b0 f   GuBucketPruner.obj
 0001:001764b0       ?allocateSortedMemory@BucketPrunerCore@Gu@physx@@AEAAXI@Z 00000001801774b0 f   GuBucketPruner.obj
 0001:00176670       ?classifyBoxes@BucketPrunerCore@Gu@physx@@AEAAXXZ 0000000180177670 f   GuBucketPruner.obj
 0001:00176e60       ?classifyBoxes@BucketPrunerNode@Gu@physx@@QEAAXMMIPEIAUBucketBox@23@PEIBUPrunerPayload@23@PEIBV?$PxTransformT@M@3@0PEIAU523@PEIAV63@_NI@Z 0000000180177e60 f   GuBucketPruner.obj
 0001:001776e0       ?build@CompanionPrunerBucket@@UEAAXXZ 00000001801786e0 f   GuSecondaryPruner.obj
 0001:001776e0       ?commit@BucketPruner@Gu@physx@@UEAAXXZ 00000001801786e0 f   GuBucketPruner.obj
 0001:001776f0       ?findPair@BucketPrunerMap@Gu@physx@@QEBAPEBUBucketPrunerPair@23@AEBUPrunerPayload@23@@Z 00000001801786f0 f   GuBucketPruner.obj
 0001:00177ae0       ?getGlobalBounds@BucketPruner@Gu@physx@@UEBAXAEAVPxBounds3@3@@Z 0000000180178ae0 f   GuBucketPruner.obj
 0001:00177b60       ?getGlobalBounds@BucketPrunerCore@Gu@physx@@QEBAXAEAVPxBounds3@3@@Z 0000000180178b60 f   GuBucketPruner.obj
 0001:00177be0       ?getPayloadData@BucketPruner@Gu@physx@@UEBAAEBUPrunerPayload@23@IPEAUPrunerPayloadData@23@@Z 0000000180178be0 f i GuBucketPruner.obj
 0001:00177c40       ?overlap@BucketPruner@Gu@physx@@UEBA_NAEBVShapeData@23@AEAUPrunerOverlapCallback@23@@Z 0000000180178c40 f   GuBucketPruner.obj
 0001:00177c60       ?overlap@BucketPrunerCore@Gu@physx@@QEBA_NAEBVShapeData@23@AEAUPrunerOverlapCallback@23@@Z 0000000180178c60 f   GuBucketPruner.obj
 0001:00177f40       ?preallocate@BucketPruner@Gu@physx@@UEAAXI@Z 0000000180178f40 f i GuBucketPruner.obj
 0001:00178120       ?purge@BucketPrunerMap@Gu@physx@@QEAAXXZ 0000000180179120 f   GuBucketPruner.obj
 0001:001781b0       ?raycast@BucketPruner@Gu@physx@@UEBA_NAEBV?$PxVec3T@M@3@0AEAMAEAUPrunerRaycastCallback@23@@Z 00000001801791b0 f   GuBucketPruner.obj
 0001:00178200       ?raycast@BucketPrunerCore@Gu@physx@@QEBA_NAEBV?$PxVec3T@M@3@0AEAMAEAUPrunerRaycastCallback@23@@Z 0000000180179200 f   GuBucketPruner.obj
 0001:00178240       ?reallocPairs@BucketPrunerMap@Gu@physx@@QEAAXXZ 0000000180179240 f   GuBucketPruner.obj
 0001:00178480       ?release@BucketPrunerCore@Gu@physx@@QEAAXXZ 0000000180179480 f   GuBucketPruner.obj
 0001:001785c0       ?removeMarkedObjects@BucketPrunerCore@Gu@physx@@QEAAII@Z 00000001801795c0 f   GuBucketPruner.obj
 0001:00178990       ?removeObject@BucketPrunerCore@Gu@physx@@QEAA_NAEBUPrunerPayload@23@AEAI@Z 0000000180179990 f   GuBucketPruner.obj
 0001:00178c50       ?removeObjects@BucketPruner@Gu@physx@@UEAAXPEBIIPEAUPrunerPayloadRemovalCallback@23@@Z 0000000180179c50 f   GuBucketPruner.obj
 0001:00178d00       ?removePair@BucketPrunerMap@Gu@physx@@QEAA_NAEBUPrunerPayload@23@AEAI1@Z 0000000180179d00 f   GuBucketPruner.obj
 0001:00178e80       ?removePairInternal@BucketPrunerMap@Gu@physx@@QEAAXAEBUPrunerPayload@23@II@Z 0000000180179e80 f   GuBucketPruner.obj
 0001:00179010       ?resizeCore@BucketPrunerCore@Gu@physx@@AEAAXXZ 000000018017a010 f   GuBucketPruner.obj
 0001:00179260       ?setTransform@BucketPruner@Gu@physx@@UEAA_NIAEBV?$PxTransformT@M@3@@Z 000000018017a260 f i GuBucketPruner.obj
 0001:001792c0       ?shiftOrigin@BucketPruner@Gu@physx@@UEAAXAEBV?$PxVec3T@M@3@@Z 000000018017a2c0 f   GuBucketPruner.obj
 0001:001792c0       ?shiftOrigin@CompanionPrunerBucket@@UEAAXAEBV?$PxVec3T@M@physx@@@Z 000000018017a2c0 f   GuSecondaryPruner.obj
 0001:001792d0       ?shiftOrigin@BucketPrunerCore@Gu@physx@@QEAAXAEBV?$PxVec3T@M@3@@Z 000000018017a2d0 f   GuBucketPruner.obj
 0001:0017a100       ?sweep@BucketPruner@Gu@physx@@UEBA_NAEBVShapeData@23@AEBV?$PxVec3T@M@3@AEAMAEAUPrunerRaycastCallback@23@@Z 000000018017b100 f   GuBucketPruner.obj
 0001:0017a120       ?sweep@BucketPrunerCore@Gu@physx@@QEBA_NAEBVShapeData@23@AEBV?$PxVec3T@M@3@AEAMAEAUPrunerRaycastCallback@23@@Z 000000018017b120 f   GuBucketPruner.obj
 0001:0017a1f0       ?updateObject@BucketPrunerCore@Gu@physx@@QEAA_NAEBVPxBounds3@3@AEBUPrunerPayload@23@AEBV?$PxTransformT@M@3@@Z 000000018017b1f0 f   GuBucketPruner.obj
 0001:0017a250       ?updateObjects@BucketPruner@Gu@physx@@UEAAXPEBIIM0PEBVPxBounds3@3@PEBUPxTransformPadded@3@@Z 000000018017b250 f   GuBucketPruner.obj
 0001:0017a360       ?visualize@BucketPruner@Gu@physx@@UEBAXAEAVPxRenderOutput@3@II@Z 000000018017b360 f   GuBucketPruner.obj
 0001:0017a360       ?visualize@CompanionPrunerBucket@@UEBAXAEAVPxRenderOutput@physx@@I@Z 000000018017b360 f   GuSecondaryPruner.obj
 0001:0017a370       ?visualize@BucketPrunerCore@Gu@physx@@QEBAXAEAVPxRenderOutput@3@I@Z 000000018017b370 f   GuBucketPruner.obj
 0001:0017a670       ?addObject@MaverickNode@Gu@physx@@QEAA_NAEBUPrunerPayload@23@IAEBVPxBounds3@3@AEBV?$PxTransformT@M@3@I@Z 000000018017b670 f   GuMaverickNode.obj
 0001:0017a750       ?removeMarkedObjects@MaverickNode@Gu@physx@@QEAAII@Z 000000018017b750 f   GuMaverickNode.obj
 0001:0017a8e0       ?removeObject@MaverickNode@Gu@physx@@QEAA_NIAEAI@Z 000000018017b8e0 f   GuMaverickNode.obj
 0001:0017aa70       ?shiftOrigin@MaverickNode@Gu@physx@@QEAAXAEBV?$PxVec3T@M@3@@Z 000000018017ba70 f   GuMaverickNode.obj
 0001:0017ab60       ?updateObject@MaverickNode@Gu@physx@@QEAA_NIAEBVPxBounds3@3@AEBV?$PxTransformT@M@3@@Z 000000018017bb60 f   GuMaverickNode.obj
 0001:0017ac40       ??0ExtendedBucketPruner@Gu@physx@@QEAA@_KW4CompanionPrunerType@12@PEBVPruningPool@12@@Z 000000018017bc40 f   GuExtendedBucketPruner.obj
 0001:0017ae70       ??1ExtendedBucketPruner@Gu@physx@@QEAA@XZ 000000018017be70 f   GuExtendedBucketPruner.obj
 0001:0017afe0       ??R?$AABBTreeOverlap@$00U?$OBBAABBTests@$00@Gu@physx@@VAABBTree@23@UBVHNode@23@U?$MainTreeOverlapPrunerCallback@U?$OBBAABBTests@$00@Gu@physx@@@@@Gu@physx@@QEAA_NAEBVAABBTreeBounds@12@AEBVAABBTree@12@AEBU?$OBBAABBTests@$00@12@AEAU?$MainTreeOverlapPrunerCallback@U?$OBBAABBTests@$00@Gu@physx@@@@@Z 000000018017bfe0 f i GuExtendedBucketPruner.obj
 0001:0017b5c0       ??R?$AABBTreeOverlap@$00U?$OBBAABBTests@$00@Gu@physx@@VAABBTree@23@UBVHNode@23@UOverlapCallbackAdapter@23@@Gu@physx@@QEAA_NAEBVAABBTreeBounds@12@AEBVAABBTree@12@AEBU?$OBBAABBTests@$00@12@AEAUOverlapCallbackAdapter@12@@Z 000000018017c5c0 f i GuExtendedBucketPruner.obj
 0001:0017bb80       ??R?$AABBTreeOverlap@$00UAABBAABBTest@Gu@physx@@VAABBTree@23@UBVHNode@23@U?$MainTreeOverlapPrunerCallback@UAABBAABBTest@Gu@physx@@@@@Gu@physx@@QEAA_NAEBVAABBTreeBounds@12@AEBVAABBTree@12@AEBUAABBAABBTest@12@AEAU?$MainTreeOverlapPrunerCallback@UAABBAABBTest@Gu@physx@@@@@Z 000000018017cb80 f i GuExtendedBucketPruner.obj
 0001:0017be40       ??R?$AABBTreeOverlap@$00UAABBAABBTest@Gu@physx@@VAABBTree@23@UBVHNode@23@UOverlapCallbackAdapter@23@@Gu@physx@@QEAA_NAEBVAABBTreeBounds@12@AEBVAABBTree@12@AEBUAABBAABBTest@12@AEAUOverlapCallbackAdapter@12@@Z 000000018017ce40 f i GuExtendedBucketPruner.obj
 0001:0017c0d0       ??R?$AABBTreeOverlap@$00UCapsuleAABBTest@Gu@physx@@VAABBTree@23@UBVHNode@23@U?$MainTreeOverlapPrunerCallback@UCapsuleAABBTest@Gu@physx@@@@@Gu@physx@@QEAA_NAEBVAABBTreeBounds@12@AEBVAABBTree@12@AEBUCapsuleAABBTest@12@AEAU?$MainTreeOverlapPrunerCallback@UCapsuleAABBTest@Gu@physx@@@@@Z 000000018017d0d0 f i GuExtendedBucketPruner.obj
 0001:0017c550       ??R?$AABBTreeOverlap@$00UCapsuleAABBTest@Gu@physx@@VAABBTree@23@UBVHNode@23@UOverlapCallbackAdapter@23@@Gu@physx@@QEAA_NAEBVAABBTreeBounds@12@AEBVAABBTree@12@AEBUCapsuleAABBTest@12@AEAUOverlapCallbackAdapter@12@@Z 000000018017d550 f i GuExtendedBucketPruner.obj
 0001:0017c9a0       ??R?$AABBTreeOverlap@$00USphereAABBTest@Gu@physx@@VAABBTree@23@UBVHNode@23@U?$MainTreeOverlapPrunerCallback@USphereAABBTest@Gu@physx@@@@@Gu@physx@@QEAA_NAEBVAABBTreeBounds@12@AEBVAABBTree@12@AEBUSphereAABBTest@12@AEAU?$MainTreeOverlapPrunerCallback@USphereAABBTest@Gu@physx@@@@@Z 000000018017d9a0 f i GuExtendedBucketPruner.obj
 0001:0017ccc0       ??R?$AABBTreeOverlap@$00USphereAABBTest@Gu@physx@@VAABBTree@23@UBVHNode@23@UOverlapCallbackAdapter@23@@Gu@physx@@QEAA_NAEBVAABBTreeBounds@12@AEBVAABBTree@12@AEBUSphereAABBTest@12@AEAUOverlapCallbackAdapter@12@@Z 000000018017dcc0 f i GuExtendedBucketPruner.obj
 0001:0017cfc0       ??R?$AABBTreeRaycast@$00$00VAABBTree@Gu@physx@@UBVHNode@23@U?$MainTreeRaycastPrunerCallback@$00@@@Gu@physx@@QEAA_NAEBVAABBTreeBounds@12@AEBVAABBTree@12@AEBV?$PxVec3T@M@2@2AEAM2AEAU?$MainTreeRaycastPrunerCallback@$00@@@Z 000000018017dfc0 f i GuExtendedBucketPruner.obj
 0001:0017d6e0       ??R?$AABBTreeRaycast@$00$00VAABBTree@Gu@physx@@UBVHNode@23@URaycastCallbackAdapter@23@@Gu@physx@@QEAA_NAEBVAABBTreeBounds@12@AEBVAABBTree@12@AEBV?$PxVec3T@M@2@2AEAM2AEAURaycastCallbackAdapter@12@@Z 000000018017e6e0 f i GuExtendedBucketPruner.obj
 0001:0017ddc0       ??R?$AABBTreeRaycast@$0A@$00VAABBTree@Gu@physx@@UBVHNode@23@U?$MainTreeRaycastPrunerCallback@$0A@@@@Gu@physx@@QEAA_NAEBVAABBTreeBounds@12@AEBVAABBTree@12@AEBV?$PxVec3T@M@2@2AEAM2AEAU?$MainTreeRaycastPrunerCallback@$0A@@@@Z 000000018017edc0 f i GuExtendedBucketPruner.obj
 0001:0017e480       ??R?$AABBTreeRaycast@$0A@$00VAABBTree@Gu@physx@@UBVHNode@23@URaycastCallbackAdapter@23@@Gu@physx@@QEAA_NAEBVAABBTreeBounds@12@AEBVAABBTree@12@AEBV?$PxVec3T@M@2@2AEAM2AEAURaycastCallbackAdapter@12@@Z 000000018017f480 f i GuExtendedBucketPruner.obj
 0001:0017eb00       ?addTree@ExtendedBucketPruner@Gu@physx@@QEAAXAEBVAABBTreeMergeData@23@I@Z 000000018017fb00 f   GuExtendedBucketPruner.obj
 0001:0017edd0       ?buildMainAABBTree@ExtendedBucketPruner@Gu@physx@@AEAAXXZ 000000018017fdd0 f   GuExtendedBucketPruner.obj
 0001:0017ee80       ?create@?$PxHashBase@V?$PxPair@$$CBUPrunerPayload@Gu@physx@@UExtendedBucketPrunerData@23@@physx@@UPrunerPayload@Gu@2@UExtendedBucketPrunerHash@42@UGetKey@?$PxHashMapBase@UPrunerPayload@Gu@physx@@UExtendedBucketPrunerData@23@UExtendedBucketPrunerHash@23@VPxAllocator@3@@2@VPxAllocator@2@$00@physx@@QEAAPEAV?$PxPair@$$CBUPrunerPayload@Gu@physx@@UExtendedBucketPrunerData@23@@2@AEBUPrunerPayload@Gu@2@AEA_N@Z 000000018017fe80 f i GuExtendedBucketPruner.obj
 0001:0017f050       ?eraseInternal@?$PxHashBase@V?$PxPair@$$CBUPrunerPayload@Gu@physx@@UExtendedBucketPrunerData@23@@physx@@UPrunerPayload@Gu@2@UExtendedBucketPrunerHash@42@UGetKey@?$PxHashMapBase@UPrunerPayload@Gu@physx@@UExtendedBucketPrunerData@23@UExtendedBucketPrunerHash@23@VPxAllocator@3@@2@VPxAllocator@2@$00@physx@@AEAA_NPEAI@Z 0000000180180050 f i GuExtendedBucketPruner.obj
 0001:0017f170       ?find@?$PxHashMapBase@UPrunerPayload@Gu@physx@@UExtendedBucketPrunerData@23@UExtendedBucketPrunerHash@23@VPxAllocator@3@@physx@@QEBAPEBV?$PxPair@$$CBUPrunerPayload@Gu@physx@@UExtendedBucketPrunerData@23@@2@AEBUPrunerPayload@Gu@2@@Z 0000000180180170 f i GuExtendedBucketPruner.obj
 0001:0017f260       ?getGlobalBounds@ExtendedBucketPruner@Gu@physx@@QEBAXAEAVPxBounds3@3@@Z 0000000180180260 f   GuExtendedBucketPruner.obj
 0001:0017f330       ?invalidateObject@ExtendedBucketPruner@Gu@physx@@AEAAXAEBUExtendedBucketPrunerData@23@IAEBUPrunerPayload@23@I@Z 0000000180180330 f   GuExtendedBucketPruner.obj
 0001:0017f470       ?overlap@ExtendedBucketPruner@Gu@physx@@QEBA_NAEBVShapeData@23@AEAUPrunerOverlapCallback@23@@Z 0000000180180470 f   GuExtendedBucketPruner.obj
 0001:0017fc50       ?raycast@ExtendedBucketPruner@Gu@physx@@QEBA_NAEBV?$PxVec3T@M@3@0AEAMAEAUPrunerRaycastCallback@23@@Z 0000000180180c50 f   GuExtendedBucketPruner.obj
 0001:0017fd30       ?refitMarkedNodes@ExtendedBucketPruner@Gu@physx@@QEAAXPEBVPxBounds3@3@@Z 0000000180180d30 f   GuExtendedBucketPruner.obj
 0001:001802a0       ?release@ExtendedBucketPruner@Gu@physx@@QEAAXXZ 00000001801812a0 f   GuExtendedBucketPruner.obj
 0001:00180370       ?removeMarkedObjects@ExtendedBucketPruner@Gu@physx@@QEAAII@Z 0000000180181370 f   GuExtendedBucketPruner.obj
 0001:00180690       ?removeObject@ExtendedBucketPruner@Gu@physx@@QEAA_NAEBUPrunerPayload@23@II0I@Z 0000000180181690 f   GuExtendedBucketPruner.obj
 0001:00180880       ?reserveInternal@?$PxHashBase@V?$PxPair@$$CBUPrunerPayload@Gu@physx@@UExtendedBucketPrunerData@23@@physx@@UPrunerPayload@Gu@2@UExtendedBucketPrunerHash@42@UGetKey@?$PxHashMapBase@UPrunerPayload@Gu@physx@@UExtendedBucketPrunerData@23@UExtendedBucketPrunerHash@23@VPxAllocator@3@@2@VPxAllocator@2@$00@physx@@AEAAXI@Z 0000000180181880 f i GuExtendedBucketPruner.obj
 0001:00180a80       ?shiftOrigin@ExtendedBucketPruner@Gu@physx@@QEAAXAEBV?$PxVec3T@M@3@@Z 0000000180181a80 f   GuExtendedBucketPruner.obj
 0001:00180b00       ?swapIndex@ExtendedBucketPruner@Gu@physx@@QEAAXIAEBUPrunerPayload@23@I_N@Z 0000000180181b00 f   GuExtendedBucketPruner.obj
 0001:00180bd0       ?sweep@ExtendedBucketPruner@Gu@physx@@QEBA_NAEBVShapeData@23@AEBV?$PxVec3T@M@3@AEAMAEAUPrunerRaycastCallback@23@@Z 0000000180181bd0 f   GuExtendedBucketPruner.obj
 0001:00180d60       ?updateObject@ExtendedBucketPruner@Gu@physx@@QEAA_NAEBVPxBounds3@3@AEBV?$PxTransformT@M@3@AEBUPrunerPayload@23@II@Z 0000000180181d60 f   GuExtendedBucketPruner.obj
 0001:00180e30       ?visualize@ExtendedBucketPruner@Gu@physx@@QEBAXAEAVPxRenderOutput@3@I@Z 0000000180181e30 f   GuExtendedBucketPruner.obj
 0001:00180ec0       ??0?$OBBAABBTests@$00@Gu@physx@@QEAA@AEBV?$PxVec3T@M@2@AEBV?$PxMat33T@M@2@0@Z 0000000180181ec0 f i GuSecondaryPruner.obj
 0001:00182e10       ??_ECompanionPruner@Gu@physx@@UEAAPEAXI@Z 0000000180183e10 f i GuSecondaryPruner.obj
 0001:00182e10       ??_GCompanionPruner@Gu@physx@@UEAAPEAXI@Z 0000000180183e10 f i GuSecondaryPruner.obj
 0001:00182e60       ??_ECompanionPrunerAABBTree@@UEAAPEAXI@Z 0000000180183e60 f i GuSecondaryPruner.obj
 0001:00182e60       ??_GCompanionPrunerAABBTree@@UEAAPEAXI@Z 0000000180183e60 f i GuSecondaryPruner.obj
 0001:00182f10       ??_ECompanionPrunerBucket@@UEAAPEAXI@Z 0000000180183f10 f i GuSecondaryPruner.obj
 0001:00182f10       ??_GCompanionPrunerBucket@@UEAAPEAXI@Z 0000000180183f10 f i GuSecondaryPruner.obj
 0001:00182f90       ??_ECompanionPrunerIncremental@@UEAAPEAXI@Z 0000000180183f90 f i GuSecondaryPruner.obj
 0001:00182f90       ??_GCompanionPrunerIncremental@@UEAAPEAXI@Z 0000000180183f90 f i GuSecondaryPruner.obj
 0001:00183010       ?addObject@CompanionPrunerAABBTree@@UEAA_NAEBUPrunerPayload@Gu@physx@@IAEBVPxBounds3@4@AEBV?$PxTransformT@M@4@II@Z 0000000180184010 f   GuSecondaryPruner.obj
 0001:00183250       ?addObject@CompanionPrunerBucket@@UEAA_NAEBUPrunerPayload@Gu@physx@@IAEBVPxBounds3@4@AEBV?$PxTransformT@M@4@II@Z 0000000180184250 f i GuSecondaryPruner.obj
 0001:00183270       ?addObject@CompanionPrunerIncremental@@UEAA_NAEBUPrunerPayload@Gu@physx@@IAEBVPxBounds3@4@AEBV?$PxTransformT@M@4@II@Z 0000000180184270 f i GuSecondaryPruner.obj
 0001:00183290       ?addObjectInternal@CompanionPrunerAABBTree@@QEAA_NII@Z 0000000180184290 f   GuSecondaryPruner.obj
 0001:00183430       ?build@CompanionPrunerAABBTree@@UEAAXXZ 0000000180184430 f   GuSecondaryPruner.obj
 0001:00183900       ?createCompanionPruner@Gu@physx@@YAPEAVCompanionPruner@12@_KW4CompanionPrunerType@12@PEBVPruningPool@12@@Z 0000000180184900 f   GuSecondaryPruner.obj
 0001:00183b00       ?getGlobalBounds@CompanionPrunerAABBTree@@UEBAXAEAVPxBounds3@physx@@@Z 0000000180184b00 f   GuSecondaryPruner.obj
 0001:00183c10       ?getGlobalBounds@CompanionPrunerBucket@@UEBAXAEAVPxBounds3@physx@@@Z 0000000180184c10 f i GuSecondaryPruner.obj
 0001:00183c20       ?getGlobalBounds@CompanionPrunerIncremental@@UEBAXAEAVPxBounds3@physx@@@Z 0000000180184c20 f i GuSecondaryPruner.obj
 0001:00183c30       ?getNbObjects@CompanionPrunerAABBTree@@UEBAIXZ 0000000180184c30 f   GuSecondaryPruner.obj
 0001:00183c40       ?getNbObjects@CompanionPrunerBucket@@UEBAIXZ 0000000180184c40 f i GuSecondaryPruner.obj
 0001:00183c50       ?getNbObjects@CompanionPrunerIncremental@@UEBAIXZ 0000000180184c50 f i GuSecondaryPruner.obj
 0001:00183c60       ?growAndPushBack@?$PxArray@ULocalData@CompanionPrunerAABBTree@@V?$PxReflectionAllocator@ULocalData@CompanionPrunerAABBTree@@@physx@@@physx@@IEAAAEAULocalData@CompanionPrunerAABBTree@@AEBU34@@Z 0000000180184c60 f i GuSecondaryPruner.obj
 0001:00183d80       ?overlap@CompanionPrunerAABBTree@@UEBA_NAEBVShapeData@Gu@physx@@AEAUPrunerOverlapCallback@34@@Z 0000000180184d80 f   GuSecondaryPruner.obj
 0001:00184d10       ?overlap@CompanionPrunerBucket@@UEBA_NAEBVShapeData@Gu@physx@@AEAUPrunerOverlapCallback@34@@Z 0000000180185d10 f i GuSecondaryPruner.obj
 0001:00184d30       ?overlap@CompanionPrunerIncremental@@UEBA_NAEBVShapeData@Gu@physx@@AEAUPrunerOverlapCallback@34@@Z 0000000180185d30 f i GuSecondaryPruner.obj
 0001:00184d50       ?raycast@CompanionPrunerAABBTree@@UEBA_NAEBV?$PxVec3T@M@physx@@0AEAMAEAUPrunerRaycastCallback@Gu@3@@Z 0000000180185d50 f   GuSecondaryPruner.obj
 0001:00185130       ?raycast@CompanionPrunerBucket@@UEBA_NAEBV?$PxVec3T@M@physx@@0AEAMAEAUPrunerRaycastCallback@Gu@3@@Z 0000000180186130 f i GuSecondaryPruner.obj
 0001:00185150       ?raycast@CompanionPrunerIncremental@@UEBA_NAEBV?$PxVec3T@M@physx@@0AEAMAEAUPrunerRaycastCallback@Gu@3@@Z 0000000180186150 f i GuSecondaryPruner.obj
 0001:00185170       ?release@CompanionPrunerAABBTree@@UEAAXXZ 0000000180186170 f   GuSecondaryPruner.obj
 0001:00185180       ?release@CompanionPrunerBucket@@UEAAXXZ 0000000180186180 f i GuSecondaryPruner.obj
 0001:00185190       ?release@CompanionPrunerIncremental@@UEAAXXZ 0000000180186190 f i GuSecondaryPruner.obj
 0001:001851a0       ?releaseInternal@CompanionPrunerAABBTree@@QEAAXXZ 00000001801861a0 f   GuSecondaryPruner.obj
 0001:00185220       ?removeMarkedObjects@CompanionPrunerAABBTree@@UEAAII@Z 0000000180186220 f   GuSecondaryPruner.obj
 0001:00185240       ?removeMarkedObjects@CompanionPrunerBucket@@UEAAII@Z 0000000180186240 f i GuSecondaryPruner.obj
 0001:00185250       ?removeMarkedObjects@CompanionPrunerIncremental@@UEAAII@Z 0000000180186250 f i GuSecondaryPruner.obj
 0001:00185260       ?removeObject@CompanionPrunerAABBTree@@UEAA_NAEBUPrunerPayload@Gu@physx@@III@Z 0000000180186260 f   GuSecondaryPruner.obj
 0001:00185300       ?removeObject@CompanionPrunerBucket@@UEAA_NAEBUPrunerPayload@Gu@physx@@III@Z 0000000180186300 f i GuSecondaryPruner.obj
 0001:00185320       ?removeObject@CompanionPrunerIncremental@@UEAA_NAEBUPrunerPayload@Gu@physx@@III@Z 0000000180186320 f i GuSecondaryPruner.obj
 0001:00185340       ?shiftOrigin@CompanionPrunerAABBTree@@UEAAXAEBV?$PxVec3T@M@physx@@@Z 0000000180186340 f   GuSecondaryPruner.obj
 0001:00185470       ?shiftOrigin@CompanionPrunerIncremental@@UEAAXAEBV?$PxVec3T@M@physx@@@Z 0000000180186470 f i GuSecondaryPruner.obj
 0001:00185480       ?swapIndex@CompanionPrunerIncremental@@UEAAXII@Z 0000000180186480 f i GuSecondaryPruner.obj
 0001:00185490       ?sweep@CompanionPrunerAABBTree@@UEBA_NAEBVShapeData@Gu@physx@@AEBV?$PxVec3T@M@4@AEAMAEAUPrunerRaycastCallback@34@@Z 0000000180186490 f   GuSecondaryPruner.obj
 0001:001859d0       ?sweep@CompanionPrunerBucket@@UEBA_NAEBVShapeData@Gu@physx@@AEBV?$PxVec3T@M@4@AEAMAEAUPrunerRaycastCallback@34@@Z 00000001801869d0 f i GuSecondaryPruner.obj
 0001:001859f0       ?sweep@CompanionPrunerIncremental@@UEBA_NAEBVShapeData@Gu@physx@@AEBV?$PxVec3T@M@4@AEAMAEAUPrunerRaycastCallback@34@@Z 00000001801869f0 f i GuSecondaryPruner.obj
 0001:00185a10       ?timeStampChange@CompanionPrunerIncremental@@UEAAXXZ 0000000180186a10 f i GuSecondaryPruner.obj
 0001:00185a30       ?updateObject@CompanionPrunerAABBTree@@UEAA_NAEBUPrunerPayload@Gu@physx@@IAEBVPxBounds3@4@AEBV?$PxTransformT@M@4@I@Z 0000000180186a30 f   GuSecondaryPruner.obj
 0001:00185ab0       ?updateObject@CompanionPrunerBucket@@UEAA_NAEBUPrunerPayload@Gu@physx@@IAEBVPxBounds3@4@AEBV?$PxTransformT@M@4@I@Z 0000000180186ab0 f i GuSecondaryPruner.obj
 0001:00185ad0       ?updateObject@CompanionPrunerIncremental@@UEAA_NAEBUPrunerPayload@Gu@physx@@IAEBVPxBounds3@4@AEBV?$PxTransformT@M@4@I@Z 0000000180186ad0 f i GuSecondaryPruner.obj
 0001:00185ae0       ?visualize@CompanionPrunerAABBTree@@UEBAXAEAVPxRenderOutput@physx@@I@Z 0000000180186ae0 f   GuSecondaryPruner.obj
 0001:00185b00       ?visualize@CompanionPrunerIncremental@@UEBAXAEAVPxRenderOutput@physx@@I@Z 0000000180186b00 f i GuSecondaryPruner.obj
 0001:00185b10       ??0AABBPruner@Gu@physx@@QEAA@_N_KW4CompanionPrunerType@12@W4BVHBuildStrategy@12@I@Z 0000000180186b10 f   GuAABBPruner.obj
 0001:00185c40       ??1AABBPruner@Gu@physx@@UEAA@XZ 0000000180186c40 f   GuAABBPruner.obj
 0001:00185da0       ??_EAABBPruner@Gu@physx@@UEAAPEAXI@Z 0000000180186da0 f i GuAABBPruner.obj
 0001:00185da0       ??_GAABBPruner@Gu@physx@@UEAAPEAXI@Z 0000000180186da0 f i GuAABBPruner.obj
 0001:00185e10       ?addObjects@AABBPruner@Gu@physx@@UEAA_NPEAIPEBVPxBounds3@3@PEBUPrunerPayload@23@PEBV?$PxTransformT@M@3@I_N@Z 0000000180186e10 f   GuAABBPruner.obj
 0001:001860f0       ?buildStep@AABBPruner@Gu@physx@@UEAA_N_N@Z 00000001801870f0 f   GuAABBPruner.obj
 0001:001864f0       ?commit@AABBPruner@Gu@physx@@UEAAXXZ 00000001801874f0 f   GuAABBPruner.obj
 0001:00186bf0       ?fullRebuildAABBTree@AABBPruner@Gu@physx@@QEAA_NXZ 0000000180187bf0 f   GuAABBPruner.obj
 0001:00186df0       ?getGlobalBounds@AABBPruner@Gu@physx@@UEBAXAEAVPxBounds3@3@@Z 0000000180187df0 f   GuAABBPruner.obj
 0001:00186f30       ?getPayloadData@AABBPruner@Gu@physx@@UEBAAEBUPrunerPayload@23@IPEAUPrunerPayloadData@23@@Z 0000000180187f30 f i GuAABBPruner.obj
 0001:00186f90       ?growAndPushBack@?$PxArray@UNewTreeFixup@AABBPruner@Gu@physx@@V?$PxReflectionAllocator@UNewTreeFixup@AABBPruner@Gu@physx@@@4@@physx@@IEAAAEAUNewTreeFixup@AABBPruner@Gu@2@AEBU3452@@Z 0000000180187f90 f i GuAABBPruner.obj
 0001:001870b0       ?isDynamic@AABBPruner@Gu@physx@@UEBA_NXZ 00000001801880b0 f i GuAABBPruner.obj
 0001:001870c0       ?merge@AABBPruner@Gu@physx@@UEAAXPEBX@Z 00000001801880c0 f   GuAABBPruner.obj
 0001:00187140       ?overlap@AABBPruner@Gu@physx@@UEBA_NAEBVShapeData@23@AEAUPrunerOverlapCallback@23@@Z 0000000180188140 f   GuAABBPruner.obj
 0001:00187710       ?preallocate@AABBPruner@Gu@physx@@UEAAXI@Z 0000000180188710 f i GuAABBPruner.obj
 0001:00187720       ?prepareBuild@AABBPruner@Gu@physx@@UEAA_NXZ 0000000180188720 f   GuAABBPruner.obj
 0001:00187930       ?purge@AABBPruner@Gu@physx@@UEAAXXZ 0000000180188930 f   GuAABBPruner.obj
 0001:00187950       ?raycast@AABBPruner@Gu@physx@@UEBA_NAEBV?$PxVec3T@M@3@0AEAMAEAUPrunerRaycastCallback@23@@Z 0000000180188950 f   GuAABBPruner.obj
 0001:00187a40       ?refitUpdatedAndRemoved@AABBPruner@Gu@physx@@QEAAXXZ 0000000180188a40 f   GuAABBPruner.obj
 0001:00187b10       ?release@AABBPruner@Gu@physx@@QEAAXXZ 0000000180188b10 f   GuAABBPruner.obj
 0001:00187c40       ?removeObjects@AABBPruner@Gu@physx@@UEAAXPEBIIPEAUPrunerPayloadRemovalCallback@23@@Z 0000000180188c40 f   GuAABBPruner.obj
 0001:00187f10       ?setRebuildRateHint@AABBPruner@Gu@physx@@UEAAXI@Z 0000000180188f10 f   GuAABBPruner.obj
 0001:00187f30       ?setTransform@AABBPruner@Gu@physx@@UEAA_NIAEBV?$PxTransformT@M@3@@Z 0000000180188f30 f i GuAABBPruner.obj
 0001:00187f90       ?shiftOrigin@AABBPruner@Gu@physx@@UEAAXAEBV?$PxVec3T@M@3@@Z 0000000180188f90 f   GuAABBPruner.obj
 0001:00188000       ?sweep@AABBPruner@Gu@physx@@UEBA_NAEBVShapeData@23@AEBV?$PxVec3T@M@3@AEAMAEAUPrunerRaycastCallback@23@@Z 0000000180189000 f   GuAABBPruner.obj
 0001:00188190       ?updateObjects@AABBPruner@Gu@physx@@UEAAXPEBIIM0PEBVPxBounds3@3@PEBUPxTransformPadded@3@@Z 0000000180189190 f   GuAABBPruner.obj
 0001:00188430       ?visualize@AABBPruner@Gu@physx@@UEBAXAEAVPxRenderOutput@3@II@Z 0000000180189430 f   GuAABBPruner.obj
 0001:001884e0       ??0ActorShapeMap@Gu@physx@@QEAA@XZ 00000001801894e0 f   GuActorShapeMap.obj
 0001:00188540       ??1ActorShapeMap@Gu@physx@@QEAA@XZ 0000000180189540 f   GuActorShapeMap.obj
 0001:001885a0       ?add@ActorShapeMap@Gu@physx@@QEAA_NIPEBX0_K@Z 00000001801895a0 f   GuActorShapeMap.obj
 0001:00188740       ?create@?$PxHashBase@V?$PxPair@$$CBUActorShape@ActorShapeMap@Gu@physx@@_K@physx@@UActorShape@ActorShapeMap@Gu@2@U?$PxHash@UActorShape@ActorShapeMap@Gu@physx@@@2@UGetKey@?$PxHashMapBase@UActorShape@ActorShapeMap@Gu@physx@@_KU?$PxHash@UActorShape@ActorShapeMap@Gu@physx@@@4@VPxAllocator@4@@2@VPxAllocator@2@$00@physx@@QEAAPEAV?$PxPair@$$CBUActorShape@ActorShapeMap@Gu@physx@@_K@2@AEBUActorShape@ActorShapeMap@Gu@2@AEA_N@Z 0000000180189740 f i GuActorShapeMap.obj
 0001:00188930       ?eraseInternal@?$PxHashBase@V?$PxPair@$$CBUActorShape@ActorShapeMap@Gu@physx@@_K@physx@@UActorShape@ActorShapeMap@Gu@2@U?$PxHash@UActorShape@ActorShapeMap@Gu@physx@@@2@UGetKey@?$PxHashMapBase@UActorShape@ActorShapeMap@Gu@physx@@_KU?$PxHash@UActorShape@ActorShapeMap@Gu@physx@@@4@VPxAllocator@4@@2@VPxAllocator@2@$00@physx@@AEAA_NPEAI@Z 0000000180189930 f i GuActorShapeMap.obj
 0001:00188a40       ?find@ActorShapeMap@Gu@physx@@QEBA_KIPEBX0@Z 0000000180189a40 f   GuActorShapeMap.obj
 0001:00188b30       ?remove@ActorShapeMap@Gu@physx@@QEAA_NIPEBX0PEA_K@Z 0000000180189b30 f   GuActorShapeMap.obj
 0001:00188c80       ?reserveInternal@?$PxHashBase@V?$PxPair@$$CBUActorShape@ActorShapeMap@Gu@physx@@_K@physx@@UActorShape@ActorShapeMap@Gu@2@U?$PxHash@UActorShape@ActorShapeMap@Gu@physx@@@2@UGetKey@?$PxHashMapBase@UActorShape@ActorShapeMap@Gu@physx@@_KU?$PxHash@UActorShape@ActorShapeMap@Gu@physx@@@4@VPxAllocator@4@@2@VPxAllocator@2@$00@physx@@AEAAXI@Z 0000000180189c80 f i GuActorShapeMap.obj
 0001:00188e90       ??0QuerySystem@Gu@physx@@QEAA@_KMAEBVAdapter@12@_N@Z 0000000180189e90 f   GuQuerySystem.obj
 0001:00188f60       ??1QuerySystem@Gu@physx@@QEAA@XZ 0000000180189f60 f   GuQuerySystem.obj
 0001:001891b0       ??_GPrunerExt@QuerySystem@Gu@physx@@QEAAPEAXI@Z 000000018018a1b0 f i GuQuerySystem.obj
 0001:001892c0       ?addPruner@QuerySystem@Gu@physx@@QEAAIPEAVPruner@23@I@Z 000000018018a2c0 f   GuQuerySystem.obj
 0001:001893e0       ?addPrunerShape@QuerySystem@Gu@physx@@QEAA_KAEBUPrunerPayload@23@I_NAEBV?$PxTransformT@M@3@PEBVPxBounds3@3@@Z 000000018018a3e0 f   GuQuerySystem.obj
 0001:00189520       ?addToDirtyList@PrunerExt@QuerySystem@Gu@physx@@QEAAXIIAEBV?$PxTransformT@M@4@PEBVPxBounds3@4@@Z 000000018018a520 f   GuQuerySystem.obj
 0001:00189770       ?commitUpdates@QuerySystem@Gu@physx@@QEAAXXZ 000000018018a770 f   GuQuerySystem.obj
 0001:00189890       ?createTreeOfPruners@QuerySystem@Gu@physx@@QEAAXXZ 000000018018a890 f   GuQuerySystem.obj
 0001:00189a60       ?flushMemory@QuerySystem@Gu@physx@@QEAAXXZ 000000018018aa60 f   GuQuerySystem.obj
 0001:00189af0       ?getPayloadData@QuerySystem@Gu@physx@@QEBAAEBUPrunerPayload@23@_KPEAUPrunerPayloadData@23@@Z 000000018018aaf0 f   GuQuerySystem.obj
 0001:00189b10       ?growAndPushBack@?$PxArray@PEAUPrunerExt@QuerySystem@Gu@physx@@V?$PxReflectionAllocator@PEAUPrunerExt@QuerySystem@Gu@physx@@@4@@physx@@IEAAAEAPEAUPrunerExt@QuerySystem@Gu@2@AEBQEAU3452@@Z 000000018018ab10 f i GuQuerySystem.obj
 0001:00189c30       ?overlap@QuerySystem@Gu@physx@@QEBAXAEBVShapeData@23@AEAUPrunerOverlapCallback@23@PEBVPrunerFilter@23@@Z 000000018018ac30 f   GuQuerySystem.obj
 0001:00189d30       ?processDirtyList@PrunerExt@QuerySystem@Gu@physx@@QEAA_NAEBVAdapter@34@M@Z 000000018018ad30 f   GuQuerySystem.obj
 0001:00189f70       ?processDirtyLists@QuerySystem@Gu@physx@@AEAAXXZ 000000018018af70 f   GuQuerySystem.obj
 0001:0018a0d0       ?raycast@QuerySystem@Gu@physx@@QEBAXAEBV?$PxVec3T@M@3@0AEAMAEAUPrunerRaycastCallback@23@PEBVPrunerFilter@23@@Z 000000018018b0d0 f   GuQuerySystem.obj
 0001:0018a210       ?recreate@?$PxArray@UData@PrunerExt@QuerySystem@Gu@physx@@V?$PxReflectionAllocator@UData@PrunerExt@QuerySystem@Gu@physx@@@5@@physx@@IEAAXI@Z 000000018018b210 f i GuQuerySystem.obj
 0001:0018a500       ?removePruner@QuerySystem@Gu@physx@@QEAAXI@Z 000000018018b500 f   GuQuerySystem.obj
 0001:0018a5e0       ?removePrunerShape@QuerySystem@Gu@physx@@QEAAX_KPEAUPrunerPayloadRemovalCallback@23@@Z 000000018018b5e0 f   GuQuerySystem.obj
 0001:0018a810       ?sweep@QuerySystem@Gu@physx@@QEBAXAEBVShapeData@23@AEBV?$PxVec3T@M@3@AEAMAEAUPrunerRaycastCallback@23@PEBVPrunerFilter@23@@Z 000000018018b810 f   GuQuerySystem.obj
 0001:0018a940       ?sync@QuerySystem@Gu@physx@@QEAAXIPEBI0PEBVPxBounds3@3@PEBUPxTransformPadded@3@I@Z 000000018018b940 f   GuQuerySystem.obj
 0001:0018a9f0       ?update@QuerySystem@Gu@physx@@QEAAX_N0@Z 000000018018b9f0 f   GuQuerySystem.obj
 0001:0018ab60       ?updatePrunerShape@QuerySystem@Gu@physx@@QEAAX_K_NAEBV?$PxTransformT@M@3@PEBVPxBounds3@3@@Z 000000018018bb60 f   GuQuerySystem.obj
 0001:0018ad50       createAABBPruner           000000018018bd50 f   GuFactory.obj
 0001:0018ae10       createBucketPruner         000000018018be10 f   GuFactory.obj
 0001:0018aea0       createIncrementalPruner    000000018018bea0 f   GuFactory.obj
 0001:0018af30       ??$PxSmallSort@I$$CBUSortBoundsPredicate@physx@@@physx@@YAXPEAIHHAEBUSortBoundsPredicate@0@@Z 000000018018bf30 f i GuRTreeCooking.obj
 0001:0018b1d0       ??$PxSort@IU?$PxLess@I@physx@@V?$PxReflectionAllocator@I@2@@physx@@YAXPEAIIAEBU?$PxLess@I@0@AEBV?$PxReflectionAllocator@I@0@I@Z 000000018018c1d0 f i GuRTreeCooking.obj
 0001:0018b620       ??$PxSort@IUSortBoundsPredicate@physx@@V?$PxReflectionAllocator@I@2@@physx@@YAXPEAIIAEBUSortBoundsPredicate@0@AEBV?$PxReflectionAllocator@I@0@I@Z 000000018018c620 f i GuRTreeCooking.obj
 0001:0018bad0       ??$quickSelectFirstK@UBoundsLTE@physx@@@quickSelect@physx@@YAXPEIAIIIIAEBUBoundsLTE@1@@Z 000000018018cad0 f i GuRTreeCooking.obj
 0001:0018bcb0       ?allocate@?$PxArray@UInterval@physx@@V?$PxInlineAllocator@$0CAAA@V?$PxReflectionAllocator@UInterval@physx@@@physx@@@2@@physx@@IEAAPEAUInterval@2@I@Z 000000018018ccb0 f i GuRTreeCooking.obj
 0001:0018bd70       ?allocate@?$PxArray@UPxBounds3V@physx@@V?$PxReflectionAllocator@UPxBounds3V@physx@@@2@@physx@@IEAAPEAUPxBounds3V@2@I@Z 000000018018cd70 f i GuRTreeCooking.obj
 0001:0018be00       ?allocate@?$PxArray@URTreeNodeNQ@physx@@V?$PxReflectionAllocator@URTreeNodeNQ@physx@@@2@@physx@@IEAAPEAURTreeNodeNQ@2@I@Z 000000018018ce00 f i GuRTreeCooking.obj
 0001:0018be90       ?allocate@?$PxArray@URTreeNodeQ@Gu@physx@@V?$PxReflectionAllocator@URTreeNodeQ@Gu@physx@@@3@@physx@@IEAAPEAURTreeNodeQ@Gu@2@I@Z 000000018018ce90 f i GuRTreeCooking.obj
 0001:0018cba0       ?buildFromTriangles@RTreeCooker@physx@@SAXAEAURTree@Gu@2@PEBV?$PxVec3T@M@2@IPEBGPEBIIAEAV?$PxArray@IV?$PxReflectionAllocator@I@physx@@@2@PEAURemapCallback@12@MW4Enum@PxMeshCookingHint@2@@Z 000000018018dba0 f   GuRTreeCooking.obj
 0001:0018ce60       ?copy@?$PxArray@URTreeNodeNQ@physx@@V?$PxReflectionAllocator@URTreeNodeNQ@physx@@@2@@physx@@KAXPEAURTreeNodeNQ@2@0PEBU32@@Z 000000018018de60 f i GuRTreeCooking.obj
 0001:0018d020       ?growAndPushBack@?$PxArray@UInterval@physx@@V?$PxInlineAllocator@$0CAAA@V?$PxReflectionAllocator@UInterval@physx@@@physx@@@2@@physx@@IEAAAEAUInterval@2@AEBU32@@Z 000000018018e020 f i GuRTreeCooking.obj
 0001:0018d100       ?growAndPushBack@?$PxArray@UPxBounds3V@physx@@V?$PxReflectionAllocator@UPxBounds3V@physx@@@2@@physx@@IEAAAEAUPxBounds3V@2@AEBU32@@Z 000000018018e100 f i GuRTreeCooking.obj
 0001:0018d1e0       ?growAndPushBack@?$PxArray@URTreeNodeNQ@physx@@V?$PxReflectionAllocator@URTreeNodeNQ@physx@@@2@@physx@@IEAAAEAURTreeNodeNQ@2@AEBU32@@Z 000000018018e1e0 f i GuRTreeCooking.obj
 0001:0018d2c0       ?growAndPushBack@?$PxArray@URTreeNodeQ@Gu@physx@@V?$PxReflectionAllocator@URTreeNodeQ@Gu@physx@@@3@@physx@@IEAAAEAURTreeNodeQ@Gu@2@AEBU342@@Z 000000018018e2c0 f i GuRTreeCooking.obj
 0001:0018d3b0       ?recreate@?$PxArray@UPxBounds3V@physx@@V?$PxReflectionAllocator@UPxBounds3V@physx@@@2@@physx@@IEAAXI@Z 000000018018e3b0 f i GuRTreeCooking.obj
 0001:0018d460       ?recreate@?$PxArray@URTreeNodeNQ@physx@@V?$PxReflectionAllocator@URTreeNodeNQ@physx@@@2@@physx@@IEAAXI@Z 000000018018e460 f i GuRTreeCooking.obj
 0001:0018d4f0       ?recreate@?$PxArray@URTreeNodeQ@Gu@physx@@V?$PxReflectionAllocator@URTreeNodeQ@Gu@physx@@@3@@physx@@IEAAXI@Z 000000018018e4f0 f i GuRTreeCooking.obj
 0001:0018d5b0       ?resizeUninitialized@?$PxArray@URTreeNodeNQ@physx@@V?$PxReflectionAllocator@URTreeNodeNQ@physx@@@2@@physx@@QEAAXI@Z 000000018018e5b0 f i GuRTreeCooking.obj
 0001:0018d5f0       ?sort4@SubSortQuick@physx@@QEAAXPEIAIIAEAV?$PxArray@URTreeNodeNQ@physx@@V?$PxReflectionAllocator@URTreeNodeNQ@physx@@@2@@2@AEAIAEAUPxBounds3V@2@I@Z 000000018018e5f0 f i GuRTreeCooking.obj
 0001:0018d980       ?sort4@SubSortSAH@physx@@QEAAXPEAIIAEAV?$PxArray@URTreeNodeNQ@physx@@V?$PxReflectionAllocator@URTreeNodeNQ@physx@@@2@@2@AEAIIPEAURTreeNodeNQ@2@@Z 000000018018e980 f i GuRTreeCooking.obj
 0001:0018e1e0       ?split@SubSortSAH@physx@@QEAAIPEAII@Z 000000018018f1e0 f i GuRTreeCooking.obj
 0001:0018ec60       cookBVH                    000000018018fc60 f   GuCookingBVH.obj
 0001:0018edf0       createBVH                  000000018018fdf0 f   GuCookingBVH.obj
 0001:0018ef80       cookHeightField            000000018018ff80 f   GuCookingHF.obj
 0001:0018f090       createHeightField          0000000180190090 f   GuCookingHF.obj
 0001:0018f720       ?isFinite@?$PxVec3T@M@physx@@QEBA_NXZ 0000000180190720 f i GuCookingConvexMesh.obj
 0001:0018f780       computeHullPolygons        0000000180190780 f   GuCookingConvexMesh.obj
 0001:0018f960       cookConvexMesh             0000000180190960 f   GuCookingConvexMesh.obj
 0001:0018fad0       createConvexMesh           0000000180190ad0 f   GuCookingConvexMesh.obj
 0001:0018fc70       validateConvexMesh         0000000180190c70 f   GuCookingConvexMesh.obj
 0001:0018fd90       ??1BV4TriangleMeshBuilder@physx@@UEAA@XZ 0000000180190d90 f   GuCookingTriangleMesh.obj
 0001:0018fe20       ??1RTreeTriangleMeshBuilder@physx@@UEAA@XZ 0000000180190e20 f   GuCookingTriangleMesh.obj
 0001:0018fe90       ??_EBV4TriangleMeshBuilder@physx@@UEAAPEAXI@Z 0000000180190e90 f i GuCookingTriangleMesh.obj
 0001:0018fe90       ??_GBV4TriangleMeshBuilder@physx@@UEAAPEAXI@Z 0000000180190e90 f i GuCookingTriangleMesh.obj
 0001:0018fed0       ??_ERTreeTriangleMeshBuilder@physx@@UEAAPEAXI@Z 0000000180190ed0 f i GuCookingTriangleMesh.obj
 0001:0018fed0       ??_GRTreeTriangleMeshBuilder@physx@@UEAAPEAXI@Z 0000000180190ed0 f i GuCookingTriangleMesh.obj
 0001:0018ff10       ??_ETriangleMeshBuilder@physx@@UEAAPEAXI@Z 0000000180190f10 f i GuCookingTriangleMesh.obj
 0001:0018ff10       ??_GTriangleMeshBuilder@physx@@UEAAPEAXI@Z 0000000180190f10 f i GuCookingTriangleMesh.obj
 0001:001908d0       ?buildInertiaTensor@TriangleMeshBuilder@physx@@IEAAX_N@Z 00000001801918d0 f   GuCookingTriangleMesh.obj
 0001:00190a30       ?buildInertiaTensorFromSDF@TriangleMeshBuilder@physx@@IEAAXXZ 0000000180191a30 f   GuCookingTriangleMesh.obj
 0001:00190c70       ?cleanMesh@TriangleMeshBuilder@physx@@QEAA_N_NPEAW4Enum@PxTriangleMeshCookingResult@2@@Z 0000000180191c70 f   GuCookingTriangleMesh.obj
 0001:00191160       ?createGRBMidPhaseAndData@TriangleMeshBuilder@physx@@QEAA_NI@Z 0000000180192160 f   GuCookingTriangleMesh.obj
 0001:00191310       ?createMidPhaseStructure@BV32TriangleMeshBuilder@physx@@SA_NAEBUPxCookingParams@2@AEAVTriangleMeshData@Gu@2@AEAVBV32Tree@52@@Z 0000000180192310 f   GuCookingTriangleMesh.obj
 0001:00191560       ?createMidPhaseStructure@BV4TriangleMeshBuilder@physx@@UEAA_NXZ 0000000180192560 f   GuCookingTriangleMesh.obj
 0001:00191820       ?createMidPhaseStructure@RTreeTriangleMeshBuilder@physx@@UEAA_NXZ 0000000180192820 f   GuCookingTriangleMesh.obj
 0001:00191910       ?createSharedEdgeData@TriangleMeshBuilder@physx@@QEAAX_N0@Z 0000000180192910 f   GuCookingTriangleMesh.obj
 0001:00191fc0       ?createVertMapping@TriangleMeshBuilder@physx@@QEAAXXZ 0000000180192fc0 f   GuCookingTriangleMesh.obj
 0001:00192320       ?importMesh@TriangleMeshBuilder@physx@@IEAA_NAEBVPxTriangleMeshDesc@2@PEAW4Enum@PxTriangleMeshCookingResult@2@_N@Z 0000000180193320 f   GuCookingTriangleMesh.obj
 0001:001927e0       ?isValid@PxTriangleMeshDesc@physx@@QEBA_NXZ 00000001801937e0 f i GuCookingTriangleMesh.obj
 0001:001928b0       ?loadFromDescInternal@TriangleMeshBuilder@physx@@IEAA_NAEAVPxTriangleMeshDesc@2@PEAW4Enum@PxTriangleMeshCookingResult@2@_N@Z 00000001801938b0 f   GuCookingTriangleMesh.obj
 0001:00192ad0       ?onMeshIndexFormatChange@BV4TriangleMeshBuilder@physx@@UEAAXXZ 0000000180193ad0 f   GuCookingTriangleMesh.obj
 0001:00192b10       ?remap@RTreeCookerRemap@@UEAAXPEAIII@Z 0000000180193b10 f i GuCookingTriangleMesh.obj
 0001:00192b30       ?remapTopology@TriangleMeshBuilder@physx@@QEAAXPEBI@Z 0000000180193b30 f   GuCookingTriangleMesh.obj
 0001:00192dd0       ?save@TriangleMeshBuilder@physx@@QEBA_NAEAVPxOutputStream@2@_NAEBUPxCookingParams@2@@Z 0000000180193dd0 f   GuCookingTriangleMesh.obj
 0001:00193580       ?saveMidPhaseStructure@BV32TriangleMeshBuilder@physx@@SAXPEAVBV32Tree@Gu@2@AEAVPxOutputStream@2@_N@Z 0000000180194580 f   GuCookingTriangleMesh.obj
 0001:00193780       ?saveMidPhaseStructure@BV4TriangleMeshBuilder@physx@@UEBAXAEAVPxOutputStream@2@_N@Z 0000000180194780 f   GuCookingTriangleMesh.obj
 0001:00193930       ?saveMidPhaseStructure@RTreeTriangleMeshBuilder@physx@@UEBAXAEAVPxOutputStream@2@_N@Z 0000000180194930 f   GuCookingTriangleMesh.obj
 0001:00193b70       cookTriangleMesh           0000000180194b70 f   GuCookingTriangleMesh.obj
 0001:00193e80       createTriangleMesh         0000000180194e80 f   GuCookingTriangleMesh.obj
 0001:001940a0       validateTriangleMesh       00000001801950a0 f   GuCookingTriangleMesh.obj
 0001:00194360       ??0SoftBodyCollisionData@Gu@physx@@QEAA@XZ 0000000180195360 f i GuCookingTetrahedronMesh.obj
 0001:001943c0       ??_ECollisionTetrahedronMeshData@Gu@physx@@UEAAPEAXI@Z 00000001801953c0 f i GuCookingTetrahedronMesh.obj
 0001:001943c0       ??_GCollisionTetrahedronMeshData@Gu@physx@@UEAAPEAXI@Z 00000001801953c0 f i GuCookingTetrahedronMesh.obj
 0001:00194490       ??_EPxCollisionTetrahedronMeshData@physx@@UEAAPEAXI@Z 0000000180195490 f i GuCookingTetrahedronMesh.obj
 0001:00194490       ??_GPxCollisionTetrahedronMeshData@physx@@UEAAPEAXI@Z 0000000180195490 f i GuCookingTetrahedronMesh.obj
 0001:001944e0       ??_EPxSimulationTetrahedronMeshData@physx@@UEAAPEAXI@Z 00000001801954e0 f i GuCookingTetrahedronMesh.obj
 0001:001944e0       ??_GPxSimulationTetrahedronMeshData@physx@@UEAAPEAXI@Z 00000001801954e0 f i GuCookingTetrahedronMesh.obj
 0001:00194530       ??_ESimulationTetrahedronMeshData@Gu@physx@@UEAAPEAXI@Z 0000000180195530 f i GuCookingTetrahedronMesh.obj
 0001:00194530       ??_GSimulationTetrahedronMeshData@Gu@physx@@UEAAPEAXI@Z 0000000180195530 f i GuCookingTetrahedronMesh.obj
 0001:00194600       ?combineGridModelPartitions@@YAXAEBVTetrahedronMeshData@Gu@physx@@AEAVSoftBodySimulationData@23@PEAPEAI@Z 0000000180195600 f   GuCookingTetrahedronMesh.obj
 0001:00194e50       ?combineGridModelPartitionsHexMesh@@YAXAEBVTetrahedronMeshData@Gu@physx@@AEAVSoftBodySimulationData@23@PEAPEAII@Z 0000000180195e50 f   GuCookingTetrahedronMesh.obj
 0001:00195890       ?computeCollisionData@TetrahedronMeshBuilder@physx@@SA_NAEBVPxTetrahedronMeshDesc@2@AEAVTetrahedronMeshData@Gu@2@AEAVSoftBodyCollisionData@52@AEBUPxCookingParams@2@_N@Z 0000000180196890 f   GuCookingTetrahedronMesh.obj
 0001:00195ad0       ?computeGridModelTetrahedronPartitions@@YAPEAIAEBVTetrahedronMeshData@Gu@physx@@AEAVSoftBodySimulationData@23@@Z 0000000180196ad0 f   GuCookingTetrahedronMesh.obj
 0001:00195f70       ?computeModelsMapping@TetrahedronMeshBuilder@physx@@SAXAEAVTetrahedronMeshData@Gu@2@AEBV342@AEBVSoftBodyCollisionData@42@AEAVCollisionMeshMappingData@42@_NPEBUPxBoundedData@2@@Z 0000000180196f70 f   GuCookingTetrahedronMesh.obj
 0001:00196b80       ?computeRestPoseAndPointMass@@YAXPEAU?$TetrahedronT@I@Gu@physx@@IPEBV?$PxVec3T@M@3@PEAMPEAV?$PxMat33T@M@3@@Z 0000000180197b80 f   GuCookingTetrahedronMesh.obj
 0001:001970d0       ?computeSimData@TetrahedronMeshBuilder@physx@@SAXAEBVPxTetrahedronMeshDesc@2@AEAVTetrahedronMeshData@Gu@2@AEAVSoftBodySimulationData@52@AEBUPxCookingParams@2@@Z 00000001801980d0 f   GuCookingTetrahedronMesh.obj
 0001:001977a0       ?computeTetData@TetrahedronMeshBuilder@physx@@SAXAEBVPxTetrahedronMeshDesc@2@AEAVTetrahedronMeshData@Gu@2@@Z 00000001801987a0 f   GuCookingTetrahedronMesh.obj
 0001:00197890       ?computeTetrahedronPartition@@YAIPEBU?$TetrahedronT@I@Gu@physx@@IPEAII@Z 0000000180198890 f   GuCookingTetrahedronMesh.obj
 0001:00197980       ?createCollisionModelMapping@TetrahedronMeshBuilder@physx@@SAXAEBVTetrahedronMeshData@Gu@2@AEBVSoftBodyCollisionData@42@AEAVCollisionMeshMappingData@42@@Z 0000000180198980 f   GuCookingTetrahedronMesh.obj
 0001:00197f60       ?createGRBMidPhaseAndData@TetrahedronMeshBuilder@physx@@SA_NIAEAVTetrahedronMeshData@Gu@2@AEAVSoftBodyCollisionData@42@AEBUPxCookingParams@2@@Z 0000000180198f60 f   GuCookingTetrahedronMesh.obj
 0001:00198cb0       ?createMidPhaseStructure@BV32TetrahedronMeshBuilder@physx@@SA_NAEBUPxCookingParams@2@AEAVTetrahedronMeshData@Gu@2@AEAVBV32Tree@52@AEAVSoftBodyCollisionData@52@@Z 0000000180199cb0 f   GuCookingTetrahedronMesh.obj
 0001:00198f80       ?createMidPhaseStructure@TetrahedronMeshBuilder@physx@@SA_NAEAVTetrahedronMeshData@Gu@2@AEAVSoftBodyCollisionData@42@AEBUPxCookingParams@2@@Z 0000000180199f80 f   GuCookingTetrahedronMesh.obj
 0001:00199c50       ?getData@CollisionTetrahedronMeshData@Gu@physx@@UEAAPEAVPxSoftBodyCollisionData@3@XZ 000000018019ac50 f i GuCookingTetrahedronMesh.obj
 0001:00199c50       ?getData@CollisionTetrahedronMeshData@Gu@physx@@UEBAPEBVPxSoftBodyCollisionData@3@XZ 000000018019ac50 f i GuCookingTetrahedronMesh.obj
 0001:00199c50       ?getData@SimulationTetrahedronMeshData@Gu@physx@@UEAAPEAVPxSoftBodySimulationData@3@XZ 000000018019ac50 f i GuCookingTetrahedronMesh.obj
 0001:00199c70       ?importMesh@TetrahedronMeshBuilder@physx@@SA_NAEBVPxTetrahedronMeshDesc@2@AEBUPxCookingParams@2@AEAVTetrahedronMeshData@Gu@2@AEAVSoftBodyCollisionData@62@_N@Z 000000018019ac70 f   GuCookingTetrahedronMesh.obj
 0001:00199f70       ?isValid@PxTetrahedronMeshDesc@physx@@QEBA_NXZ 000000018019af70 f i GuCookingTetrahedronMesh.obj
 0001:00199ff0       ?loadFromDesc@TetrahedronMeshBuilder@physx@@SA_NAEBVPxTetrahedronMeshDesc@2@0VPxSoftBodySimulationDataDesc@2@AEAVTetrahedronMeshData@Gu@2@AEAVSoftBodySimulationData@62@2AEAVSoftBodyCollisionData@62@AEAVCollisionMeshMappingData@62@AEBUPxCookingParams@2@_N@Z 000000018019aff0 f   GuCookingTetrahedronMesh.obj
 0001:0019a160       ?release@CollisionTetrahedronMeshData@Gu@physx@@UEAAXXZ 000000018019b160 f i GuCookingTetrahedronMesh.obj
 0001:0019a180       ?reserveInternal@?$PxHashBase@V?$PxPair@$$CBVSortedTriangleInds@@I@physx@@VSortedTriangleInds@@USortedTriangleIndsHash@@UGetKey@?$PxHashMapBase@VSortedTriangleInds@@IUSortedTriangleIndsHash@@VPxAllocator@physx@@@2@VPxAllocator@2@$00@physx@@AEAAXI@Z 000000018019b180 f i GuCookingTetrahedronMesh.obj
 0001:0019a3c0       ?saveSoftBodyMeshData@TetrahedronMeshBuilder@physx@@SA_NAEAVPxOutputStream@2@_NAEBUPxCookingParams@2@AEBVTetrahedronMeshData@Gu@2@AEBVSoftBodySimulationData@62@3AEBVSoftBodyCollisionData@62@AEBVCollisionMeshMappingData@62@@Z 000000018019b3c0 f   GuCookingTetrahedronMesh.obj
 0001:0019aad0       ?saveTetrahedronMeshData@TetrahedronMeshBuilder@physx@@SA_NAEAVPxOutputStream@2@_NAEBUPxCookingParams@2@AEBVTetrahedronMeshData@Gu@2@@Z 000000018019bad0 f   GuCookingTetrahedronMesh.obj
 0001:0019ac80       ?smoothMassRatiosWhilePreservingTotalMass@@YAXPEAMIPEBIHMM@Z 000000018019bc80 f   GuCookingTetrahedronMesh.obj
 0001:0019b120       ?support@?$LocalConvex@VTetrahedronV@Gu@physx@@@Gu@physx@@UEBA?AT__m128@@AEBT4@@Z 000000018019c120 f i GuCookingTetrahedronMesh.obj
 0001:0019b1e0       ?support@?$LocalConvex@VTetrahedronV@Gu@physx@@@Gu@physx@@UEBA?AT__m128@@AEBT4@AEAH@Z 000000018019c1e0 f i GuCookingTetrahedronMesh.obj
 0001:0019b390       assembleSoftBodyMesh       000000018019c390 f   GuCookingTetrahedronMesh.obj
 0001:0019b3f0       assembleSoftBodyMesh_Sim   000000018019c3f0 f   GuCookingTetrahedronMesh.obj
 0001:0019b4a0       computeCollisionData       000000018019c4a0 f   GuCookingTetrahedronMesh.obj
 0001:0019b6a0       computeModelsMapping       000000018019c6a0 f   GuCookingTetrahedronMesh.obj
 0001:0019b7a0       computeSimulationData      000000018019c7a0 f   GuCookingTetrahedronMesh.obj
 0001:0019b970       cookSoftBodyMesh           000000018019c970 f   GuCookingTetrahedronMesh.obj
 0001:0019bf90       cookTetrahedronMesh        000000018019cf90 f   GuCookingTetrahedronMesh.obj
 0001:0019c090       createSoftBodyMesh         000000018019d090 f   GuCookingTetrahedronMesh.obj
 0001:0019c730       createTetrahedronMesh      000000018019d730 f   GuCookingTetrahedronMesh.obj
 0001:0019e420       ?computeVolumeIntegrals@physx@@YA_NAEBVPxSimpleTriangleMesh@1@MAEAUPxIntegrals@1@@Z 000000018019f420 f   GuCookingVolumeIntegration.obj
 0001:0019e460       ?computeVolumeIntegralsEberly@physx@@YA_NAEBVPxConvexMeshDesc@1@MAEAUPxIntegrals@1@AEBV?$PxVec3T@M@1@_N@Z 000000018019f460 f   GuCookingVolumeIntegration.obj
 0001:0019eac0       ??0QuickHull@local@@QEAA@AEBUPxCookingParams@physx@@AEBVPxConvexMeshDesc@3@@Z 000000018019fac0 f   GuCookingQuickHullConvexHullLib.obj
 0001:0019eb70       ??0QuickHullConvexHullLib@physx@@QEAA@AEBVPxConvexMeshDesc@1@AEBUPxCookingParams@1@@Z 000000018019fb70 f   GuCookingQuickHullConvexHullLib.obj
 0001:0019ec50       ??1?$MemBlock@UQuickHullFace@local@@$00@local@@QEAA@XZ 000000018019fc50 f i GuCookingQuickHullConvexHullLib.obj
 0001:0019ec50       ??1?$MemBlock@UQuickHullHalfEdge@local@@$0A@@local@@QEAA@XZ 000000018019fc50 f i GuCookingQuickHullConvexHullLib.obj
 0001:0019ed10       ??1QuickHull@local@@QEAA@XZ 000000018019fd10 f   GuCookingQuickHullConvexHullLib.obj
 0001:0019ee70       ??_GConvexHull@physx@@QEAAPEAXI@Z 000000018019fe70 f i GuCookingQuickHullConvexHullLib.obj
 0001:0019ef60       ??_EConvexHullLib@physx@@UEAAPEAXI@Z 000000018019ff60 f i GuCookingQuickHullConvexHullLib.obj
 0001:0019ef60       ??_GConvexHullLib@physx@@UEAAPEAXI@Z 000000018019ff60 f i GuCookingQuickHullConvexHullLib.obj
 0001:0019efa0       ??_EQuickHullConvexHullLib@physx@@UEAAPEAXI@Z 000000018019ffa0 f i GuCookingQuickHullConvexHullLib.obj
 0001:0019efa0       ??_GQuickHullConvexHullLib@physx@@UEAAPEAXI@Z 000000018019ffa0 f i GuCookingQuickHullConvexHullLib.obj
 0001:0019f0c0       ?addPointToHull@QuickHull@local@@IEAA_NPEBUQuickHullVertex@2@AEAUQuickHullFace@2@AEA_N@Z 00000001801a00c0 f   GuCookingQuickHullConvexHullLib.obj
 0001:0019f390       ?addSimplex@QuickHull@local@@IEAA_NPEAUQuickHullVertex@2@_N@Z 00000001801a0390 f   GuCookingQuickHullConvexHullLib.obj
 0001:0019f8a0       ?allocate@?$PxArray@PEAUQuickHullFace@local@@V?$PxReflectionAllocator@PEAUQuickHullFace@local@@@physx@@@physx@@IEAAPEAPEAUQuickHullFace@local@@I@Z 00000001801a08a0 f i GuCookingQuickHullConvexHullLib.obj
 0001:0019f930       ?allocate@?$PxArray@PEAUQuickHullHalfEdge@local@@V?$PxReflectionAllocator@PEAUQuickHullHalfEdge@local@@@physx@@@physx@@IEAAPEAPEAUQuickHullHalfEdge@local@@I@Z 00000001801a0930 f i GuCookingQuickHullConvexHullLib.obj
 0001:0019f9c0       ?allocate@?$PxArray@PEAUQuickHullVertex@local@@V?$PxReflectionAllocator@PEAUQuickHullVertex@local@@@physx@@@physx@@IEAAPEAPEAUQuickHullVertex@local@@I@Z 00000001801a09c0 f i GuCookingQuickHullConvexHullLib.obj
 0001:0019fa50       ?allocate@?$PxArray@UExpandPoint@local@@V?$PxReflectionAllocator@UExpandPoint@local@@@physx@@@physx@@IEAAPEAUExpandPoint@local@@I@Z 00000001801a0a50 f i GuCookingQuickHullConvexHullLib.obj
 0001:0019fae0       ?allocate@?$PxArray@VPxPlane@physx@@V?$PxReflectionAllocator@VPxPlane@physx@@@2@@physx@@IEAAPEAVPxPlane@2@I@Z 00000001801a0ae0 f i GuCookingQuickHullConvexHullLib.obj
 0001:0019fb70       ?buildHull@QuickHull@local@@QEAA?AW4Enum@QuickHullResult@2@XZ 00000001801a0b70 f   GuCookingQuickHullConvexHullLib.obj
 0001:0019fdc0       ?calculateHorizon@QuickHull@local@@IEAAXAEBV?$PxVec3T@M@physx@@PEAUQuickHullHalfEdge@2@AEAUQuickHullFace@2@AEAV?$PxArray@PEAUQuickHullHalfEdge@local@@V?$PxReflectionAllocator@PEAUQuickHullHalfEdge@local@@@physx@@@4@AEAV?$PxArray@PEAUQuickHullFace@local@@V?$PxReflectionAllocator@PEAUQuickHullFace@local@@@physx@@@4@@Z 00000001801a0dc0 f   GuCookingQuickHullConvexHullLib.obj
 0001:0019ff70       ?canMergeFaces@QuickHull@local@@IEAA_NAEBUQuickHullHalfEdge@2@@Z 00000001801a0f70 f   GuCookingQuickHullConvexHullLib.obj
 0001:001a07b0       ?cleanupForSimplex@QuickHullConvexHullLib@physx@@IEAA_NPEAV?$PxVec3T@M@2@IPEAUQuickHullVertex@local@@1AEAM2@Z 00000001801a17b0 f   GuCookingQuickHullConvexHullLib.obj
 0001:001a1400       ?computeMinMaxVerts@QuickHull@local@@IEAAXXZ 00000001801a2400 f   GuCookingQuickHullConvexHullLib.obj
 0001:001a17d0       ?connectHalfEdges@QuickHullFace@local@@AEAAPEAU12@PEAUQuickHullHalfEdge@2@0@Z 00000001801a27d0 f   GuCookingQuickHullConvexHullLib.obj
 0001:001a1b40       ?copy@?$PxArray@UExpandPoint@local@@V?$PxReflectionAllocator@UExpandPoint@local@@@physx@@@physx@@KAXPEAUExpandPoint@local@@0PEBU34@@Z 00000001801a2b40 f i GuCookingQuickHullConvexHullLib.obj
 0001:001a1bf0       ?copy@?$PxArray@VPxPlane@physx@@V?$PxReflectionAllocator@VPxPlane@physx@@@2@@physx@@KAXPEAVPxPlane@2@0PEBV32@@Z 00000001801a2bf0 f i GuCookingQuickHullConvexHullLib.obj
 0001:001a1cf0       ?createConvexHull@QuickHullConvexHullLib@physx@@UEAA?AW4Enum@PxConvexMeshCookingResult@2@XZ 00000001801a2cf0 f   GuCookingQuickHullConvexHullLib.obj
 0001:001a2100       ?createEdgeList@QuickHullConvexHullLib@physx@@UEAA_NIPEBEPEAPEAEPEAPEAG2@Z 00000001801a3100 f   GuCookingQuickHullConvexHullLib.obj
 0001:001a2320       ?createTriangle@QuickHull@local@@IEAAPEAUQuickHullFace@2@AEBUQuickHullVertex@2@00@Z 00000001801a3320 f   GuCookingQuickHullConvexHullLib.obj
 0001:001a26f0       ?doAdjacentMerge@QuickHull@local@@IEAA_NAEAUQuickHullFace@2@_NAEA_N@Z 00000001801a36f0 f   GuCookingQuickHullConvexHullLib.obj
 0001:001a2a40       ?expandHull@QuickHullConvexHullLib@physx@@IEAA?AW4Enum@PxConvexMeshCookingResult@2@XZ 00000001801a3a40 f   GuCookingQuickHullConvexHullLib.obj
 0001:001a3380       ?expandHullOBB@QuickHullConvexHullLib@physx@@IEAA?AW4Enum@PxConvexMeshCookingResult@2@XZ 00000001801a4380 f   GuCookingQuickHullConvexHullLib.obj
 0001:001a37c0       ?fillConvexMeshDesc@QuickHullConvexHullLib@physx@@UEAAXAEAVPxConvexMeshDesc@2@@Z 00000001801a47c0 f   GuCookingQuickHullConvexHullLib.obj
 0001:001a3810       ?fillConvexMeshDescFromCroppedHull@QuickHullConvexHullLib@physx@@IEAAXAEAVPxConvexMeshDesc@2@@Z 00000001801a4810 f   GuCookingQuickHullConvexHullLib.obj
 0001:001a3a00       ?fillConvexMeshDescFromQuickHull@QuickHullConvexHullLib@physx@@IEAAXAEAVPxConvexMeshDesc@2@@Z 00000001801a4a00 f   GuCookingQuickHullConvexHullLib.obj
 0001:001a3d80       ?findSimplex@QuickHull@local@@IEAA_NXZ 00000001801a4d80 f   GuCookingQuickHullConvexHullLib.obj
 0001:001a4a20       ?getFreeItem@?$MemBlock@UQuickHullFace@local@@$00@local@@QEAAPEAUQuickHullFace@2@XZ 00000001801a5a20 f i GuCookingQuickHullConvexHullLib.obj
 0001:001a4b50       ?getFreeItem@?$MemBlock@UQuickHullHalfEdge@local@@$0A@@local@@QEAAPEAUQuickHullHalfEdge@2@XZ 00000001801a5b50 f i GuCookingQuickHullConvexHullLib.obj
 0001:001a4c20       ?growAndPushBack@?$PxArray@PEAUQuickHullFace@local@@V?$PxReflectionAllocator@PEAUQuickHullFace@local@@@physx@@@physx@@IEAAAEAPEAUQuickHullFace@local@@AEBQEAU34@@Z 00000001801a5c20 f i GuCookingQuickHullConvexHullLib.obj
 0001:001a4ce0       ?growAndPushBack@?$PxArray@PEAUQuickHullHalfEdge@local@@V?$PxReflectionAllocator@PEAUQuickHullHalfEdge@local@@@physx@@@physx@@IEAAAEAPEAUQuickHullHalfEdge@local@@AEBQEAU34@@Z 00000001801a5ce0 f i GuCookingQuickHullConvexHullLib.obj
 0001:001a4da0       ?growAndPushBack@?$PxArray@PEAUQuickHullVertex@local@@V?$PxReflectionAllocator@PEAUQuickHullVertex@local@@@physx@@@physx@@IEAAAEAPEAUQuickHullVertex@local@@AEBQEAU34@@Z 00000001801a5da0 f i GuCookingQuickHullConvexHullLib.obj
 0001:001a4e60       ?growAndPushBack@?$PxArray@UExpandPoint@local@@V?$PxReflectionAllocator@UExpandPoint@local@@@physx@@@physx@@IEAAAEAUExpandPoint@local@@AEBU34@@Z 00000001801a5e60 f i GuCookingQuickHullConvexHullLib.obj
 0001:001a4f60       ?growAndPushBack@?$PxArray@VPxPlane@physx@@V?$PxReflectionAllocator@VPxPlane@physx@@@2@@physx@@IEAAAEAVPxPlane@2@AEBV32@@Z 00000001801a5f60 f i GuCookingQuickHullConvexHullLib.obj
 0001:001a5020       ?init@?$MemBlock@UQuickHullFace@local@@$00@local@@QEAAXI@Z 00000001801a6020 f i GuCookingQuickHullConvexHullLib.obj
 0001:001a5120       ?init@?$MemBlock@UQuickHullHalfEdge@local@@$0A@@local@@QEAAXI@Z 00000001801a6120 f i GuCookingQuickHullConvexHullLib.obj
 0001:001a51c0       ?mergeAdjacentFace@QuickHullFace@local@@QEAA_NPEAUQuickHullHalfEdge@2@AEAV?$PxArray@PEAUQuickHullFace@local@@V?$PxReflectionAllocator@PEAUQuickHullFace@local@@@physx@@@physx@@@Z 00000001801a61c0 f   GuCookingQuickHullConvexHullLib.obj
 0001:001a5620       ?nextPointToAdd@QuickHull@local@@IEAAPEAUQuickHullVertex@2@AEAPEAUQuickHullFace@2@@Z 00000001801a6620 f   GuCookingQuickHullConvexHullLib.obj
 0001:001a57a0       ?parseInputVertices@QuickHull@local@@QEAAXPEBV?$PxVec3T@M@physx@@I@Z 00000001801a67a0 f   GuCookingQuickHullConvexHullLib.obj
 0001:001a5920       ?postMergeHull@QuickHull@local@@IEAAXXZ 00000001801a6920 f   GuCookingQuickHullConvexHullLib.obj
 0001:001a5b80       ?preallocate@QuickHull@local@@QEAAXI@Z 00000001801a6b80 f   GuCookingQuickHullConvexHullLib.obj
 0001:001a5cc0       ?recreate@?$PxArray@PEAUQuickHullFace@local@@V?$PxReflectionAllocator@PEAUQuickHullFace@local@@@physx@@@physx@@IEAAXI@Z 00000001801a6cc0 f i GuCookingQuickHullConvexHullLib.obj
 0001:001a5d60       ?recreate@?$PxArray@PEAUQuickHullHalfEdge@local@@V?$PxReflectionAllocator@PEAUQuickHullHalfEdge@local@@@physx@@@physx@@IEAAXI@Z 00000001801a6d60 f i GuCookingQuickHullConvexHullLib.obj
 0001:001a5e00       ?recreate@?$PxArray@PEAUQuickHullVertex@local@@V?$PxReflectionAllocator@PEAUQuickHullVertex@local@@@physx@@@physx@@IEAAXI@Z 00000001801a6e00 f i GuCookingQuickHullConvexHullLib.obj
 0001:001a5ea0       ?recreate@?$PxArray@UExpandPoint@local@@V?$PxReflectionAllocator@UExpandPoint@local@@@physx@@@physx@@IEAAXI@Z 00000001801a6ea0 f i GuCookingQuickHullConvexHullLib.obj
 0001:001a5f30       ?recreate@?$PxArray@VPxPlane@physx@@V?$PxReflectionAllocator@VPxPlane@physx@@@2@@physx@@IEAAXI@Z 00000001801a6f30 f i GuCookingQuickHullConvexHullLib.obj
 0001:001a5fc0       ?resolveUnclaimedPoints@QuickHull@local@@IEAAXAEBV?$PxArray@PEAUQuickHullFace@local@@V?$PxReflectionAllocator@PEAUQuickHullFace@local@@@physx@@@physx@@@Z 00000001801a6fc0 f   GuCookingQuickHullConvexHullLib.obj
 0001:001a6240       ??$copy@V?$PxReflectionAllocator@VPair@@@physx@@@?$PxArray@VPair@@V?$PxReflectionAllocator@VPair@@@physx@@@physx@@IEAAXAEBV01@@Z 00000001801a7240 f i GuCookingConvexPolygonsBuilder.obj
 0001:001a62c0       ??0ConvexPolygonsBuilder@physx@@QEAA@PEAUConvexHullData@Gu@1@_N@Z 00000001801a72c0 f   GuCookingConvexPolygonsBuilder.obj
 0001:001a62e0       ??1ConvexPolygonsBuilder@physx@@QEAA@XZ 00000001801a72e0 f   GuCookingConvexPolygonsBuilder.obj
 0001:001a6b30       ?allocate@?$PxArray@VPair@@V?$PxReflectionAllocator@VPair@@@physx@@@physx@@IEAAPEAVPair@@I@Z 00000001801a7b30 f i GuCookingConvexPolygonsBuilder.obj
 0001:001a7610       ?computeHullPolygons@ConvexPolygonsBuilder@physx@@QEAA_NAEBIPEBV?$PxVec3T@M@2@0PEBI@Z 00000001801a8610 f   GuCookingConvexPolygonsBuilder.obj
 0001:001a88d0       ?createPolygonData@ConvexPolygonsBuilder@physx@@AEAA_NXZ 00000001801a98d0 f   GuCookingConvexPolygonsBuilder.obj
 0001:001a9330       ?createTrianglesFromPolygons@ConvexPolygonsBuilder@physx@@AEAA_NXZ 00000001801aa330 f   GuCookingConvexPolygonsBuilder.obj
 0001:001aa9b0       ?growAndPushBack@?$PxArray@VPair@@V?$PxReflectionAllocator@VPair@@@physx@@@physx@@IEAAAEAVPair@@AEBV3@@Z 00000001801ab9b0 f i GuCookingConvexPolygonsBuilder.obj
 0001:001aab40       ??0ConvexMeshBuilder@physx@@QEAA@_N@Z 00000001801abb40 f   GuCookingConvexMeshBuilder.obj
 0001:001aabb0       ??1ConvexMeshBuilder@physx@@QEAA@XZ 00000001801abbb0 f   GuCookingConvexMeshBuilder.obj
 0001:001ab040       ?build@ConvexMeshBuilder@physx@@QEAA_NAEBVPxConvexMeshDesc@2@I_NPEAVConvexHullLib@2@@Z 00000001801ac040 f   GuCookingConvexMeshBuilder.obj
 0001:001ab3d0       ?checkExtentRadiusRatio@ConvexMeshBuilder@physx@@QEAA_NXZ 00000001801ac3d0 f   GuCookingConvexMeshBuilder.obj
 0001:001ab400       ?computeHullPolygons@ConvexMeshBuilder@physx@@QEAA_NAEBIPEBV?$PxVec3T@M@2@0PEBIAEAVPxAllocatorCallback@2@AEAIAEAPEAV32@4AEAPEAI4AEAPEAUPxHullPolygon@2@@Z 00000001801ac400 f   GuCookingConvexMeshBuilder.obj
 0001:001ab610       ?computeMassInfo@ConvexMeshBuilder@physx@@QEAAX_N@Z 00000001801ac610 f   GuCookingConvexMeshBuilder.obj
 0001:001ab9a0       ?computeSDF@ConvexMeshBuilder@physx@@QEAAXAEBVPxConvexMeshDesc@2@@Z 00000001801ac9a0 f   GuCookingConvexMeshBuilder.obj
 0001:001abdb0       ?copy@ConvexMeshBuilder@physx@@QEAA_NAEAUConvexHullInitData@Gu@2@@Z 00000001801acdb0 f   GuCookingConvexMeshBuilder.obj
 0001:001abf10       ?loadConvexHull@ConvexMeshBuilder@physx@@QEAA_NAEBVPxConvexMeshDesc@2@PEAVConvexHullLib@2@@Z 00000001801acf10 f   GuCookingConvexMeshBuilder.obj
 0001:001ac160       ?save@ConvexMeshBuilder@physx@@QEBA_NAEAVPxOutputStream@2@_N@Z 00000001801ad160 f   GuCookingConvexMeshBuilder.obj
 0001:001ac580       ??0ConvexHull@physx@@QEAA@AEBV?$PxVec3T@M@1@AEBV?$PxTransformT@M@1@AEBV?$PxArray@VPxPlane@physx@@V?$PxReflectionAllocator@VPxPlane@physx@@@2@@1@@Z 00000001801ad580 f   GuCookingConvexHullUtils.obj
 0001:001ad6a0       ?allocate@?$PxArray@VHalfEdge@ConvexHull@physx@@V?$PxReflectionAllocator@VHalfEdge@ConvexHull@physx@@@3@@physx@@IEAAPEAVHalfEdge@ConvexHull@2@I@Z 00000001801ae6a0 f i GuCookingConvexHullUtils.obj
 0001:001ad730       ?assertIntact@ConvexHull@physx@@QEBA_NM@Z 00000001801ae730 f   GuCookingConvexHullUtils.obj
 0001:001ada50       ?computeOBBFromConvex@physx@@YA_NAEBVPxConvexMeshDesc@1@AEAV?$PxVec3T@M@1@AEAV?$PxTransformT@M@1@@Z 00000001801aea50 f   GuCookingConvexHullUtils.obj
 0001:001ae0b0       ?computeOBBSIMD@local@@YAXIPEBT__m128@@AEAT2@AEBT2@1@Z 00000001801af0b0 f   GuCookingConvexHullUtils.obj
 0001:001ae460       ?convexHullCrop@physx@@YAPEAVConvexHull@1@AEBV21@AEBVPxPlane@1@M@Z 00000001801af460 f   GuCookingConvexHullUtils.obj
 0001:001af260       ?findCandidatePlane@ConvexHull@physx@@QEBAHMM@Z 00000001801b0260 f   GuCookingConvexHullUtils.obj
 0001:001af6b0       ?growAndPushBack@?$PxArray@VHalfEdge@ConvexHull@physx@@V?$PxReflectionAllocator@VHalfEdge@ConvexHull@physx@@@3@@physx@@IEAAAEAVHalfEdge@ConvexHull@2@AEBV342@@Z 00000001801b06b0 f i GuCookingConvexHullUtils.obj
 0001:001af770       ?maxNumVertsPerFace@ConvexHull@physx@@QEBAIXZ 00000001801b0770 f   GuCookingConvexHullUtils.obj
 0001:001af7e0       ?recreate@?$PxArray@VHalfEdge@ConvexHull@physx@@V?$PxReflectionAllocator@VHalfEdge@ConvexHull@physx@@@3@@physx@@IEAAXI@Z 00000001801b07e0 f i GuCookingConvexHullUtils.obj
 0001:001af880       ?resize@?$PxArray@VHalfEdge@ConvexHull@physx@@V?$PxReflectionAllocator@VHalfEdge@ConvexHull@physx@@@3@@physx@@QEAAXIAEBVHalfEdge@ConvexHull@2@@Z 00000001801b0880 f i GuCookingConvexHullUtils.obj
 0001:001af940       ?resize@?$PxArray@VPxPlane@physx@@V?$PxReflectionAllocator@VPxPlane@physx@@@2@@physx@@QEAAXIAEBVPxPlane@2@@Z 00000001801b0940 f i GuCookingConvexHullUtils.obj
 0001:001afa60       ??1ConvexHullLib@physx@@UEAA@XZ 00000001801b0a60 f   GuCookingConvexHullLib.obj
 0001:001b0050       ?cleanupVertices@ConvexHullLib@physx@@IEAA_NIPEBV?$PxVec3T@M@2@IAEAIPEAV32@@Z 00000001801b1050 f   GuCookingConvexHullLib.obj
 0001:001b0190       ?shiftAndcleanupVertices@ConvexHullLib@physx@@IEAA_NIPEBV?$PxVec3T@M@2@IAEAIPEAV32@@Z 00000001801b1190 f   GuCookingConvexHullLib.obj
 0001:001b0770       ?shiftConvexMeshDesc@ConvexHullLib@physx@@IEAAXAEAVPxConvexMeshDesc@2@@Z 00000001801b1770 f   GuCookingConvexHullLib.obj
 0001:001b0830       ?swapLargestFace@ConvexHullLib@physx@@IEAAXAEAVPxConvexMeshDesc@2@@Z 00000001801b1830 f   GuCookingConvexHullLib.obj
 0001:001b0a60       ??0ConvexHullBuilder@physx@@QEAA@PEAUConvexHullData@Gu@1@_N@Z 00000001801b1a60 f   GuCookingConvexHullBuilder.obj
 0001:001b0a90       ??1ConvexHullBuilder@physx@@QEAA@XZ 00000001801b1a90 f   GuCookingConvexHullBuilder.obj
 0001:001b0ba0       ?calculateVertexMapTable@ConvexHullBuilder@physx@@QEAA_NI_N@Z 00000001801b1ba0 f   GuCookingConvexHullBuilder.obj
 0001:001b0d60       ?checkHullPolygons@ConvexHullBuilder@physx@@QEBA_NXZ 00000001801b1d60 f   GuCookingConvexHullBuilder.obj
 0001:001b1320       ?copy@ConvexHullBuilder@physx@@QEAA_NAEAUConvexHullData@Gu@2@AEAI@Z 00000001801b2320 f   GuCookingConvexHullBuilder.obj
 0001:001b1590       ?createEdgeList@ConvexHullBuilder@physx@@QEAA_N_NI@Z 00000001801b2590 f   GuCookingConvexHullBuilder.obj
 0001:001b1cd0       ?init@ConvexHullBuilder@physx@@QEAA_NIPEBV?$PxVec3T@M@2@PEBIIIPEBUPxHullPolygon@2@_NPEAVConvexHullLib@2@@Z 00000001801b2cd0 f   GuCookingConvexHullBuilder.obj
 0001:001b2610       ?save@ConvexHullBuilder@physx@@QEBA_NAEAVPxOutputStream@2@_N@Z 00000001801b3610 f   GuCookingConvexHullBuilder.obj
 0001:001b2930       ??0BigConvexDataBuilder@physx@@QEAA@PEBUConvexHullData@Gu@1@PEAVBigConvexData@1@PEBV?$PxVec3T@M@1@@Z 00000001801b3930 f   GuCookingBigConvexDataBuilder.obj
 0001:001b2940       ?computeValencies@BigConvexDataBuilder@physx@@QEAA_NAEBVConvexHullBuilder@2@@Z 00000001801b3940 f   GuCookingBigConvexDataBuilder.obj
 0001:001b2d30       ?precompute@BigConvexDataBuilder@physx@@QEAA_NI@Z 00000001801b3d30 f   GuCookingBigConvexDataBuilder.obj
 0001:001b3920       ?save@BigConvexDataBuilder@physx@@QEBA_NAEAVPxOutputStream@2@_N@Z 00000001801b4920 f   GuCookingBigConvexDataBuilder.obj
 0001:001b3b0e       __imp_load_PxGetFoundation 00000001801b4b0e f   PhysXFoundation_64:PhysXFoundation_64.dll
 0001:001b3b1a       __tailMerge_physxfoundation_64_dll 00000001801b4b1a     PhysXFoundation_64:PhysXFoundation_64.dll
 0001:001b3b93       __imp_load_PxGetBroadcastAllocator 00000001801b4b93 f   PhysXFoundation_64:PhysXFoundation_64.dll
 0001:001b3b9f       __imp_load_?PxAtomicIncrement@physx@@YAHPECH@Z 00000001801b4b9f f   PhysXFoundation_64:PhysXFoundation_64.dll
 0001:001b3bab       __imp_load_??0PxMutexImpl@physx@@QEAA@XZ 00000001801b4bab f   PhysXFoundation_64:PhysXFoundation_64.dll
 0001:001b3bb7       __imp_load_??1PxMutexImpl@physx@@QEAA@XZ 00000001801b4bb7 f   PhysXFoundation_64:PhysXFoundation_64.dll
 0001:001b3bc3       __imp_load_?lock@PxMutexImpl@physx@@QEAAXXZ 00000001801b4bc3 f   PhysXFoundation_64:PhysXFoundation_64.dll
 0001:001b3bcf       __imp_load_?unlock@PxMutexImpl@physx@@QEAAXXZ 00000001801b4bcf f   PhysXFoundation_64:PhysXFoundation_64.dll
 0001:001b3bdb       __imp_load_?getSize@PxMutexImpl@physx@@SAIXZ 00000001801b4bdb f   PhysXFoundation_64:PhysXFoundation_64.dll
 0001:001b3be7       __imp_load_?PxAtomicDecrement@physx@@YAHPECH@Z 00000001801b4be7 f   PhysXFoundation_64:PhysXFoundation_64.dll
 0001:001b3bf3       __imp_load_?PxTransformFromSegment@physx@@YA?AV?$PxTransformT@M@1@AEBV?$PxVec3T@M@1@0PEAM@Z 00000001801b4bf3 f   PhysXFoundation_64:PhysXFoundation_64.dll
 0001:001b3bff       __imp_load_?PxAtomicAdd@physx@@YAHPECHH@Z 00000001801b4bff f   PhysXFoundation_64:PhysXFoundation_64.dll
 0001:001b3c0b       __imp_load_?getDefaultStackSize@PxThreadImpl@physx@@SAIXZ 00000001801b4c0b f   PhysXFoundation_64:PhysXFoundation_64.dll
 0001:001b3c17       __imp_load_??0PxThreadImpl@physx@@QEAA@P6APEAXPEAX@Z0PEBD@Z 00000001801b4c17 f   PhysXFoundation_64:PhysXFoundation_64.dll
 0001:001b3c23       __imp_load_??1PxThreadImpl@physx@@QEAA@XZ 00000001801b4c23 f   PhysXFoundation_64:PhysXFoundation_64.dll
 0001:001b3c2f       __imp_load_?start@PxThreadImpl@physx@@QEAAXIPEAVPxRunnable@2@@Z 00000001801b4c2f f   PhysXFoundation_64:PhysXFoundation_64.dll
 0001:001b3c3b       __imp_load_?waitForQuit@PxThreadImpl@physx@@QEAA_NXZ 00000001801b4c3b f   PhysXFoundation_64:PhysXFoundation_64.dll
 0001:001b3c47       __imp_load_?getSize@PxThreadImpl@physx@@SAIXZ 00000001801b4c47 f   PhysXFoundation_64:PhysXFoundation_64.dll
 0001:001b3c53       __imp_load_?allocate@PxTempAllocator@physx@@QEAAPEAX_KPEBDH@Z 00000001801b4c53 f   PhysXFoundation_64:PhysXFoundation_64.dll
 0001:001b3c5f       __imp_load_?deallocate@PxTempAllocator@physx@@QEAAXPEAX@Z 00000001801b4c5f f   PhysXFoundation_64:PhysXFoundation_64.dll
 0001:001b3c6b       __imp_load_?PxOptimizeBoundingBox@physx@@YA?AV?$PxVec3T@M@1@AEAV?$PxMat33T@M@1@@Z 00000001801b4c6b f   PhysXFoundation_64:PhysXFoundation_64.dll
 0001:001b3c77       __imp_load_?Pxstrcmp@physx@@YAHPEBD0@Z 00000001801b4c77 f   PhysXFoundation_64:PhysXFoundation_64.dll
 0001:001b3c83       __imp_load_PxGetProfilerCallback 00000001801b4c83 f   PhysXFoundation_64:PhysXFoundation_64.dll
 0001:001b3c8f       __imp_load_??0PxFPUGuard@physx@@QEAA@XZ 00000001801b4c8f f   PhysXFoundation_64:PhysXFoundation_64.dll
 0001:001b3c9b       __imp_load_??1PxFPUGuard@physx@@QEAA@XZ 00000001801b4c9b f   PhysXFoundation_64:PhysXFoundation_64.dll
 0001:001b3ca7       __imp_load_?PxDiagonalize@physx@@YA?AV?$PxVec3T@M@1@AEBV?$PxMat33T@M@1@AEAV?$PxQuatT@M@1@@Z 00000001801b4ca7 f   PhysXFoundation_64:PhysXFoundation_64.dll
 0001:001b3cb4       ?DloadAcquireSectionWriteAccess@@YAXXZ 00000001801b4cb4 f i Delayimp:delayhlp.obj
 0001:001b3d60       ?DloadGetSRWLockFunctionPointers@@YAEXZ 00000001801b4d60 f i Delayimp:delayhlp.obj
 0001:001b3e00       ?DloadMakePermanentImageCommit@@YAXPEAX_K@Z 00000001801b4e00 f i Delayimp:delayhlp.obj
 0001:001b3e98       ?DloadObtainSection@@YAPEAXPEAK0@Z 00000001801b4e98 f i Delayimp:delayhlp.obj
 0001:001b3f34       ?DloadProtectSection@@YAXKPEAK@Z 00000001801b4f34 f i Delayimp:delayhlp.obj
 0001:001b3fc4       ?DloadReleaseSectionWriteAccess@@YAXXZ 00000001801b4fc4 f i Delayimp:delayhlp.obj
 0001:001b4058       __delayLoadHelper2         00000001801b5058 f   Delayimp:delayhlp.obj
 0001:001b4330       ??3@YAXPEAX_K@Z            00000001801b5330 f   LIBCMT:delete_scalar_size.obj
 0001:001b4330       ??_V@YAXPEAX@Z             00000001801b5330 f   LIBCMT:delete_array.obj
 0001:001b4338       ??_Etype_info@@UEAAPEAXI@Z 00000001801b5338 f i LIBCMT:std_type_info_static.obj
 0001:001b4338       ??_Gtype_info@@UEAAPEAXI@Z 00000001801b5338 f i LIBCMT:std_type_info_static.obj
 0001:001b4364       ?__scrt_initialize_type_info@@YAXXZ 00000001801b5364 f   LIBCMT:tncleanup.obj
 0001:001b4374       ?__scrt_uninitialize_type_info@@YAXXZ 00000001801b5374 f   LIBCMT:tncleanup.obj
 0001:001b4390       __chkstk                   00000001801b5390 f   LIBCMT:chkstk.obj
 0001:001b4390       _alloca_probe              00000001801b5390 f   LIBCMT:chkstk.obj
 0001:001b43e0       __vdecl_sinf4              00000001801b53e0 f   LIBCMT:svml_ssinf4_dispatch.obj
 0001:001b4400       __libm_sse2_sincosf_       00000001801b5400 f   LIBCMT:svml_ssinf4_dispatch.obj
 0001:001b4443       __libm_sse2_sincosf4_      00000001801b5443 f   LIBCMT:svml_ssinf4_dispatch.obj
 0001:001b4450       ??3@YAXPEAX@Z              00000001801b5450 f   LIBCMT:delete_scalar.obj
 0001:001b4458       __scrt_acquire_startup_lock 00000001801b5458 f   LIBCMT:utility.obj
 0001:001b4494       __scrt_dllmain_after_initialize_c 00000001801b5494 f   LIBCMT:utility.obj
 0001:001b44c8       __scrt_dllmain_before_initialize_c 00000001801b54c8 f   LIBCMT:utility.obj
 0001:001b44e0       __scrt_dllmain_crt_thread_attach 00000001801b54e0 f   LIBCMT:utility.obj
 0001:001b4508       __scrt_dllmain_crt_thread_detach 00000001801b5508 f   LIBCMT:utility.obj
 0001:001b4520       __scrt_dllmain_exception_filter 00000001801b5520 f   LIBCMT:utility.obj
 0001:001b4580       __scrt_dllmain_uninitialize_c 00000001801b5580 f   LIBCMT:utility.obj
 0001:001b45b0       __scrt_dllmain_uninitialize_critical 00000001801b55b0 f   LIBCMT:utility.obj
 0001:001b45c4       __scrt_initialize_crt      00000001801b55c4 f   LIBCMT:utility.obj
 0001:001b4610       __scrt_initialize_onexit_tables 00000001801b5610 f   LIBCMT:utility.obj
 0001:001b469c       __scrt_is_nonwritable_in_current_image 00000001801b569c f   LIBCMT:utility.obj
 0001:001b4734       __scrt_release_startup_lock 00000001801b5734 f   LIBCMT:utility.obj
 0001:001b4758       __scrt_uninitialize_crt    00000001801b5758 f   LIBCMT:utility.obj
 0001:001b4784       _onexit                    00000001801b5784 f   LIBCMT:utility.obj
 0001:001b47c0       atexit                     00000001801b57c0 f   LIBCMT:utility.obj
 0001:001b47d8       __isa_available_init       00000001801b57d8 f   LIBCMT:cpu_disp.obj
 0001:001b4ca4       _DllMainCRTStartup         00000001801b5ca4 f   LIBCMT:dll_dllmain.obj
 0001:001b4cf0       __sse2_sinf4@@16           00000001801b5cf0 f   LIBCMT:svml_ssinf4_sse2.obj
 0001:001b5630       __sse4_sinf4@@16           00000001801b6630 f   LIBCMT:svml_ssinf4_sse4.obj
 0001:001b5da4       __scrt_is_ucrt_dll_in_use  00000001801b6da4 f   LIBCMT:ucrt_detection.obj
 0001:001b5db0       __crt_debugger_hook        00000001801b6db0 f   LIBCMT:utility_desktop.obj
 0001:001b5db8       __scrt_fastfail            00000001801b6db8 f   LIBCMT:utility_desktop.obj
 0001:001b5f04       __security_init_cookie     00000001801b6f04 f   LIBCMT:gs_support.obj
 0001:001b5fb0       __local_stdio_scanf_options 00000001801b6fb0 f i LIBCMT:default_local_stdio_options.obj
 0001:001b5fb8       __scrt_initialize_default_local_stdio_options 00000001801b6fb8 f   LIBCMT:default_local_stdio_options.obj
 0001:001b5fd4       __scrt_get_dyn_tls_init_callback 00000001801b6fd4 f   LIBCMT:dyn_tls_init.obj
 0001:001b5fdc       _RTC_Initialize            00000001801b6fdc f   LIBCMT:initsect.obj
 0001:001b6018       _RTC_Terminate             00000001801b7018 f   LIBCMT:initsect.obj
 0001:001b6060       __common_ssin_cout_rare    00000001801b7060 f   LIBCMT:svml_s_sin_cout.obj
 0001:001b60e0       memcpy_repmovs             00000001801b70e0 f   libvcruntime:memcpy.obj
 0001:001b6100       memcpy                     00000001801b7100 f   libvcruntime:memcpy.obj
 0001:001b6100       memmove                    00000001801b7100 f   libvcruntime:memcpy.obj
 0001:001b6778       _get_purecall_handler      00000001801b7778 f   libvcruntime:purevirt.obj
 0001:001b6784       _purecall                  00000001801b7784 f   libvcruntime:purevirt.obj
 0001:001b67a8       __std_type_info_compare    00000001801b77a8 f   libvcruntime:std_type_info.obj
 0001:001b67d0       __std_type_info_destroy_list 00000001801b77d0 f   libvcruntime:std_type_info.obj
 0001:001b67fc       __std_type_info_name       00000001801b77fc f   libvcruntime:std_type_info.obj
 0001:001b6930       memset_repstos             00000001801b7930 f   libvcruntime:memset.obj
 0001:001b6950       memset                     00000001801b7950 f   libvcruntime:memset.obj
 0001:001b6cd8       strstr                     00000001801b7cd8 f   libvcruntime:strstr.obj
 0001:001b6ed0       __vcrt_initialize          00000001801b7ed0 f   libvcruntime:initialization.obj
 0001:001b6ef8       __vcrt_thread_attach       00000001801b7ef8 f   libvcruntime:initialization.obj
 0001:001b6f0c       __vcrt_thread_detach       00000001801b7f0c f   libvcruntime:initialization.obj
 0001:001b6f20       __vcrt_uninitialize        00000001801b7f20 f   libvcruntime:initialization.obj
 0001:001b6f3c       __vcrt_uninitialize_critical 00000001801b7f3c f   libvcruntime:initialization.obj
 0001:001b6f4c       __C_specific_handler       00000001801b7f4c f   libvcruntime:riscchandler.obj
 0001:001b7144       __DestructExceptionObject  00000001801b8144 f   libvcruntime:ehhelpers.obj
 0001:001b71b4       ?_CallMemberFunction0@@YAXQEAX0@Z 00000001801b81b4 f i libvcruntime:ehhelpers.obj
 0001:001b71b8       _IsExceptionObjectToBeDestroyed 00000001801b81b8 f   libvcruntime:ehhelpers.obj
 0001:001b71e8       __AdjustPointer            00000001801b81e8 f   libvcruntime:ehhelpers.obj
 0001:001b720c       __FrameUnwindFilter        00000001801b820c f   libvcruntime:ehhelpers.obj
 0001:001b7274       __std_terminate            00000001801b8274 f   libvcruntime:ehhelpers.obj
 0001:001b7280       ??$?0$00@DName@@QEAA@PEBDU?$StringLifeSelector@$00@@@Z 00000001801b8280 f i libvcruntime:undname.obj
 0001:001b72c0       ??$?0$01@DName@@QEAA@PEBDU?$StringLifeSelector@$01@@@Z 00000001801b82c0 f i libvcruntime:undname.obj
 0001:001b72c0       ??$?0$0A@@DName@@QEAA@PEBDU?$StringLifeSelector@$0A@@@@Z 00000001801b82c0 f i libvcruntime:undname.obj
 0001:001b7300       ??$?0$01@pcharNode@@QEAA@PEBDHU?$StringLifeSelector@$01@@@Z 00000001801b8300 f i libvcruntime:undname.obj
 0001:001b7300       ??$?0$0A@@pcharNode@@QEAA@PEBDHU?$StringLifeSelector@$0A@@@@Z 00000001801b8300 f i libvcruntime:undname.obj
 0001:001b7374       ??$append@VDNameNode@@@DName@@AEAAXPEBVDNameNode@@@Z 00000001801b8374 f i libvcruntime:undname.obj
 0001:001b7374       ??$append@VDNameStatusNode@@@DName@@AEAAXPEBVDNameStatusNode@@@Z 00000001801b8374 f i libvcruntime:undname.obj
 0001:001b7374       ??$append@VcharNode@@@DName@@AEAAXPEBVcharNode@@@Z 00000001801b8374 f i libvcruntime:undname.obj
 0001:001b7374       ??$append@VpcharNode@@@DName@@AEAAXPEBVpcharNode@@@Z 00000001801b8374 f i libvcruntime:undname.obj
 0001:001b73d8       ??$doPchar@$00@DName@@AEAAXPEBDH@Z 00000001801b83d8 f i libvcruntime:undname.obj
 0001:001b747c       ??$doPchar@$01@DName@@AEAAXPEBDH@Z 00000001801b847c f i libvcruntime:undname.obj
 0001:001b747c       ??$doPchar@$0A@@DName@@AEAAXPEBDH@Z 00000001801b847c f i libvcruntime:undname.obj
 0001:001b7514       ??0DName@@QEAA@AEAPEBDD@Z  00000001801b8514 f   libvcruntime:undname.obj
 0001:001b75c4       ??0DName@@QEAA@AEBUStringLiteral@@@Z 00000001801b85c4 f   libvcruntime:undname.obj
 0001:001b75f0       ??0DName@@QEAA@PEAV0@@Z    00000001801b85f0 f   libvcruntime:undname.obj
 0001:001b7674       ??0DName@@QEAA@_J@Z        00000001801b8674 f   libvcruntime:undname.obj
 0001:001b771c       ??0DName@@QEAA@_K@Z        00000001801b871c f   libvcruntime:undname.obj
 0001:001b77ac       ??2@YAPEAX_KAEAV_HeapManager@@H@Z 00000001801b87ac f   libvcruntime:undname.obj
 0001:001b77d8       ??4DName@@QEAAAEAV0@W4DNameStatus@@@Z 00000001801b87d8 f   libvcruntime:undname.obj
 0001:001b7808       ??AReplicator@@QEBA?AVDName@@H@Z 00000001801b8808 f   libvcruntime:undname.obj
 0001:001b7848       ??HDName@@QEBA?AV0@AEBUStringLiteral@@@Z 00000001801b8848 f   libvcruntime:undname.obj
 0001:001b7874       ??HDName@@QEBA?AV0@AEBV0@@Z 00000001801b8874 f   libvcruntime:undname.obj
 0001:001b78a0       ??HDName@@QEBA?AV0@D@Z     00000001801b88a0 f   libvcruntime:undname.obj
 0001:001b78cc       ??HDName@@QEBA?AV0@W4DNameStatus@@@Z 00000001801b88cc f   libvcruntime:undname.obj
 0001:001b78f8       ??YDName@@QEAAAEAV0@AEBUStringLiteral@@@Z 00000001801b88f8 f   libvcruntime:undname.obj
 0001:001b7978       ??YDName@@QEAAAEAV0@AEBV0@@Z 00000001801b8978 f   libvcruntime:undname.obj
 0001:001b79d0       ??YDName@@QEAAAEAV0@D@Z    00000001801b89d0 f   libvcruntime:undname.obj
 0001:001b7a3c       ??YDName@@QEAAAEAV0@W4DNameStatus@@@Z 00000001801b8a3c f   libvcruntime:undname.obj
 0001:001b7a94       ??YReplicator@@QEAAAEAV0@AEBVDName@@@Z 00000001801b8a94 f   libvcruntime:undname.obj
 0001:001b7aec       ?UScore@UnDecorator@@SA?AUStringLiteral@@W4Tokens@@@Z 00000001801b8aec f   libvcruntime:undname.obj
 0001:001b7b38       ?composeDeclaration@UnDecorator@@CA?AVDName@@AEBV2@@Z 00000001801b8b38 f i libvcruntime:undname.obj
 0001:001b8a2c       ?doPchar@DName@@AEAAXD@Z   00000001801b9a2c f   libvcruntime:undname.obj
 0001:001b8a7c       ?getAddressOf@UnDecorator@@CA?AVDName@@XZ 00000001801b9a7c f   libvcruntime:undname.obj
 0001:001b8b0c       ?getArgumentList@UnDecorator@@CA?AVDName@@XZ 00000001801b9b0c f   libvcruntime:undname.obj
 0001:001b8cc0       ?getArgumentTypes@UnDecorator@@CA?AVDName@@XZ 00000001801b9cc0 f   libvcruntime:undname.obj
 0001:001b8e0c       ?getArrayAccess@UnDecorator@@CA?AVDName@@XZ 00000001801b9e0c f   libvcruntime:undname.obj
 0001:001b8ea8       ?getArrayObject@UnDecorator@@CA?AVDName@@XZ 00000001801b9ea8 f   libvcruntime:undname.obj
 0001:001b8f64       ?getArrayType@UnDecorator@@CA?AVDName@@AEBV2@@Z 00000001801b9f64 f i libvcruntime:undname.obj
 0001:001b91ac       ?getBasedType@UnDecorator@@CA?AVDName@@XZ 00000001801ba1ac f   libvcruntime:undname.obj
 0001:001b92a4       ?getBasicDataType@UnDecorator@@CA?AVDName@@AEBV2@@Z 00000001801ba2a4 f   libvcruntime:undname.obj
 0001:001b98a8       ?getCallingConvention@UnDecorator@@CA?AVDName@@XZ 00000001801ba8a8 f   libvcruntime:undname.obj
 0001:001b99e0       ?getDataIndirectType@UnDecorator@@CA?AVDName@@AEBV2@W4IndirectionKind@@0H@Z 00000001801ba9e0 f   libvcruntime:undname.obj
 0001:001ba304       ?getDataType@UnDecorator@@CA?AVDName@@PEAV2@@Z 00000001801bb304 f   libvcruntime:undname.obj
 0001:001ba418       ?getDecoratedName@UnDecorator@@CA?AVDName@@XZ 00000001801bb418 f   libvcruntime:undname.obj
 0001:001ba700       ?getDimension@UnDecorator@@CA?AVDName@@_N@Z 00000001801bb700 f   libvcruntime:undname.obj
 0001:001ba848       ?getDispatchTarget@UnDecorator@@CA?AVDName@@XZ 00000001801bb848 f   libvcruntime:undname.obj
 0001:001ba8a8       ?getECSUDataType@UnDecorator@@CA?AVDName@@XZ 00000001801bb8a8 f   libvcruntime:undname.obj
 0001:001baaa4       ?getEnumType@UnDecorator@@CA?AVDName@@XZ 00000001801bbaa4 f i libvcruntime:undname.obj
 0001:001babd4       ?getExtendedDataIndirectType@UnDecorator@@CA?AVDName@@AEAW4IndirectionKind@@AEA_NH@Z 00000001801bbbd4 f   libvcruntime:undname.obj
 0001:001badd8       ?getExternalDataType@UnDecorator@@CA?AVDName@@AEBV2@@Z 00000001801bbdd8 f i libvcruntime:undname.obj
 0001:001bae98       ?getFloatingPoint@UnDecorator@@CA?AVDName@@H@Z 00000001801bbe98 f   libvcruntime:undname.obj
 0001:001bb000       ?getFunctionIndirectType@UnDecorator@@CA?AVDName@@AEBV2@@Z 00000001801bc000 f   libvcruntime:undname.obj
 0001:001bb534       ?getLastChar@DNameStatusNode@@UEBADXZ 00000001801bc534 f i libvcruntime:undname.obj
 0001:001bb540       ?getLastChar@charNode@@UEBADXZ 00000001801bc540 f i libvcruntime:undname.obj
 0001:001bb544       ?getLastChar@pDNameNode@@UEBADXZ 00000001801bc544 f i libvcruntime:undname.obj
 0001:001bb570       ?getLastChar@pairNode@@UEBADXZ 00000001801bc570 f i libvcruntime:undname.obj
 0001:001bb5a8       ?getLastChar@pcharNode@@UEBADXZ 00000001801bc5a8 f i libvcruntime:undname.obj
 0001:001bb5bc       ?getLexicalFrame@UnDecorator@@CA?AVDName@@XZ 00000001801bc5bc f i libvcruntime:undname.obj
 0001:001bb620       ?getMemberAccess@UnDecorator@@CA?AVDName@@XZ 00000001801bc620 f   libvcruntime:undname.obj
 0001:001bb6b4       ?getMemoryWithBuffer@_HeapManager@@QEAAPEAX_K@Z 00000001801bc6b4 f   libvcruntime:undname.obj
 0001:001bb744       ?getNoexcept@UnDecorator@@CA?AVDName@@XZ 00000001801bc744 f   libvcruntime:undname.obj
 0001:001bb7a8       ?getNumberOfDimensions@UnDecorator@@CAHXZ 00000001801bc7a8 f   libvcruntime:undname.obj
 0001:001bb810       ?getOperatorName@UnDecorator@@CA?AVDName@@_NPEA_N@Z 00000001801bc810 f i libvcruntime:undname.obj
 0001:001bc1c0       ?getPointerToMember@UnDecorator@@CA?AVDName@@XZ 00000001801bd1c0 f   libvcruntime:undname.obj
 0001:001bc2b8       ?getPrimaryDataType@UnDecorator@@CA?AVDName@@AEBV2@@Z 00000001801bd2b8 f   libvcruntime:undname.obj
 0001:001bc570       ?getPtrRefDataType@UnDecorator@@CA?AVDName@@AEBV2@H@Z 00000001801bd570 f   libvcruntime:undname.obj
 0001:001bc73c       ?getPtrRefType@UnDecorator@@CA?AVDName@@AEBV2@0W4IndirectionKind@@@Z 00000001801bd73c f   libvcruntime:undname.obj
 0001:001bc914       ?getRestrictionSpec@UnDecorator@@CA?AVDName@@XZ 00000001801bd914 f   libvcruntime:undname.obj
 0001:001bcaf0       ?getReturnType@UnDecorator@@CA?AVDName@@PEAV2@@Z 00000001801bdaf0 f   libvcruntime:undname.obj
 0001:001bcb24       ?getScope@UnDecorator@@CA?AVDName@@XZ 00000001801bdb24 f   libvcruntime:undname.obj
 0001:001bcfe0       ?getScopedName@UnDecorator@@CA?AVDName@@XZ 00000001801bdfe0 f   libvcruntime:undname.obj
 0001:001bd120       ?getSignedDimension@UnDecorator@@CA?AVDName@@XZ 00000001801be120 f   libvcruntime:undname.obj
 0001:001bd1a8       ?getString@DNameStatusNode@@UEBAPEADPEAD0@Z 00000001801be1a8 f i libvcruntime:undname.obj
 0001:001bd1f0       ?getString@charNode@@UEBAPEADPEAD0@Z 00000001801be1f0 f i libvcruntime:undname.obj
 0001:001bd204       ?getString@pDNameNode@@UEBAPEADPEAD0@Z 00000001801be204 f i libvcruntime:undname.obj
 0001:001bd234       ?getString@pairNode@@UEBAPEADPEAD0@Z 00000001801be234 f i libvcruntime:undname.obj
 0001:001bd280       ?getString@pcharNode@@UEBAPEADPEAD0@Z 00000001801be280 f i libvcruntime:undname.obj
 0001:001bd2b8       ?getStringEncoding@UnDecorator@@CA?AVDName@@W4PrefixKind@@H@Z 00000001801be2b8 f   libvcruntime:undname.obj
 0001:001bd3c8       ?getStringObject@UnDecorator@@CA?AVDName@@XZ 00000001801be3c8 f   libvcruntime:undname.obj
 0001:001bd430       ?getSymbolName@UnDecorator@@CA?AVDName@@XZ 00000001801be430 f i libvcruntime:undname.obj
 0001:001bd47c       ?getTemplateArgumentList@UnDecorator@@CA?AVDName@@XZ 00000001801be47c f   libvcruntime:undname.obj
 0001:001bd698       ?getTemplateName@UnDecorator@@CA?AVDName@@_N@Z 00000001801be698 f   libvcruntime:undname.obj
 0001:001bd92c       ?getTemplateNonTypeArgument@UnDecorator@@CA?AVDName@@XZ 00000001801be92c f   libvcruntime:undname.obj
 0001:001bde7c       ?getTemplateTypeArgument@UnDecorator@@CA?AVDName@@XZ 00000001801bee7c f   libvcruntime:undname.obj
 0001:001bdfe4       ?getThrowTypes@UnDecorator@@CA?AVDName@@XZ 00000001801befe4 f   libvcruntime:undname.obj
 0001:001be008       ?getTypeEncoding@UnDecorator@@CAHXZ 00000001801bf008 f i libvcruntime:undname.obj
 0001:001be3c4       ?getUndecoratedName@UnDecorator@@QEAAPEADPEADH@Z 00000001801bf3c4 f i libvcruntime:undname.obj
 0001:001be518       ?getUnionObject@UnDecorator@@CA?AVDName@@XZ 00000001801bf518 f   libvcruntime:undname.obj
 0001:001be5f0       ?getVCallThunkType@UnDecorator@@CA?AVDName@@XZ 00000001801bf5f0 f i libvcruntime:undname.obj
 0001:001be668       ?getValue@UnDecorator@@CA?AV?$optional@_K@std@@XZ 00000001801bf668 f   libvcruntime:undname.obj
 0001:001be6dc       ?getValueObject@UnDecorator@@CA?AVDName@@XZ 00000001801bf6dc f   libvcruntime:undname.obj
 0001:001be81c       ?getVdispMapType@UnDecorator@@CA?AVDName@@AEBV2@@Z 00000001801bf81c f i libvcruntime:undname.obj
 0001:001be898       ?getVfTableType@UnDecorator@@CA?AVDName@@AEBV2@@Z 00000001801bf898 f i libvcruntime:undname.obj
 0001:001beaa4       ?getZName@UnDecorator@@CA?AVDName@@_N0@Z 00000001801bfaa4 f   libvcruntime:undname.obj
 0001:001bed78       ?length@pDNameNode@@UEBAHXZ 00000001801bfd78 f i libvcruntime:undname.obj
 0001:001beda0       ?length@pairNode@@UEBAHXZ  00000001801bfda0 f i libvcruntime:undname.obj
 0001:001bede8       ?parseDecoratedName@UnDecorator@@CA?AVDName@@XZ 00000001801bfde8 f   libvcruntime:undname.obj
 0001:001bef00       ?raw_length@pDNameNode@@UEBAHXZ 00000001801bff00 f i libvcruntime:undname.obj
 0001:001bef04       ?raw_length@pairNode@@UEBAHXZ 00000001801bff04 f i libvcruntime:undname.obj
 0001:001bef08       __unDName                  00000001801bff08 f   libvcruntime:undname.obj
 0001:001bef30       __unDNameEx                00000001801bff30 f   libvcruntime:undname.obj
 0001:001bf064       snprintf                   00000001801c0064 f i libvcruntime:undname.obj
 0001:001bf0bc       sprintf_s                  00000001801c00bc f i libvcruntime:undname.obj
 0001:001bf110       __vcrt_freefls             00000001801c0110 f   libvcruntime:per_thread_data.obj
 0001:001bf130       __vcrt_freeptd             00000001801c0130 f   libvcruntime:per_thread_data.obj
 0001:001bf180       __vcrt_getptd              00000001801c0180 f   libvcruntime:per_thread_data.obj
 0001:001bf19c       __vcrt_getptd_noexit       00000001801c019c f   libvcruntime:per_thread_data.obj
 0001:001bf25c       __vcrt_initialize_ptd      00000001801c025c f   libvcruntime:per_thread_data.obj
 0001:001bf2a4       __vcrt_uninitialize_ptd    00000001801c02a4 f   libvcruntime:per_thread_data.obj
 0001:001bf2c8       __vcrt_initialize_locks    00000001801c02c8 f   libvcruntime:locks.obj
 0001:001bf310       __vcrt_lock                00000001801c0310 f   libvcruntime:locks.obj
 0001:001bf32c       __vcrt_uninitialize_locks  00000001801c032c f   libvcruntime:locks.obj
 0001:001bf364       __vcrt_unlock              00000001801c0364 f   libvcruntime:locks.obj
 0001:001bf390       _NLG_Notify                00000001801c0390 f   libvcruntime:notify.obj
 0001:001bf3b0       __NLG_Dispatch2            00000001801c03b0 f   libvcruntime:notify.obj
 0001:001bf3c0       __NLG_Return2              00000001801c03c0 f   libvcruntime:notify.obj
 0001:001bf3c4       __except_validate_context_record 00000001801c03c4 f   libvcruntime:jbcxrval.obj
 0001:001bf3fc       ??$_CallSETranslator@V__FrameHandler3@@@@YAHPEAUEHExceptionRecord@@PEA_KPEAU_CONTEXT@@PEAU_xDISPATCHER_CONTEXT@@PEBU_s_FuncInfo@@K1H@Z 00000001801c03fc f i libvcruntime:risctrnsctrl.obj
 0001:001bf450       ??$_CallSETranslator@V__FrameHandler4@@@@YAHPEAUEHExceptionRecord@@PEA_KPEAU_CONTEXT@@PEAU_xDISPATCHER_CONTEXT@@PEAUFuncInfo4@FH4@@K1H@Z 00000001801c0450 f i libvcruntime:risctrnsctrl.obj
 0001:001bf4a4       ?CatchTryBlock@__FrameHandler3@@SAPEBU_s_TryBlockMapEntry@@PEBU_s_FuncInfo@@H@Z 00000001801c04a4 f   libvcruntime:risctrnsctrl.obj
 0001:001bf508       ?DecompFuncInfo@FH4@@YA_JPEAEAEAUFuncInfo4@1@_KH_N@Z 00000001801c0508 f i libvcruntime:risctrnsctrl.obj
 0001:001bf62c       ?ExecutionInCatch@__FrameHandler3@@SA_NPEAU_xDISPATCHER_CONTEXT@@PEBU_s_FuncInfo@@@Z 00000001801c062c f   libvcruntime:risctrnsctrl.obj
 0001:001bf658       ?ExecutionInCatch@__FrameHandler4@@SA_NPEAU_xDISPATCHER_CONTEXT@@PEAUFuncInfo4@FH4@@@Z 00000001801c0658 f   libvcruntime:risctrnsctrl.obj
 0001:001bf660       ?FrameUnwindToEmptyState@__FrameHandler3@@SAXPEA_KPEAU_xDISPATCHER_CONTEXT@@PEBU_s_FuncInfo@@@Z 00000001801c0660 f   libvcruntime:risctrnsctrl.obj
 0001:001bf6c4       ?FrameUnwindToEmptyState@__FrameHandler4@@SAXPEA_KPEAU_xDISPATCHER_CONTEXT@@PEAUFuncInfo4@FH4@@@Z 00000001801c06c4 f   libvcruntime:risctrnsctrl.obj
 0001:001bf6f8       ?GetEstablisherFrame@__FrameHandler3@@SAPEA_KPEA_KPEAU_xDISPATCHER_CONTEXT@@PEBU_s_FuncInfo@@0@Z 00000001801c06f8 f   libvcruntime:risctrnsctrl.obj
 0001:001bf7c4       ?GetEstablisherFrame@__FrameHandler4@@SAPEA_KPEA_KPEAU_xDISPATCHER_CONTEXT@@PEAUFuncInfo4@FH4@@0@Z 00000001801c07c4 f   libvcruntime:risctrnsctrl.obj
 0001:001bf7e8       ?GetRangeOfTrysToCheck@__FrameHandler3@@SA?AU?$pair@Viterator@TryBlockMap@__FrameHandler3@@V123@@std@@AEAVTryBlockMap@1@HPEAU_xDISPATCHER_CONTEXT@@PEBU_s_FuncInfo@@H@Z 00000001801c07e8 f   libvcruntime:risctrnsctrl.obj
 0001:001bf928       ?GetRangeOfTrysToCheck@__FrameHandler4@@SA?AU?$pair@Viterator@TryBlockMap4@FH4@@V123@@std@@AEAVTryBlockMap4@FH4@@HPEAU_xDISPATCHER_CONTEXT@@PEAUFuncInfo4@5@H@Z 00000001801c0928 f   libvcruntime:risctrnsctrl.obj
 0001:001bfa94       ?UnwindNestedFrames@__FrameHandler3@@SAXPEA_KPEAUEHExceptionRecord@@PEAU_CONTEXT@@0PEAXPEBU_s_FuncInfo@@HHPEBU_s_HandlerType@@PEAU_xDISPATCHER_CONTEXT@@E@Z 00000001801c0a94 f   libvcruntime:risctrnsctrl.obj
 0001:001bfb98       ?UnwindNestedFrames@__FrameHandler4@@SAXPEA_KPEAUEHExceptionRecord@@PEAU_CONTEXT@@0PEAXPEAUFuncInfo4@FH4@@HHPEAUHandlerType4@5@PEAU_xDISPATCHER_CONTEXT@@E@Z 00000001801c0b98 f   libvcruntime:risctrnsctrl.obj
 0001:001bfcb8       ?setBuffer@TryBlockMap4@FH4@@QEAAXViterator@12@@Z 00000001801c0cb8 f i libvcruntime:risctrnsctrl.obj
 0001:001bfe7c       _CreateFrameInfo           00000001801c0e7c f   libvcruntime:risctrnsctrl.obj
 0001:001bfeb8       _FindAndUnlinkFrame        00000001801c0eb8 f   libvcruntime:risctrnsctrl.obj
 0001:001bff0c       _GetImageBase              00000001801c0f0c f   libvcruntime:risctrnsctrl.obj
 0001:001bff20       _GetThrowImageBase         00000001801c0f20 f   libvcruntime:risctrnsctrl.obj
 0001:001bff34       _SetImageBase              00000001801c0f34 f   libvcruntime:risctrnsctrl.obj
 0001:001bff4c       _SetThrowImageBase         00000001801c0f4c f   libvcruntime:risctrnsctrl.obj
 0001:001bff64       __CxxFrameHandler3         00000001801c0f64 f   libvcruntime:risctrnsctrl.obj
 0001:001bffec       __CxxFrameHandler4         00000001801c0fec f   libvcruntime:risctrnsctrl.obj
 0001:001c01fc       __vcrt_FlsAlloc            00000001801c11fc f   libvcruntime:winapi_downlevel.obj
 0001:001c0244       __vcrt_FlsFree             00000001801c1244 f   libvcruntime:winapi_downlevel.obj
 0001:001c028c       __vcrt_FlsGetValue         00000001801c128c f   libvcruntime:winapi_downlevel.obj
 0001:001c02d4       __vcrt_FlsSetValue         00000001801c12d4 f   libvcruntime:winapi_downlevel.obj
 0001:001c0328       __vcrt_InitializeCriticalSectionEx 00000001801c1328 f   libvcruntime:winapi_downlevel.obj
 0001:001c038c       ?GetCurrentState@__FrameHandler3@@SAHPEA_KPEAU_xDISPATCHER_CONTEXT@@PEBU_s_FuncInfo@@@Z 00000001801c138c f   libvcruntime:ehstate.obj
 0001:001c03b4       ?GetUnwindTryBlock@__FrameHandler3@@SAHPEA_KPEAU_xDISPATCHER_CONTEXT@@PEBU_s_FuncInfo@@@Z 00000001801c13b4 f   libvcruntime:ehstate.obj
 0001:001c03e0       ?SetState@__FrameHandler3@@SAXPEA_KPEBU_s_FuncInfo@@H@Z 00000001801c13e0 f   libvcruntime:ehstate.obj
 0001:001c03ec       ?SetUnwindTryBlock@__FrameHandler3@@SAXPEA_KPEAU_xDISPATCHER_CONTEXT@@PEBU_s_FuncInfo@@H@Z 00000001801c13ec f   libvcruntime:ehstate.obj
 0001:001c0428       ?StateFromControlPc@__FrameHandler3@@SAHPEBU_s_FuncInfo@@PEAU_xDISPATCHER_CONTEXT@@@Z 00000001801c1428 f   libvcruntime:ehstate.obj
 0001:001c0430       ?StateFromControlPc@__FrameHandler4@@SAHPEAUFuncInfo4@FH4@@PEAU_xDISPATCHER_CONTEXT@@@Z 00000001801c1430 f   libvcruntime:ehstate.obj
 0001:001c0438       ?StateFromIp@__FrameHandler3@@SAHPEBU_s_FuncInfo@@PEAU_xDISPATCHER_CONTEXT@@_K@Z 00000001801c1438 f   libvcruntime:ehstate.obj
 0001:001c04a0       ?StateFromIp@__FrameHandler4@@SAHPEAUFuncInfo4@FH4@@PEAU_xDISPATCHER_CONTEXT@@_K@Z 00000001801c14a0 f   libvcruntime:ehstate.obj
 0001:001c1ba0       ??$TypeMatchHelper@V__FrameHandler3@@@@YAHPEBU_s_HandlerType@@PEBU_s_CatchableType@@PEBU_s_ThrowInfo@@@Z 00000001801c2ba0 f i libvcruntime:frame.obj
 0001:001c1ce0       ??$TypeMatchHelper@V__FrameHandler4@@@@YAHPEAUHandlerType4@FH4@@PEBU_s_CatchableType@@PEBU_s_ThrowInfo@@@Z 00000001801c2ce0 f i libvcruntime:frame.obj
 0001:001c1e24       ??$__InternalCxxFrameHandler@V__FrameHandler3@@@@YA?AW4_EXCEPTION_DISPOSITION@@PEAUEHExceptionRecord@@PEA_KPEAU_CONTEXT@@PEAU_xDISPATCHER_CONTEXT@@PEBU_s_FuncInfo@@H1E@Z 00000001801c2e24 f i libvcruntime:frame.obj
 0001:001c205c       ??$__InternalCxxFrameHandler@V__FrameHandler4@@@@YA?AW4_EXCEPTION_DISPOSITION@@PEAUEHExceptionRecord@@PEA_KPEAU_CONTEXT@@PEAU_xDISPATCHER_CONTEXT@@PEAUFuncInfo4@FH4@@H1E@Z 00000001801c305c f i libvcruntime:frame.obj
 0001:001c22f0       ??$__InternalCxxFrameHandlerWrapper@V__FrameHandler3@@@@YA?AW4_EXCEPTION_DISPOSITION@@PEAUEHExceptionRecord@@PEA_KPEAU_CONTEXT@@PEAU_xDISPATCHER_CONTEXT@@PEBU_s_FuncInfo@@H1E@Z 00000001801c32f0 f i libvcruntime:frame.obj
 0001:001c22f8       ??$__InternalCxxFrameHandlerWrapper@V__FrameHandler4@@@@YA?AW4_EXCEPTION_DISPOSITION@@PEAUEHExceptionRecord@@PEA_KPEAU_CONTEXT@@PEAU_xDISPATCHER_CONTEXT@@PEAUFuncInfo4@FH4@@H1E@Z 00000001801c32f8 f i libvcruntime:frame.obj
 0001:001c2354       ??0HandlerMap4@FH4@@QEAA@PEBUTryBlockMapEntry4@1@_KH@Z 00000001801c3354 f i libvcruntime:frame.obj
 0001:001c23d0       ??0TryBlockMap4@FH4@@QEAA@PEBUFuncInfo4@1@_K@Z 00000001801c33d0 f i libvcruntime:frame.obj
 0001:001c24a8       ??0bad_exception@std@@QEAA@AEBV01@@Z 00000001801c34a8 f i libvcruntime:frame.obj
 0001:001c24e4       ??0bad_exception@std@@QEAA@XZ 00000001801c34e4 f i libvcruntime:frame.obj
 0001:001c2504       ??0exception@std@@QEAA@AEBV01@@Z 00000001801c3504 f i libvcruntime:frame.obj
 0001:001c2538       ??1bad_exception@std@@UEAA@XZ 00000001801c3538 f i libvcruntime:frame.obj
 0001:001c254c       ??_Ebad_exception@std@@UEAAPEAXI@Z 00000001801c354c f i libvcruntime:frame.obj
 0001:001c254c       ??_Eexception@std@@UEAAPEAXI@Z 00000001801c354c f i libvcruntime:frame.obj
 0001:001c254c       ??_Gbad_exception@std@@UEAAPEAXI@Z 00000001801c354c f i libvcruntime:frame.obj
 0001:001c254c       ??_Gexception@std@@UEAAPEAXI@Z 00000001801c354c f i libvcruntime:frame.obj
 0001:001c2590       ?CxxCallCatchBlock@__FrameHandler3@@SAPEAXPEAU_EXCEPTION_RECORD@@@Z 00000001801c3590 f   libvcruntime:frame.obj
 0001:001c277c       ?CxxCallCatchBlock@__FrameHandler4@@SAPEAXPEAU_EXCEPTION_RECORD@@@Z 00000001801c377c f   libvcruntime:frame.obj
 0001:001c29cc       ?DecompHandler@HandlerMap4@FH4@@AEAAXXZ 00000001801c39cc f i libvcruntime:frame.obj
 0001:001c2c18       ?FrameUnwindToState@__FrameHandler3@@SAXPEA_KPEAU_xDISPATCHER_CONTEXT@@PEBU_s_FuncInfo@@H@Z 00000001801c3c18 f   libvcruntime:frame.obj
 0001:001c2da4       ?FrameUnwindToState@__FrameHandler4@@SAXPEA_KPEAU_xDISPATCHER_CONTEXT@@PEAUFuncInfo4@FH4@@H@Z 00000001801c3da4 f   libvcruntime:frame.obj
 0001:001c30a0       ?GetHandlerSearchState@__FrameHandler3@@SAHPEA_KPEAU_xDISPATCHER_CONTEXT@@PEBU_s_FuncInfo@@@Z 00000001801c40a0 f i libvcruntime:frame.obj
 0001:001c32b0       ?ReadEntry@UWMap4@FH4@@AEAAXPEAPEAE@Z 00000001801c42b0 f i libvcruntime:frame.obj
 0001:001c334c       ?_CallMemberFunction1@@YAXQEAX00@Z 00000001801c434c f i libvcruntime:frame.obj
 0001:001c3358       ?_CallMemberFunction2@@YAXQEAX00H@Z 00000001801c4358 f i libvcruntime:frame.obj
 0001:001c3368       ?getStartStop@UWMap4@FH4@@QEAAXHHAEAViterator@12@0@Z 00000001801c4368 f i libvcruntime:frame.obj
 0001:001c3438       ?getStateFromIterators@UWMap4@FH4@@SAHAEBViterator@12@H0H0@Z 00000001801c4438 f i libvcruntime:frame.obj
 0001:001c34e8       ?what@exception@std@@UEBAPEBDXZ 00000001801c44e8 f i libvcruntime:frame.obj
 0001:001c3510       _CallSettingFrame          00000001801c4510 f   libvcruntime:handlers.obj
 0001:001c3560       _CallSettingFrame_LookupContinuationIndex 00000001801c4560 f   libvcruntime:handlers.obj
 0001:001c3590       _CallSettingFrame_NotifyContinuationAddr 00000001801c4590 f   libvcruntime:handlers.obj
 0001:001c35c0       _CallSettingFrameEncoded   00000001801c45c0 f   libvcruntime:handlers.obj
 0001:001c3608       __std_exception_copy       00000001801c4608 f   libvcruntime:std_exception.obj
 0001:001c3698       __std_exception_destroy    00000001801c4698 f   libvcruntime:std_exception.obj
 0001:001c36c0       _CxxThrowException         00000001801c46c0 f   libvcruntime:throw.obj
 0001:001c3760       _local_unwind              00000001801c4760 f   libvcruntime:jmpuwind.obj
 0001:001c3790       cosf                       00000001801c4790 f   libucrt:cosf.obj
 0001:001c3c90       sinf                       00000001801c4c90 f   libucrt:sinf.obj
 0001:001c4390       tanf                       00000001801c5390 f   libucrt:tanf.obj
 0001:001c4a04       __acrt_initialize_stdio    00000001801c5a04 f   libucrt:_file.obj
 0001:001c4b24       __acrt_iob_func            00000001801c5b24 f   libucrt:_file.obj
 0001:001c4b38       __acrt_uninitialize_stdio  00000001801c5b38 f   libucrt:_file.obj
 0001:001c4b94       _lock_file                 00000001801c5b94 f   libucrt:_file.obj
 0001:001c4ba0       _unlock_file               00000001801c5ba0 f   libucrt:_file.obj
 0001:001c4d9c       ??$ensure_buffer_is_big_enough@D@formatting_buffer@__crt_stdio_output@@QEAA_N_KAEAV__crt_cached_ptd_host@@@Z 00000001801c5d9c f i libucrt:output.obj
 0001:001c4e44       ??$parse_integer@KV?$c_string_character_source@D@__crt_strtox@@$0A@@__crt_strtox@@YAKAEAV__crt_cached_ptd_host@@V?$c_string_character_source@D@0@H_N@Z 00000001801c5e44 f i libucrt:output.obj
 0001:001c50f4       ??$type_case_integer@$07@?$output_processor@DV?$stream_output_adapter@D@__crt_stdio_output@@V?$standard_base@DV?$stream_output_adapter@D@__crt_stdio_output@@@2@@__crt_stdio_output@@AEAA_N_N@Z 00000001801c60f4 f i libucrt:output.obj
 0001:001c50f4       ??$type_case_integer@$07@?$output_processor@DV?$string_output_adapter@D@__crt_stdio_output@@V?$format_validation_base@DV?$string_output_adapter@D@__crt_stdio_output@@@2@@__crt_stdio_output@@AEAA_N_N@Z 00000001801c60f4 f i libucrt:output.obj
 0001:001c50f4       ??$type_case_integer@$07@?$output_processor@DV?$string_output_adapter@D@__crt_stdio_output@@V?$standard_base@DV?$string_output_adapter@D@__crt_stdio_output@@@2@@__crt_stdio_output@@AEAA_N_N@Z 00000001801c60f4 f i libucrt:output.obj
 0001:001c52dc       ??$type_case_integer@$09@?$output_processor@DV?$stream_output_adapter@D@__crt_stdio_output@@V?$standard_base@DV?$stream_output_adapter@D@__crt_stdio_output@@@2@@__crt_stdio_output@@AEAA_N_N@Z 00000001801c62dc f i libucrt:output.obj
 0001:001c52dc       ??$type_case_integer@$09@?$output_processor@DV?$string_output_adapter@D@__crt_stdio_output@@V?$format_validation_base@DV?$string_output_adapter@D@__crt_stdio_output@@@2@@__crt_stdio_output@@AEAA_N_N@Z 00000001801c62dc f i libucrt:output.obj
 0001:001c52dc       ??$type_case_integer@$09@?$output_processor@DV?$string_output_adapter@D@__crt_stdio_output@@V?$standard_base@DV?$string_output_adapter@D@__crt_stdio_output@@@2@@__crt_stdio_output@@AEAA_N_N@Z 00000001801c62dc f i libucrt:output.obj
 0001:001c54c4       ??$type_case_integer@$0BA@@?$output_processor@DV?$stream_output_adapter@D@__crt_stdio_output@@V?$standard_base@DV?$stream_output_adapter@D@__crt_stdio_output@@@2@@__crt_stdio_output@@AEAA_N_N@Z 00000001801c64c4 f i libucrt:output.obj
 0001:001c54c4       ??$type_case_integer@$0BA@@?$output_processor@DV?$string_output_adapter@D@__crt_stdio_output@@V?$format_validation_base@DV?$string_output_adapter@D@__crt_stdio_output@@@2@@__crt_stdio_output@@AEAA_N_N@Z 00000001801c64c4 f i libucrt:output.obj
 0001:001c54c4       ??$type_case_integer@$0BA@@?$output_processor@DV?$string_output_adapter@D@__crt_stdio_output@@V?$standard_base@DV?$string_output_adapter@D@__crt_stdio_output@@@2@@__crt_stdio_output@@AEAA_N_N@Z 00000001801c64c4 f i libucrt:output.obj
 0001:001c56ac       ??$type_case_integer_parse_into_buffer@I$07@?$output_processor@DV?$stream_output_adapter@D@__crt_stdio_output@@V?$standard_base@DV?$stream_output_adapter@D@__crt_stdio_output@@@2@@__crt_stdio_output@@AEAAXI_N@Z 00000001801c66ac f i libucrt:output.obj
 0001:001c56ac       ??$type_case_integer_parse_into_buffer@I$07@?$output_processor@DV?$string_output_adapter@D@__crt_stdio_output@@V?$format_validation_base@DV?$string_output_adapter@D@__crt_stdio_output@@@2@@__crt_stdio_output@@AEAAXI_N@Z 00000001801c66ac f i libucrt:output.obj
 0001:001c56ac       ??$type_case_integer_parse_into_buffer@I$07@?$output_processor@DV?$string_output_adapter@D@__crt_stdio_output@@V?$standard_base@DV?$string_output_adapter@D@__crt_stdio_output@@@2@@__crt_stdio_output@@AEAAXI_N@Z 00000001801c66ac f i libucrt:output.obj
 0001:001c5728       ??$type_case_integer_parse_into_buffer@I$09@?$output_processor@DV?$stream_output_adapter@D@__crt_stdio_output@@V?$standard_base@DV?$stream_output_adapter@D@__crt_stdio_output@@@2@@__crt_stdio_output@@AEAAXI_N@Z 00000001801c6728 f i libucrt:output.obj
 0001:001c5728       ??$type_case_integer_parse_into_buffer@I$09@?$output_processor@DV?$string_output_adapter@D@__crt_stdio_output@@V?$format_validation_base@DV?$string_output_adapter@D@__crt_stdio_output@@@2@@__crt_stdio_output@@AEAAXI_N@Z 00000001801c6728 f i libucrt:output.obj
 0001:001c5728       ??$type_case_integer_parse_into_buffer@I$09@?$output_processor@DV?$string_output_adapter@D@__crt_stdio_output@@V?$standard_base@DV?$string_output_adapter@D@__crt_stdio_output@@@2@@__crt_stdio_output@@AEAAXI_N@Z 00000001801c6728 f i libucrt:output.obj
 0001:001c57d0       ??$type_case_integer_parse_into_buffer@I$0BA@@?$output_processor@DV?$stream_output_adapter@D@__crt_stdio_output@@V?$standard_base@DV?$stream_output_adapter@D@__crt_stdio_output@@@2@@__crt_stdio_output@@AEAAXI_N@Z 00000001801c67d0 f i libucrt:output.obj
 0001:001c57d0       ??$type_case_integer_parse_into_buffer@I$0BA@@?$output_processor@DV?$string_output_adapter@D@__crt_stdio_output@@V?$format_validation_base@DV?$string_output_adapter@D@__crt_stdio_output@@@2@@__crt_stdio_output@@AEAAXI_N@Z 00000001801c67d0 f i libucrt:output.obj
 0001:001c57d0       ??$type_case_integer_parse_into_buffer@I$0BA@@?$output_processor@DV?$string_output_adapter@D@__crt_stdio_output@@V?$standard_base@DV?$string_output_adapter@D@__crt_stdio_output@@@2@@__crt_stdio_output@@AEAAXI_N@Z 00000001801c67d0 f i libucrt:output.obj
 0001:001c585c       ??$type_case_integer_parse_into_buffer@_K$07@?$output_processor@DV?$stream_output_adapter@D@__crt_stdio_output@@V?$standard_base@DV?$stream_output_adapter@D@__crt_stdio_output@@@2@@__crt_stdio_output@@AEAAX_K_N@Z 00000001801c685c f i libucrt:output.obj
 0001:001c585c       ??$type_case_integer_parse_into_buffer@_K$07@?$output_processor@DV?$string_output_adapter@D@__crt_stdio_output@@V?$format_validation_base@DV?$string_output_adapter@D@__crt_stdio_output@@@2@@__crt_stdio_output@@AEAAX_K_N@Z 00000001801c685c f i libucrt:output.obj
 0001:001c585c       ??$type_case_integer_parse_into_buffer@_K$07@?$output_processor@DV?$string_output_adapter@D@__crt_stdio_output@@V?$standard_base@DV?$string_output_adapter@D@__crt_stdio_output@@@2@@__crt_stdio_output@@AEAAX_K_N@Z 00000001801c685c f i libucrt:output.obj
 0001:001c58d8       ??$type_case_integer_parse_into_buffer@_K$09@?$output_processor@DV?$stream_output_adapter@D@__crt_stdio_output@@V?$standard_base@DV?$stream_output_adapter@D@__crt_stdio_output@@@2@@__crt_stdio_output@@AEAAX_K_N@Z 00000001801c68d8 f i libucrt:output.obj
 0001:001c58d8       ??$type_case_integer_parse_into_buffer@_K$09@?$output_processor@DV?$string_output_adapter@D@__crt_stdio_output@@V?$format_validation_base@DV?$string_output_adapter@D@__crt_stdio_output@@@2@@__crt_stdio_output@@AEAAX_K_N@Z 00000001801c68d8 f i libucrt:output.obj
 0001:001c58d8       ??$type_case_integer_parse_into_buffer@_K$09@?$output_processor@DV?$string_output_adapter@D@__crt_stdio_output@@V?$standard_base@DV?$string_output_adapter@D@__crt_stdio_output@@@2@@__crt_stdio_output@@AEAAX_K_N@Z 00000001801c68d8 f i libucrt:output.obj
 0001:001c5984       ??$type_case_integer_parse_into_buffer@_K$0BA@@?$output_processor@DV?$stream_output_adapter@D@__crt_stdio_output@@V?$standard_base@DV?$stream_output_adapter@D@__crt_stdio_output@@@2@@__crt_stdio_output@@AEAAX_K_N@Z 00000001801c6984 f i libucrt:output.obj
 0001:001c5984       ??$type_case_integer_parse_into_buffer@_K$0BA@@?$output_processor@DV?$string_output_adapter@D@__crt_stdio_output@@V?$format_validation_base@DV?$string_output_adapter@D@__crt_stdio_output@@@2@@__crt_stdio_output@@AEAAX_K_N@Z 00000001801c6984 f i libucrt:output.obj
 0001:001c5984       ??$type_case_integer_parse_into_buffer@_K$0BA@@?$output_processor@DV?$string_output_adapter@D@__crt_stdio_output@@V?$standard_base@DV?$string_output_adapter@D@__crt_stdio_output@@@2@@__crt_stdio_output@@AEAAX_K_N@Z 00000001801c6984 f i libucrt:output.obj
 0001:001c5b2c       ?crop_zeroes@__crt_stdio_output@@YAXPEADQEAU__crt_locale_pointers@@@Z 00000001801c6b2c f i libucrt:output.obj
 0001:001c5ba0       ?get_raw_ptd@__crt_cached_ptd_host@@QEAAPEAU__acrt_ptd@@XZ 00000001801c6ba0 f i libucrt:output.obj
 0001:001c5c08       ?parse_int_from_format_string@?$output_processor@DV?$stream_output_adapter@D@__crt_stdio_output@@V?$standard_base@DV?$stream_output_adapter@D@__crt_stdio_output@@@2@@__crt_stdio_output@@AEAA_NQEAH@Z 00000001801c6c08 f i libucrt:output.obj
 0001:001c5c08       ?parse_int_from_format_string@?$output_processor@DV?$string_output_adapter@D@__crt_stdio_output@@V?$format_validation_base@DV?$string_output_adapter@D@__crt_stdio_output@@@2@@__crt_stdio_output@@AEAA_NQEAH@Z 00000001801c6c08 f i libucrt:output.obj
 0001:001c5c08       ?parse_int_from_format_string@?$output_processor@DV?$string_output_adapter@D@__crt_stdio_output@@V?$standard_base@DV?$string_output_adapter@D@__crt_stdio_output@@@2@@__crt_stdio_output@@AEAA_NQEAH@Z 00000001801c6c08 f i libucrt:output.obj
 0001:001c5c98       ?process@?$output_processor@DV?$stream_output_adapter@D@__crt_stdio_output@@V?$standard_base@DV?$stream_output_adapter@D@__crt_stdio_output@@@2@@__crt_stdio_output@@QEAAHXZ 00000001801c6c98 f i libucrt:output.obj
 0001:001c6024       ?process@?$output_processor@DV?$string_output_adapter@D@__crt_stdio_output@@V?$format_validation_base@DV?$string_output_adapter@D@__crt_stdio_output@@@2@@__crt_stdio_output@@QEAAHXZ 00000001801c7024 f i libucrt:output.obj
 0001:001c63b4       ?process@?$output_processor@DV?$string_output_adapter@D@__crt_stdio_output@@V?$standard_base@DV?$string_output_adapter@D@__crt_stdio_output@@@2@@__crt_stdio_output@@QEAAHXZ 00000001801c73b4 f i libucrt:output.obj
 0001:001c6738       ?state_case_size@?$output_processor@DV?$stream_output_adapter@D@__crt_stdio_output@@V?$standard_base@DV?$stream_output_adapter@D@__crt_stdio_output@@@2@@__crt_stdio_output@@AEAA_NXZ 00000001801c7738 f i libucrt:output.obj
 0001:001c68bc       ?state_case_size@?$output_processor@DV?$string_output_adapter@D@__crt_stdio_output@@V?$format_validation_base@DV?$string_output_adapter@D@__crt_stdio_output@@@2@@__crt_stdio_output@@AEAA_NXZ 00000001801c78bc f i libucrt:output.obj
 0001:001c68bc       ?state_case_size@?$output_processor@DV?$string_output_adapter@D@__crt_stdio_output@@V?$standard_base@DV?$string_output_adapter@D@__crt_stdio_output@@@2@@__crt_stdio_output@@AEAA_NXZ 00000001801c78bc f i libucrt:output.obj
 0001:001c6a40       ?state_case_type@?$output_processor@DV?$stream_output_adapter@D@__crt_stdio_output@@V?$standard_base@DV?$stream_output_adapter@D@__crt_stdio_output@@@2@@__crt_stdio_output@@AEAA_NXZ 00000001801c7a40 f i libucrt:output.obj
 0001:001c6e74       ?state_case_type@?$output_processor@DV?$string_output_adapter@D@__crt_stdio_output@@V?$format_validation_base@DV?$string_output_adapter@D@__crt_stdio_output@@@2@@__crt_stdio_output@@AEAA_NXZ 00000001801c7e74 f i libucrt:output.obj
 0001:001c6e74       ?state_case_type@?$output_processor@DV?$string_output_adapter@D@__crt_stdio_output@@V?$standard_base@DV?$string_output_adapter@D@__crt_stdio_output@@@2@@__crt_stdio_output@@AEAA_NXZ 00000001801c7e74 f i libucrt:output.obj
 0001:001c7240       ?type_case_Z@?$output_processor@DV?$stream_output_adapter@D@__crt_stdio_output@@V?$standard_base@DV?$stream_output_adapter@D@__crt_stdio_output@@@2@@__crt_stdio_output@@AEAA_NXZ 00000001801c8240 f i libucrt:output.obj
 0001:001c7240       ?type_case_Z@?$output_processor@DV?$string_output_adapter@D@__crt_stdio_output@@V?$format_validation_base@DV?$string_output_adapter@D@__crt_stdio_output@@@2@@__crt_stdio_output@@AEAA_NXZ 00000001801c8240 f i libucrt:output.obj
 0001:001c7240       ?type_case_Z@?$output_processor@DV?$string_output_adapter@D@__crt_stdio_output@@V?$standard_base@DV?$string_output_adapter@D@__crt_stdio_output@@@2@@__crt_stdio_output@@AEAA_NXZ 00000001801c8240 f i libucrt:output.obj
 0001:001c72b8       ?type_case_a@?$output_processor@DV?$stream_output_adapter@D@__crt_stdio_output@@V?$standard_base@DV?$stream_output_adapter@D@__crt_stdio_output@@@2@@__crt_stdio_output@@AEAA_NXZ 00000001801c82b8 f i libucrt:output.obj
 0001:001c72b8       ?type_case_a@?$output_processor@DV?$string_output_adapter@D@__crt_stdio_output@@V?$format_validation_base@DV?$string_output_adapter@D@__crt_stdio_output@@@2@@__crt_stdio_output@@AEAA_NXZ 00000001801c82b8 f i libucrt:output.obj
 0001:001c72b8       ?type_case_a@?$output_processor@DV?$string_output_adapter@D@__crt_stdio_output@@V?$standard_base@DV?$string_output_adapter@D@__crt_stdio_output@@@2@@__crt_stdio_output@@AEAA_NXZ 00000001801c82b8 f i libucrt:output.obj
 0001:001c7504       ?type_case_c_tchar@?$output_processor@DV?$stream_output_adapter@D@__crt_stdio_output@@V?$standard_base@DV?$stream_output_adapter@D@__crt_stdio_output@@@2@@__crt_stdio_output@@AEAA_ND@Z 00000001801c8504 f i libucrt:output.obj
 0001:001c7504       ?type_case_c_tchar@?$output_processor@DV?$string_output_adapter@D@__crt_stdio_output@@V?$format_validation_base@DV?$string_output_adapter@D@__crt_stdio_output@@@2@@__crt_stdio_output@@AEAA_ND@Z 00000001801c8504 f i libucrt:output.obj
 0001:001c7504       ?type_case_c_tchar@?$output_processor@DV?$string_output_adapter@D@__crt_stdio_output@@V?$standard_base@DV?$string_output_adapter@D@__crt_stdio_output@@@2@@__crt_stdio_output@@AEAA_ND@Z 00000001801c8504 f i libucrt:output.obj
 0001:001c75c8       ?type_case_n@?$output_processor@DV?$stream_output_adapter@D@__crt_stdio_output@@V?$standard_base@DV?$stream_output_adapter@D@__crt_stdio_output@@@2@@__crt_stdio_output@@AEAA_NXZ 00000001801c85c8 f i libucrt:output.obj
 0001:001c75c8       ?type_case_n@?$output_processor@DV?$string_output_adapter@D@__crt_stdio_output@@V?$format_validation_base@DV?$string_output_adapter@D@__crt_stdio_output@@@2@@__crt_stdio_output@@AEAA_NXZ 00000001801c85c8 f i libucrt:output.obj
 0001:001c75c8       ?type_case_n@?$output_processor@DV?$string_output_adapter@D@__crt_stdio_output@@V?$standard_base@DV?$string_output_adapter@D@__crt_stdio_output@@@2@@__crt_stdio_output@@AEAA_NXZ 00000001801c85c8 f i libucrt:output.obj
 0001:001c767c       ?type_case_s@?$output_processor@DV?$stream_output_adapter@D@__crt_stdio_output@@V?$standard_base@DV?$stream_output_adapter@D@__crt_stdio_output@@@2@@__crt_stdio_output@@AEAA_NXZ 00000001801c867c f i libucrt:output.obj
 0001:001c767c       ?type_case_s@?$output_processor@DV?$string_output_adapter@D@__crt_stdio_output@@V?$format_validation_base@DV?$string_output_adapter@D@__crt_stdio_output@@@2@@__crt_stdio_output@@AEAA_NXZ 00000001801c867c f i libucrt:output.obj
 0001:001c767c       ?type_case_s@?$output_processor@DV?$string_output_adapter@D@__crt_stdio_output@@V?$standard_base@DV?$string_output_adapter@D@__crt_stdio_output@@@2@@__crt_stdio_output@@AEAA_NXZ 00000001801c867c f i libucrt:output.obj
 0001:001c7720       ?update_locale_slow@__crt_cached_ptd_host@@AEAAXXZ 00000001801c8720 f i libucrt:output.obj
 0001:001c7798       ?validate_stream_is_ansi_if_required@?$__acrt_stdio_char_traits@D@@SA_NQEAU_iobuf@@@Z 00000001801c8798 f i libucrt:output.obj
 0001:001c7834       ?write_string@?$string_output_adapter@D@__crt_stdio_output@@QEBAXQEBDHQEAHAEAV__crt_cached_ptd_host@@@Z 00000001801c8834 f i libucrt:output.obj
 0001:001c78d8       ?write_string_impl@?$output_adapter_common@DV?$stream_output_adapter@D@__crt_stdio_output@@@__crt_stdio_output@@IEBAXQEBDHQEAHAEAV__crt_cached_ptd_host@@@Z 00000001801c88d8 f i libucrt:output.obj
 0001:001c79a4       __stdio_common_vfprintf    00000001801c89a4 f   libucrt:output.obj
 0001:001c7ac8       __stdio_common_vsprintf    00000001801c8ac8 f   libucrt:output.obj
 0001:001c7d1c       __stdio_common_vsprintf_s  00000001801c8d1c f   libucrt:output.obj
 0001:001c7e30       _fpclass                   00000001801c8e30 f   libucrt:ieeemisc.obj
 0001:001c7ec0       powf                       00000001801c8ec0 f   libucrt:powf.obj
 0001:001c8d88       atan2f                     00000001801c9d88 f   libucrt:atan2f.obj
 0001:001c9180       acosf                      00000001801ca180 f   libucrt:acosf.obj
 0001:001c93ac       free                       00000001801ca3ac f   libucrt:free.obj
 0001:001c93c0       _seh_filter_dll            00000001801ca3c0 f   libucrt:exception_filter.obj
 0001:001c93d4       _seh_filter_exe            00000001801ca3d4 f   libucrt:exception_filter.obj
 0001:001c97f8       __acrt_initialize_thread_local_exit_callback 00000001801ca7f8 f   libucrt:exit.obj
 0001:001c9800       _cexit                     00000001801ca800 f   libucrt:exit.obj
 0001:001c9810       _exit                      00000001801ca810 f   libucrt:exit.obj
 0001:001c981c       _is_c_termination_complete 00000001801ca81c f   libucrt:exit.obj
 0001:001c99e4       __acrt_allocate_buffer_for_argv 00000001801ca9e4 f   libucrt:argv_parsing.obj
 0001:001c9a44       _configure_narrow_argv     00000001801caa44 f   libucrt:argv_parsing.obj
 0001:001c9dcc       __dcrt_uninitialize_environments_nolock 00000001801cadcc f   libucrt:environment_initialization.obj
 0001:001c9e10       _initialize_narrow_environment 00000001801cae10 f   libucrt:environment_initialization.obj
 0001:001ca160       _crt_atexit                00000001801cb160 f   libucrt:onexit.obj
 0001:001ca170       _execute_onexit_table      00000001801cb170 f   libucrt:onexit.obj
 0001:001ca1b4       _initialize_onexit_table   00000001801cb1b4 f   libucrt:onexit.obj
 0001:001ca1dc       _register_onexit_function  00000001801cb1dc f   libucrt:onexit.obj
 0001:001ca25c       __acrt_uninitialize_command_line 00000001801cb25c f   libucrt:argv_data.obj
 0001:001ca354       __acrt_initialize          00000001801cb354 f   libucrt:initialization.obj
 0001:001ca368       __acrt_thread_attach       00000001801cb368 f   libucrt:initialization.obj
 0001:001ca37c       __acrt_thread_detach       00000001801cb37c f   libucrt:initialization.obj
 0001:001ca38c       __acrt_uninitialize        00000001801cb38c f   libucrt:initialization.obj
 0001:001ca3c4       __acrt_uninitialize_critical 00000001801cb3c4 f   libucrt:initialization.obj
 0001:001ca3d4       _initterm                  00000001801cb3d4 f   libucrt:initterm.obj
 0001:001ca418       _initterm_e                00000001801cb418 f   libucrt:initterm.obj
 0001:001ca460       terminate                  00000001801cb460 f   libucrt:terminate.obj
 0001:001ca48c       abort                      00000001801cb48c f   libucrt:abort.obj
 0001:001ca4e4       malloc                     00000001801cb4e4 f   libucrt:malloc.obj
 0001:001ca4ec       strcpy_s                   00000001801cb4ec f   libucrt:strcpy_s.obj
 0001:001ca54c       ??$parse_integer@KV?$c_string_character_source@D@__crt_strtox@@$00@__crt_strtox@@YAKAEAV__crt_cached_ptd_host@@V?$c_string_character_source@D@0@H_N@Z 00000001801cb54c f i libucrt:atox.obj
 0001:001ca82c       _ischartype_l              00000001801cb82c f i libucrt:atox.obj
 0001:001ca8a4       atol                       00000001801cb8a4 f   libucrt:atox.obj
 0001:001ca970       strncmp                    00000001801cb970 f   libucrt:strncmp.obj
 0001:001ca9f0       calloc                     00000001801cb9f0 f   libucrt:calloc.obj
 0001:001ca9f8       wcsncmp                    00000001801cb9f8 f   libucrt:wcsncmp.obj
 0001:001caa30       __remainder_piby2d2f_forAsm 00000001801cba30 f   libucrt:remainder_piby2f_forasm.obj
 0001:001cab80       __remainder_piby2_fma3     00000001801cbb80 f   libucrt:remainder_piby2_forfma3.obj
 0001:001cad70       __remainder_piby2_fma3_bdl 00000001801cbd70 f   libucrt:remainder_piby2_forfma3.obj
 0001:001cade8       _cosf_special              00000001801cbde8 f   libucrt:sincos_special.obj
 0001:001cae88       _sinf_special              00000001801cbe88 f   libucrt:sincos_special.obj
 0001:001cae9c       _tanf_special              00000001801cbe9c f   libucrt:sincos_special.obj
 0001:001caeb0       _clrfp                     00000001801cbeb0 f   libucrt:fpctrl.obj
 0001:001caed0       _ctrlfp                    00000001801cbed0 f   libucrt:fpctrl.obj
 0001:001caf4c       _set_statfp                00000001801cbf4c f   libucrt:fpctrl.obj
 0001:001caf6c       _statfp                    00000001801cbf6c f   libucrt:fpctrl.obj
 0001:001caf80       __acrt_initialize_fma3     00000001801cbf80 f   libucrt:fma3_available.obj
 0001:001caff0       __remainder_piby2d2f_forC  00000001801cbff0 f   libucrt:remainder_piby2f_forc.obj
 0001:001cb17c       ?get_raw_ptd_noexit@__crt_cached_ptd_host@@QEAAPEAU__acrt_ptd@@XZ 00000001801cc17c f i libucrt:invalid_parameter.obj
 0001:001cb1e8       ?value@?$dual_state_global@P6AXPEB_W00I_K@Z@__crt_state_management@@QEAAAEAP6AXPEB_W00I_K@ZAEAV__crt_cached_ptd_host@@@Z 00000001801cc1e8 f i libucrt:invalid_parameter.obj
 0001:001cb234       __acrt_call_reportfault    00000001801cc234 f   libucrt:invalid_parameter.obj
 0001:001cb390       __acrt_initialize_invalid_parameter_handler 00000001801cc390 f   libucrt:invalid_parameter.obj
 0001:001cb398       _invalid_parameter         00000001801cc398 f   libucrt:invalid_parameter.obj
 0001:001cb434       _invalid_parameter_internal 00000001801cc434 f   libucrt:invalid_parameter.obj
 0001:001cb504       _invalid_parameter_noinfo  00000001801cc504 f   libucrt:invalid_parameter.obj
 0001:001cb524       _invoke_watson             00000001801cc524 f   libucrt:invalid_parameter.obj
 0001:001cb56c       __acrt_errno_from_os_error 00000001801cc56c f   libucrt:errno.obj
 0001:001cb5b4       __acrt_errno_map_os_error  00000001801cc5b4 f   libucrt:errno.obj
 0001:001cb5fc       __acrt_errno_map_os_error_ptd 00000001801cc5fc f   libucrt:errno.obj
 0001:001cb620       __doserrno                 00000001801cc620 f   libucrt:errno.obj
 0001:001cb640       _errno                     00000001801cc640 f   libucrt:errno.obj
 0001:001cb660       _calloc_base               00000001801cc660 f   libucrt:calloc_base.obj
 0001:001cb6d8       _free_base                 00000001801cc6d8 f   libucrt:free_base.obj
 0001:001cb8d4       __acrt_AppPolicyGetProcessTerminationMethodInternal 00000001801cc8d4 f   libucrt:winapi_thunks.obj
 0001:001cb92c       __acrt_AreFileApisANSI     00000001801cc92c f   libucrt:winapi_thunks.obj
 0001:001cb970       __acrt_FlsAlloc            00000001801cc970 f   libucrt:winapi_thunks.obj
 0001:001cb978       __acrt_FlsFree             00000001801cc978 f   libucrt:winapi_thunks.obj
 0001:001cb980       __acrt_FlsGetValue         00000001801cc980 f   libucrt:winapi_thunks.obj
 0001:001cb988       __acrt_FlsSetValue         00000001801cc988 f   libucrt:winapi_thunks.obj
 0001:001cb990       __acrt_InitializeCriticalSectionEx 00000001801cc990 f   libucrt:winapi_thunks.obj
 0001:001cba00       __acrt_LCMapStringEx       00000001801cca00 f   libucrt:winapi_thunks.obj
 0001:001cbaec       __acrt_LocaleNameToLCID    00000001801ccaec f   libucrt:winapi_thunks.obj
 0001:001cbb4c       __acrt_initialize_winapi_thunks 00000001801ccb4c f   libucrt:winapi_thunks.obj
 0001:001cbb70       __acrt_uninitialize_winapi_thunks 00000001801ccb70 f   libucrt:winapi_thunks.obj
 0001:001cbbb4       _fcloseall                 00000001801ccbb4 f   libucrt:closeall.obj
 0001:001cbe44       __acrt_stdio_flush_nolock  00000001801cce44 f   libucrt:fflush.obj
 0001:001cbed0       _fflush_nolock             00000001801cced0 f   libucrt:fflush.obj
 0001:001cbfa4       _flushall                  00000001801ccfa4 f   libucrt:fflush.obj
 0001:001cbfac       __acrt_stdio_free_buffer_nolock 00000001801ccfac f   libucrt:_freebuf.obj
 0001:001cc1e4       __acrt_initialize_lowio    00000001801cd1e4 f   libucrt:ioinit.obj
 0001:001cc220       __acrt_uninitialize_lowio  00000001801cd220 f   libucrt:ioinit.obj
 0001:001cc260       _malloc_base               00000001801cd260 f   libucrt:malloc_base.obj
 0001:001cc2c0       strnlen                    00000001801cd2c0 f   libucrt:strnlen.obj
 0001:001cc410       wcsnlen                    00000001801cd410 f   libucrt:strnlen.obj
 0001:001cc5e8       __acrt_update_locale_info  00000001801cd5e8 f   libucrt:locale_update.obj
 0001:001cc61c       __acrt_update_locale_info_explicit 00000001801cd61c f   libucrt:locale_update.obj
 0001:001cc654       __acrt_update_multibyte_info 00000001801cd654 f   libucrt:locale_update.obj
 0001:001cc688       __acrt_update_multibyte_info_explicit 00000001801cd688 f   libucrt:locale_update.obj
 0001:001cd1f0       __acrt_fp_format           00000001801ce1f0 f   libucrt:cvt.obj
 0001:001cd4d8       _wctomb_internal           00000001801ce4d8 f   libucrt:wctomb.obj
 0001:001cd688       _mbtowc_internal           00000001801ce688 f   libucrt:mbtowc.obj
 0001:001cd800       _fileno                    00000001801ce800 f   libucrt:fileno.obj
 0001:001cd828       _get_printf_count_output   00000001801ce828 f   libucrt:printf_count_output.obj
 0001:001cd840       _fputc_nolock_internal     00000001801ce840 f   libucrt:fputc.obj
 0001:001cd858       __acrt_should_use_temporary_buffer 00000001801ce858 f   libucrt:_sftbuf.obj
 0001:001cd8a0       __acrt_stdio_begin_temporary_buffering_nolock 00000001801ce8a0 f   libucrt:_sftbuf.obj
 0001:001cd968       __acrt_stdio_end_temporary_buffering_nolock 00000001801ce968 f   libucrt:_sftbuf.obj
 0001:001cdd1c       __acrt_freeptd             00000001801ced1c f   libucrt:per_thread_data.obj
 0001:001cdd60       __acrt_getptd              00000001801ced60 f   libucrt:per_thread_data.obj
 0001:001cde34       __acrt_getptd_head         00000001801cee34 f   libucrt:per_thread_data.obj
 0001:001cded8       __acrt_getptd_noexit       00000001801ceed8 f   libucrt:per_thread_data.obj
 0001:001cdfa0       __acrt_getptd_noexit_explicit 00000001801cefa0 f   libucrt:per_thread_data.obj
 0001:001ce060       __acrt_initialize_ptd      00000001801cf060 f   libucrt:per_thread_data.obj
 0001:001ce09c       __acrt_uninitialize_ptd    00000001801cf09c f   libucrt:per_thread_data.obj
 0001:001ce130       __acrt_set_locale_changed  00000001801cf130 f   libucrt:wsetlocale.obj
 0001:001ce13c       __acrt_uninitialize_locale 00000001801cf13c f   libucrt:wsetlocale.obj
 0001:001ce290       _handle_error              00000001801cf290 f   libucrt:libm_error.obj
 0001:001ce3b8       _handle_errorf             00000001801cf3b8 f   libucrt:libm_error.obj
 0001:001ce4ec       _handle_nan                00000001801cf4ec f   libucrt:libm_error.obj
 0001:001ce508       _handle_nanf               00000001801cf508 f   libucrt:libm_error.obj
 0001:001ce520       _powf_special              00000001801cf520 f   libucrt:pow_special.obj
 0001:001ce670       __acrt_initialize_locks    00000001801cf670 f   libucrt:locks.obj
 0001:001ce6b8       __acrt_lock                00000001801cf6b8 f   libucrt:locks.obj
 0001:001ce6d4       __acrt_uninitialize_locks  00000001801cf6d4 f   libucrt:locks.obj
 0001:001ce70c       __acrt_unlock              00000001801cf70c f   libucrt:locks.obj
 0001:001ce728       __acrt_get_process_end_policy 00000001801cf728 f   libucrt:win_policies.obj
 0001:001ce778       ??$__acrt_convert_wcs_mbs_cp@D_WV<lambda_7c9dea7b4ca7285d2cdb541a38da6275>@@U__crt_win32_buffer_internal_dynamic_resizing@@@@YAHQEBDAEAV?$__crt_win32_buffer@_WU__crt_win32_buffer_internal_dynamic_resizing@@@@AEBV<lambda_7c9dea7b4ca7285d2cdb541a38da6275>@@I@Z 00000001801cf778 f i libucrt:argv_wildcards.obj
 0001:001ce8f4       ??$__acrt_convert_wcs_mbs_cp@_WDV<lambda_d8593a27d1aa8c02be35c86a17d324c4>@@U__crt_win32_buffer_internal_dynamic_resizing@@@@YAHQEB_WAEAV?$__crt_win32_buffer@DU__crt_win32_buffer_internal_dynamic_resizing@@@@AEBV<lambda_d8593a27d1aa8c02be35c86a17d324c4>@@I@Z 00000001801cf8f4 f i libucrt:argv_wildcards.obj
 0001:001cf19c       ??0_LocaleUpdate@@QEAA@QEAU__crt_locale_pointers@@@Z 00000001801d019c f i libucrt:argv_wildcards.obj
 0001:001cf238       __acrt_expand_narrow_argv_wildcards 00000001801d0238 f   libucrt:argv_wildcards.obj
 0001:001cf240       ??$__acrt_convert_wcs_mbs_cp@_WDV<lambda_f788ae46380686e8b737efdd8c720d07>@@U__crt_win32_buffer_no_resizing@@@@YAHQEB_WAEAV?$__crt_win32_buffer@DU__crt_win32_buffer_no_resizing@@@@AEBV<lambda_f788ae46380686e8b737efdd8c720d07>@@I@Z 00000001801d0240 f i libucrt:getmodulefilenamea.obj
 0001:001cf35c       __acrt_GetModuleFileNameA  00000001801d035c f   libucrt:getmodulefilenamea.obj
 0001:001cfc78       __acrt_initialize_multibyte 00000001801d0c78 f   libucrt:mbctype.obj
 0001:001cfcd8       __acrt_update_thread_multibyte_data 00000001801d0cd8 f   libucrt:mbctype.obj
 0001:001cfcf4       _setmbcp_nolock            00000001801d0cf4 f   libucrt:mbctype.obj
 0001:001d0028       _ismbblead                 00000001801d1028 f   libucrt:ismbbyte.obj
 0001:001d003c       __acrt_initialize_command_line 00000001801d103c f   libucrt:argv_data.obj
 0001:001d0064       __acrt_MultiByteToWideChar 00000001801d1064 f   libucrt:multibytetowidechar.obj
 0001:001d00c0       __acrt_WideCharToMultiByte 00000001801d10c0 f   libucrt:widechartomultibyte.obj
 0001:001d0170       __dcrt_get_narrow_environment_from_os 00000001801d1170 f   libucrt:get_environment_from_os.obj
 0001:001d0280       _recalloc_base             00000001801d1280 f   libucrt:recalloc.obj
 0001:001d0318       __acrt_initialize_heap     00000001801d1318 f   libucrt:heap_handle.obj
 0001:001d0334       __acrt_uninitialize_heap   00000001801d1334 f   libucrt:heap_handle.obj
 0001:001d0340       __acrt_execute_initializers 00000001801d1340 f   libucrt:shared_initialization.obj
 0001:001d03d4       __acrt_execute_uninitializers 00000001801d13d4 f   libucrt:shared_initialization.obj
 0001:001d041c       __acrt_initialize_new_handler 00000001801d141c f   libucrt:new_handler.obj
 0001:001d0424       _callnewh                  00000001801d1424 f   libucrt:new_handler.obj
 0001:001d0460       _query_new_handler         00000001801d1460 f   libucrt:new_handler.obj
 0001:001d04dc       __acrt_get_sigabrt_handler 00000001801d14dc f   libucrt:signal.obj
 0001:001d050c       __acrt_initialize_signal_handlers 00000001801d150c f   libucrt:signal.obj
 0001:001d052c       raise                      00000001801d152c f   libucrt:signal.obj
 0001:001d07ac       __acrt_has_user_matherr    00000001801d17ac f   libucrt:matherr.obj
 0001:001d07cc       __acrt_initialize_user_matherr 00000001801d17cc f   libucrt:matherr.obj
 0001:001d07d4       __acrt_invoke_user_matherr 00000001801d17d4 f   libucrt:matherr.obj
 0001:001d080c       __pctype_func              00000001801d180c f   libucrt:ctype.obj
 0001:001d083c       _isctype_l                 00000001801d183c f   libucrt:isctype.obj
 0001:001d0960       _get_fpsr                  00000001801d1960 f   libucrt:fpsr.obj
 0001:001d0970       _set_fpsr                  00000001801d1970 f   libucrt:fpsr.obj
 0001:001d097a       _fclrf                     00000001801d197a f   libucrt:fpsr.obj
 0001:001d098e       _frnd                      00000001801d198e f   libucrt:fpsr.obj
 0001:001d09b0       _query_new_mode            00000001801d19b0 f   libucrt:new_mode.obj
 0001:001d09b8       __acrt_DownlevelLocaleNameToLCID 00000001801d19b8 f   libucrt:lcidtoname_downlevel.obj
 0001:001d0b80       fclose                     00000001801d1b80 f   libucrt:fclose.obj
 0001:001d0ca4       _commit                    00000001801d1ca4 f   libucrt:commit.obj
 0001:001d1554       _write_internal            00000001801d2554 f   libucrt:write.obj
 0001:001d167c       _write_nolock              00000001801d267c f   libucrt:write.obj
 0001:001d198c       __acrt_lowio_create_handle_array 00000001801d298c f   libucrt:osfinfo.obj
 0001:001d1a34       __acrt_lowio_destroy_handle_array 00000001801d2a34 f   libucrt:osfinfo.obj
 0001:001d1a84       __acrt_lowio_ensure_fh_exists 00000001801d2a84 f   libucrt:osfinfo.obj
 0001:001d1b2c       __acrt_lowio_lock_fh       00000001801d2b2c f   libucrt:osfinfo.obj
 0001:001d1b54       __acrt_lowio_unlock_fh     00000001801d2b54 f   libucrt:osfinfo.obj
 0001:001d1b7c       _free_osfhnd               00000001801d2b7c f   libucrt:osfinfo.obj
 0001:001d1c38       _get_osfhandle             00000001801d2c38 f   libucrt:osfinfo.obj
 0001:001d1cb0       __acrt_add_locale_ref      00000001801d2cb0 f   libucrt:locale_refcounting.obj
 0001:001d1d3c       __acrt_free_locale         00000001801d2d3c f   libucrt:locale_refcounting.obj
 0001:001d1eb4       __acrt_locale_add_lc_time_reference 00000001801d2eb4 f   libucrt:locale_refcounting.obj
 0001:001d1edc       __acrt_locale_free_lc_time_if_unreferenced 00000001801d2edc f   libucrt:locale_refcounting.obj
 0001:001d1f14       __acrt_locale_release_lc_time_reference 00000001801d2f14 f   libucrt:locale_refcounting.obj
 0001:001d1f3c       __acrt_release_locale_ref  00000001801d2f3c f   libucrt:locale_refcounting.obj
 0001:001d1fe4       __acrt_update_thread_locale_data 00000001801d2fe4 f   libucrt:locale_refcounting.obj
 0001:001d2054       _updatetlocinfoEx_nolock   00000001801d3054 f   libucrt:locale_refcounting.obj
 0001:001d20bc       __acrt_fp_strflt_to_string 00000001801d30bc f   libucrt:_fptostr.obj
 0001:001d2240       ?divide@__crt_strtox@@YA_KAEAUbig_integer@1@AEBU21@@Z 00000001801d3240 f i libucrt:cfout.obj
 0001:001d26cc       __acrt_fltout              00000001801d36cc f   libucrt:cfout.obj
 0001:001d3994       fegetround                 00000001801d4994 f   libucrt:fegetround.obj
 0001:001d39a8       ?__c32rtomb_utf8@__crt_mbstring@@YA_KPEAD_UPEAU_Mbstatet@@AEAV__crt_cached_ptd_host@@@Z 00000001801d49a8 f   libucrt:c32rtomb.obj
 0001:001d3a4c       ?__mbrtowc_utf8@__crt_mbstring@@YA_KPEA_WPEBD_KPEAU_Mbstatet@@AEAV__crt_cached_ptd_host@@@Z 00000001801d4a4c f   libucrt:mbrtowc.obj
 0001:001d3a90       ?__mbsrtowcs_utf8@__crt_mbstring@@YA_KPEA_WPEAPEBD_KPEAU_Mbstatet@@AEAV__crt_cached_ptd_host@@@Z 00000001801d4a90 f   libucrt:mbrtowc.obj
 0001:001d3da8       __acrt_stdio_flush_and_write_narrow_nolock 00000001801d4da8 f   libucrt:_flsbuf.obj
 0001:001d3e6c       _isatty                    00000001801d4e6c f   libucrt:isatty.obj
 0001:001d3ecc       __acrt_locale_free_monetary 00000001801d4ecc f   libucrt:initmon.obj
 0001:001d3fd8       __acrt_locale_free_numeric 00000001801d4fd8 f   libucrt:initnum.obj
 0001:001d4078       __acrt_locale_free_time    00000001801d5078 f   libucrt:inittime.obj
 0001:001d4180       __acrt_GetStringTypeA      00000001801d5180 f   libucrt:getstringtypea.obj
 0001:001d431c       _raise_exc                 00000001801d531c f   libucrt:fpexcept.obj
 0001:001d4344       _raise_exc_ex              00000001801d5344 f   libucrt:fpexcept.obj
 0001:001d4654       _raise_excf                00000001801d5654 f   libucrt:fpexcept.obj
 0001:001d4680       _set_errno_from_matherr    00000001801d5680 f   libucrt:fpexcept.obj
 0001:001d46b0       qsort                      00000001801d56b0 f   libucrt:qsort.obj
 0001:001d4ac0       strncpy_s                  00000001801d5ac0 f   libucrt:strncpy_s.obj
 0001:001d4c50       strpbrk                    00000001801d5c50 f   libucrt:strpbrk.obj
 0001:001d5018       _mbsdec                    00000001801d6018 f   libucrt:mbsdec.obj
 0001:001d5020       _mbsdec_l                  00000001801d6020 f   libucrt:mbsdec.obj
 0001:001d53d4       __acrt_LCMapStringA        00000001801d63d4 f   libucrt:lcmapstringa.obj
 0001:001d5484       _msize_base                00000001801d6484 f   libucrt:msize.obj
 0001:001d54c0       _realloc_base              00000001801d64c0 f   libucrt:realloc_base.obj
 0001:001d553c       __ascii_wcsnicmp           00000001801d653c f   libucrt:wcsnicmp.obj
 0001:001d5600       _close_internal            00000001801d6600 f   libucrt:close.obj
 0001:001d56c4       _close_nolock_internal     00000001801d66c4 f   libucrt:close.obj
 0001:001d5794       ?__acrt_stdio_free_stream@@YAXV__crt_stdio_stream@@@Z 00000001801d6794 f   libucrt:stream.obj
 0001:001d5984       _lseeki64                  00000001801d6984 f   libucrt:lseek.obj
 0001:001d5a20       _lseeki64_nolock_internal  00000001801d6a20 f   libucrt:lseek.obj
 0001:001d5a28       _putwch_nolock             00000001801d6a28 f   libucrt:putwch.obj
 0001:001d5a64       _query_app_type            00000001801d6a64 f   libucrt:report_runtime_error.obj
 0001:001d5a6c       _controlfp_s               00000001801d6a6c f   libucrt:contrlfp.obj
 0001:001d5ad0       fegetenv                   00000001801d6ad0 f   libucrt:fegetenv.obj
 0001:001d5af0       fesetenv                   00000001801d6af0 f   libucrt:fesetenv.obj
 0001:001d5b3c       feholdexcept               00000001801d6b3c f   libucrt:feholdexcept.obj
 0001:001d5b8c       ceil                       00000001801d6b8c f   libucrt:ceil.obj
 0001:001d5c50       log10                      00000001801d6c50 f   libucrt:log10.obj
 0001:001d61fc       __acrt_fenv_get_common_round_control 00000001801d71fc f   libucrt:_fenvutils.obj
 0001:001d6208       __acrt_fenv_get_control    00000001801d7208 f   libucrt:_fenvutils.obj
 0001:001d62ec       __acrt_fenv_get_status     00000001801d72ec f   libucrt:_fenvutils.obj
 0001:001d6344       __acrt_fenv_set_control    00000001801d7344 f   libucrt:_fenvutils.obj
 0001:001d6480       __acrt_fenv_set_status     00000001801d7480 f   libucrt:_fenvutils.obj
 0001:001d64f4       ?reset_and_return@__crt_mbstring@@YA_K_KPEAU_Mbstatet@@@Z 00000001801d74f4 f   libucrt:common_utf8.obj
 0001:001d64fc       ?return_illegal_sequence@__crt_mbstring@@YA_KPEAU_Mbstatet@@AEAV__crt_cached_ptd_host@@@Z 00000001801d74fc f   libucrt:common_utf8.obj
 0001:001d6510       ?__mbrtoc32_utf8@__crt_mbstring@@YA_KPEA_UPEBD_KPEAU_Mbstatet@@AEAV__crt_cached_ptd_host@@@Z 00000001801d7510 f   libucrt:mbrtoc32.obj
 0001:001d66ec       __acrt_stdio_allocate_buffer_nolock 00000001801d76ec f   libucrt:_getbuf.obj
 0001:001d6758       __strncnt                  00000001801d7758 f   libucrt:strncnt.obj
 0001:001d6770       __dcrt_lowio_ensure_console_output_initialized 00000001801d7770 f   libucrt:initcon.obj
 0001:001d67c4       __dcrt_terminate_console_output 00000001801d77c4 f   libucrt:initcon.obj
 0001:001d67e0       __dcrt_write_console       00000001801d77e0 f   libucrt:initcon.obj
 0001:001d68a0       _clearfp                   00000001801d78a0 f   libucrt:ieee.obj
 0001:001d6910       _control87                 00000001801d7910 f   libucrt:ieee.obj
 0001:001d6be0       _log10_special             00000001801d7be0 f   libucrt:log_special.obj
 0001:001d6ca0       _FindPESection             00000001801d7ca0 f   LIBCMT:pesect.obj
 0001:001d6cf0       _IsNonwritableInCurrentImage 00000001801d7cf0 f   LIBCMT:pesect.obj
 0001:001d6d40       _ValidateImageBase         00000001801d7d40 f   LIBCMT:pesect.obj
 0001:001d6d6c       __GSHandlerCheck           00000001801d7d6c f   LIBCMT:gshandler.obj
 0001:001d6d8c       __GSHandlerCheckCommon     00000001801d7d8c f   LIBCMT:gshandler.obj
 0001:001d6e00       __security_check_cookie    00000001801d7e00 f   LIBCMT:amdsecgs.obj
 0001:001d6e20       __GSHandlerCheck_SEH       00000001801d7e20 f   LIBCMT:gshandlerseh.obj
 0001:001d6ea8       __raise_securityfailure    00000001801d7ea8 f   LIBCMT:gs_report.obj
 0001:001d6edc       __report_gsfailure         00000001801d7edc f   LIBCMT:gs_report.obj
 0001:001d6fb0       __report_rangecheckfailure 00000001801d7fb0 f   LIBCMT:gs_report.obj
 0001:001d6fc4       __report_securityfailure   00000001801d7fc4 f   LIBCMT:gs_report.obj
 0001:001d7144       __GSHandlerCheck_EH        00000001801d8144 f   LIBCMT:gshandlereh.obj
 0001:001d71c4       __C_specific_handler_noexcept 00000001801d81c4 f   libvcruntime:chandler_noexcept.obj
 0001:001d7210       strrchr                    00000001801d8210 f   libvcruntime:strrchr.obj
 0001:001d7360       memcmp                     00000001801d8360 f   libvcruntime:memcmp.obj
 0001:001d7440       _guard_dispatch_icall_nop  00000001801d8440 f   LIBCMT:guard_dispatch.obj
 0001:001d7460       _guard_xfg_dispatch_icall_nop 00000001801d8460 f   LIBCMT:guard_xfg_dispatch.obj
 0002:00000000       __imp_GetLastError         00000001801d9000     kernel32:KERNEL32.dll
 0002:00000008       __imp_FreeLibrary          00000001801d9008     kernel32:KERNEL32.dll
 0002:00000010       __imp_GetProcAddress       00000001801d9010     kernel32:KERNEL32.dll
 0002:00000018       __imp_LoadLibraryA         00000001801d9018     kernel32:KERNEL32.dll
 0002:00000020       __imp_WriteConsoleW        00000001801d9020     kernel32:KERNEL32.dll
 0002:00000028       __imp_RaiseException       00000001801d9028     kernel32:KERNEL32.dll
 0002:00000030       __imp_GetSystemInfo        00000001801d9030     kernel32:KERNEL32.dll
 0002:00000038       __imp_VirtualProtect       00000001801d9038     kernel32:KERNEL32.dll
 0002:00000040       __imp_VirtualQuery         00000001801d9040     kernel32:KERNEL32.dll
 0002:00000048       __imp_GetModuleHandleW     00000001801d9048     kernel32:KERNEL32.dll
 0002:00000050       __imp_LoadLibraryExA       00000001801d9050     kernel32:KERNEL32.dll
 0002:00000058       __imp_InitializeSListHead  00000001801d9058     kernel32:KERNEL32.dll
 0002:00000060       __imp_RtlCaptureContext    00000001801d9060     kernel32:KERNEL32.dll
 0002:00000068       __imp_RtlLookupFunctionEntry 00000001801d9068     kernel32:KERNEL32.dll
 0002:00000070       __imp_RtlVirtualUnwind     00000001801d9070     kernel32:KERNEL32.dll
 0002:00000078       __imp_IsDebuggerPresent    00000001801d9078     kernel32:KERNEL32.dll
 0002:00000080       __imp_UnhandledExceptionFilter 00000001801d9080     kernel32:KERNEL32.dll
 0002:00000088       __imp_SetUnhandledExceptionFilter 00000001801d9088     kernel32:KERNEL32.dll
 0002:00000090       __imp_GetStartupInfoW      00000001801d9090     kernel32:KERNEL32.dll
 0002:00000098       __imp_IsProcessorFeaturePresent 00000001801d9098     kernel32:KERNEL32.dll
 0002:000000a0       __imp_QueryPerformanceCounter 00000001801d90a0     kernel32:KERNEL32.dll
 0002:000000a8       __imp_GetCurrentProcessId  00000001801d90a8     kernel32:KERNEL32.dll
 0002:000000b0       __imp_GetCurrentThreadId   00000001801d90b0     kernel32:KERNEL32.dll
 0002:000000b8       __imp_GetSystemTimeAsFileTime 00000001801d90b8     kernel32:KERNEL32.dll
 0002:000000c0       __imp_InterlockedPushEntrySList 00000001801d90c0     kernel32:KERNEL32.dll
 0002:000000c8       __imp_InterlockedFlushSList 00000001801d90c8     kernel32:KERNEL32.dll
 0002:000000d0       __imp_RtlUnwindEx          00000001801d90d0     kernel32:KERNEL32.dll
 0002:000000d8       __imp_SetLastError         00000001801d90d8     kernel32:KERNEL32.dll
 0002:000000e0       __imp_EnterCriticalSection 00000001801d90e0     kernel32:KERNEL32.dll
 0002:000000e8       __imp_LeaveCriticalSection 00000001801d90e8     kernel32:KERNEL32.dll
 0002:000000f0       __imp_DeleteCriticalSection 00000001801d90f0     kernel32:KERNEL32.dll
 0002:000000f8       __imp_InitializeCriticalSectionAndSpinCount 00000001801d90f8     kernel32:KERNEL32.dll
 0002:00000100       __imp_TlsAlloc             00000001801d9100     kernel32:KERNEL32.dll
 0002:00000108       __imp_TlsGetValue          00000001801d9108     kernel32:KERNEL32.dll
 0002:00000110       __imp_TlsSetValue          00000001801d9110     kernel32:KERNEL32.dll
 0002:00000118       __imp_TlsFree              00000001801d9118     kernel32:KERNEL32.dll
 0002:00000120       __imp_LoadLibraryExW       00000001801d9120     kernel32:KERNEL32.dll
 0002:00000128       __imp_EncodePointer        00000001801d9128     kernel32:KERNEL32.dll
 0002:00000130       __imp_RtlPcToFileHeader    00000001801d9130     kernel32:KERNEL32.dll
 0002:00000138       __imp_RtlUnwind            00000001801d9138     kernel32:KERNEL32.dll
 0002:00000140       __imp_GetCurrentProcess    00000001801d9140     kernel32:KERNEL32.dll
 0002:00000148       __imp_ExitProcess          00000001801d9148     kernel32:KERNEL32.dll
 0002:00000150       __imp_TerminateProcess     00000001801d9150     kernel32:KERNEL32.dll
 0002:00000158       __imp_GetModuleHandleExW   00000001801d9158     kernel32:KERNEL32.dll
 0002:00000160       __imp_GetModuleFileNameW   00000001801d9160     kernel32:KERNEL32.dll
 0002:00000168       __imp_HeapAlloc            00000001801d9168     kernel32:KERNEL32.dll
 0002:00000170       __imp_HeapFree             00000001801d9170     kernel32:KERNEL32.dll
 0002:00000178       __imp_FlsAlloc             00000001801d9178     kernel32:KERNEL32.dll
 0002:00000180       __imp_FlsGetValue          00000001801d9180     kernel32:KERNEL32.dll
 0002:00000188       __imp_FlsSetValue          00000001801d9188     kernel32:KERNEL32.dll
 0002:00000190       __imp_FlsFree              00000001801d9190     kernel32:KERNEL32.dll
 0002:00000198       __imp_LCMapStringW         00000001801d9198     kernel32:KERNEL32.dll
 0002:000001a0       __imp_GetStdHandle         00000001801d91a0     kernel32:KERNEL32.dll
 0002:000001a8       __imp_GetFileType          00000001801d91a8     kernel32:KERNEL32.dll
 0002:000001b0       __imp_FindClose            00000001801d91b0     kernel32:KERNEL32.dll
 0002:000001b8       __imp_FindFirstFileExW     00000001801d91b8     kernel32:KERNEL32.dll
 0002:000001c0       __imp_FindNextFileW        00000001801d91c0     kernel32:KERNEL32.dll
 0002:000001c8       __imp_IsValidCodePage      00000001801d91c8     kernel32:KERNEL32.dll
 0002:000001d0       __imp_GetACP               00000001801d91d0     kernel32:KERNEL32.dll
 0002:000001d8       __imp_GetOEMCP             00000001801d91d8     kernel32:KERNEL32.dll
 0002:000001e0       __imp_GetCPInfo            00000001801d91e0     kernel32:KERNEL32.dll
 0002:000001e8       __imp_GetCommandLineA      00000001801d91e8     kernel32:KERNEL32.dll
 0002:000001f0       __imp_GetCommandLineW      00000001801d91f0     kernel32:KERNEL32.dll
 0002:000001f8       __imp_MultiByteToWideChar  00000001801d91f8     kernel32:KERNEL32.dll
 0002:00000200       __imp_WideCharToMultiByte  00000001801d9200     kernel32:KERNEL32.dll
 0002:00000208       __imp_GetEnvironmentStringsW 00000001801d9208     kernel32:KERNEL32.dll
 0002:00000210       __imp_FreeEnvironmentStringsW 00000001801d9210     kernel32:KERNEL32.dll
 0002:00000218       __imp_GetProcessHeap       00000001801d9218     kernel32:KERNEL32.dll
 0002:00000220       __imp_FlushFileBuffers     00000001801d9220     kernel32:KERNEL32.dll
 0002:00000228       __imp_WriteFile            00000001801d9228     kernel32:KERNEL32.dll
 0002:00000230       __imp_GetConsoleOutputCP   00000001801d9230     kernel32:KERNEL32.dll
 0002:00000238       __imp_GetConsoleMode       00000001801d9238     kernel32:KERNEL32.dll
 0002:00000240       __imp_SetStdHandle         00000001801d9240     kernel32:KERNEL32.dll
 0002:00000248       __imp_GetFileSizeEx        00000001801d9248     kernel32:KERNEL32.dll
 0002:00000250       __imp_SetFilePointerEx     00000001801d9250     kernel32:KERNEL32.dll
 0002:00000258       __imp_GetStringTypeW       00000001801d9258     kernel32:KERNEL32.dll
 0002:00000260       __imp_HeapSize             00000001801d9260     kernel32:KERNEL32.dll
 0002:00000268       __imp_HeapReAlloc          00000001801d9268     kernel32:KERNEL32.dll
 0002:00000270       __imp_CloseHandle          00000001801d9270     kernel32:KERNEL32.dll
 0002:00000278       __imp_CreateFileW          00000001801d9278     kernel32:KERNEL32.dll
 0002:00000280       \177KERNEL32_NULL_THUNK_DATA 00000001801d9280     kernel32:KERNEL32.dll
 0002:00000288       __guard_check_icall_fptr   00000001801d9288     LIBCMT:guard_support.obj
 0002:00000290       __guard_xfg_check_icall_fptr 00000001801d9290     LIBCMT:guard_support.obj
 0002:00000298       __guard_dispatch_icall_fptr 00000001801d9298     LIBCMT:guard_support.obj
 0002:000002a0       __guard_xfg_dispatch_icall_fptr 00000001801d92a0     LIBCMT:guard_support.obj
 0002:000002a8       __guard_xfg_table_dispatch_icall_fptr 00000001801d92a8     LIBCMT:guard_support.obj
 0002:000002b0       __castguard_check_failure_os_handled_fptr 00000001801d92b0     LIBCMT:guard_support.obj
 0002:000002b8       __guard_memcpy_fptr        00000001801d92b8     libvcruntime:softmemtag.obj
 0002:000002c0       __xc_a                     00000001801d92c0     LIBCMT:initializers.obj
 0002:00001c98       __xc_z                     00000001801dac98     LIBCMT:initializers.obj
 0002:00001ca0       __xi_a                     00000001801daca0     LIBCMT:initializers.obj
 0002:00001ca8       __acrt_stdio_initializer   00000001801daca8     libucrt:stdio_initializer.obj
 0002:00001cb0       __acrt_tran_fma3_initializer 00000001801dacb0     libucrt:fma3_initializer.obj
 0002:00001cb8       __acrt_multibyte_initializer 00000001801dacb8     libucrt:multibyte_initializer.obj
 0002:00001cc0       __xi_z                     00000001801dacc0     LIBCMT:initializers.obj
 0002:00001cc8       __xp_a                     00000001801dacc8     LIBCMT:initializers.obj
 0002:00001cd0       __acrt_locale_terminator   00000001801dacd0     libucrt:locale_initializer.obj
 0002:00001cd8       __dcrt_console_output_terminator 00000001801dacd8     libucrt:console_output_initializer.obj
 0002:00001ce0       __acrt_stdio_terminator    00000001801dace0     libucrt:stdio_initializer.obj
 0002:00001ce8       __xp_z                     00000001801dace8     LIBCMT:initializers.obj
 0002:00001cf0       __xt_a                     00000001801dacf0     LIBCMT:initializers.obj
 0002:00001cf8       __xt_z                     00000001801dacf8     LIBCMT:initializers.obj
 0002:00001d00       ??_C@_08MDGMHCHN@PtrTable@ 00000001801dad00     CmPtrTable.obj
 0002:00001d0c       ??_C@_04GKJNKENE@void@     00000001801dad0c     CmPtrTable.obj
 0002:00001d18       ??_C@_07DFEBJDHE@mSingle@  00000001801dad18     CmPtrTable.obj
 0002:00001d20       ??_C@_05NLHHBMOH@PxU16@    00000001801dad20     CmPtrTable.obj
 0002:00001d28       ??_C@_06EPKHJPIM@mCount@   00000001801dad28     CmPtrTable.obj
 0002:00001d30       ??_C@_04DDKJGDCM@bool@     00000001801dad30     CmPtrTable.obj
 0002:00001d38       ??_C@_0M@DAGELID@mOwnsMemory@ 00000001801dad38     CmPtrTable.obj
 0002:00001d48       ??_C@_0M@MMPOMMLP@mBufferUsed@ 00000001801dad48     CmPtrTable.obj
 0002:00001d54       ??_C@_05LMJPANIN@PxU32@    00000001801dad54     CmPtrTable.obj
 0002:00001d60       ??_C@_09PMLNMEMN@mFreeSlot@ 00000001801dad60     CmPtrTable.obj
 0002:00001d70       ??_7PxCollection@physx@@6B@ 00000001801dad70     CmCollection.obj
 0002:00001df0       ??_C@_00CNPNBAHC@@         00000001801dadf0     CmCollection.obj
 0002:00001df8       ??_7Collection@Cm@physx@@6B@ 00000001801dadf8     CmCollection.obj
 0002:00001e80       ??_C@_0GE@GBACBMOC@PxCollection?3?3add?5called?5for?5an@ 00000001801dae80     CmCollection.obj
 0002:00001ef0       ??_C@_0GJ@IDEKJMKI@C?3?2Users?2mecha?2CLionProjects?2XP@ 00000001801daef0     CmCollection.obj
 0002:00001f60       ??_C@_0EM@OMMGDOMK@PxCollection?3?3add?5called?5with?5a@ 00000001801daf60     CmCollection.obj
 0002:00001fb0       ??_C@_0GL@BKHBBIC@C?3?2Users?2mecha?2CLionProjects?2XP@ 00000001801dafb0     CmCollection.obj
 0002:00002020       ??_C@_0BM@OIFKLHDN@?$DMallocation?5names?5disabled?$DO@ 00000001801db020     CmCollection.obj
 0002:00002040       ??_7RadixSort@Cm@physx@@6B@ 00000001801db040     CmRadixSort.obj
 0002:00002048       ??_7RadixSortBuffered@Cm@physx@@6B@ 00000001801db048     CmRadixSort.obj
 0002:00002050       ??_C@_0GI@EBIJANCG@C?3?2Users?2mecha?2CLionProjects?2XP@ 00000001801db050     CmRadixSort.obj
 0002:000020c0       __xmm@00000001000000010000000100000001 00000001801db0c0     CmRadixSort.obj
 0002:000020d0       __xmm@00000003000000020000000100000000 00000001801db0d0     CmRadixSort.obj
 0002:000020e0       __real@3d4ccccd            00000001801db0e0     CmVisualization.obj
 0002:000020e4       __real@3e19999a            00000001801db0e4     CmVisualization.obj
 0002:000020e8       __real@3e490fdb            00000001801db0e8     CmVisualization.obj
 0002:000020ec       __real@3e800000            00000001801db0ec     CmVisualization.obj
 0002:000020f0       __real@3e99999a            00000001801db0f0     CmVisualization.obj
 0002:000020f4       __real@3ea0d97c            00000001801db0f4     CmVisualization.obj
 0002:000020f8       __real@3eddb3d7            00000001801db0f8     CmVisualization.obj
 0002:000020fc       __real@3f3504f3            00000001801db0fc     CmVisualization.obj
 0002:00002100       __real@3f800000            00000001801db100     CmVisualization.obj
 0002:00002104       __real@3fc00000            00000001801db104     CmVisualization.obj
 0002:00002108       __real@3fddb3d7            00000001801db108     CmVisualization.obj
 0002:0000210c       __real@40100000            00000001801db10c     CmVisualization.obj
 0002:00002110       __real@40c90fdb            00000001801db110     CmVisualization.obj
 0002:00002114       __real@bfddb3d7            00000001801db114     CmVisualization.obj
 0002:00002118       __real@c0000000            00000001801db118     CmVisualization.obj
 0002:00002120       __xmm@3f800000000000000000000000000000 00000001801db120     CmVisualization.obj
 0002:00002130       __xmm@7fffffff7fffffff7fffffff7fffffff 00000001801db130     CmVisualization.obj
 0002:00002140       __xmm@80000000800000008000000080000000 00000001801db140     CmVisualization.obj
 0002:00002150       ??_C@_0BB@CPDDPFKD@GetUpdatedModule@ 00000001801db150     CmWindowsModuleUpdateLoader.obj
 0002:00002170       ??_C@_0IA@PLKFFDPA@C?3?2Users?2mecha?2CLionProjects?2XP@ 00000001801db170     CmWindowsModuleUpdateLoader.obj
 0002:000021f0       ??_C@_0CP@PGOIOJOO@?$CFs?3?$CFi?3?5loadLibrary?5error?5when?5l@ 00000001801db1f0     CmWindowsModuleUpdateLoader.obj
 0002:00002220       ??_C@_0BA@EGLNOO@PhysXFoundation@ 00000001801db220     CmWindowsDelayLoadHook.obj
 0002:00002230       ??_C@_0M@ILKNCJKN@PhysXCommon@ 00000001801db230     CmWindowsDelayLoadHook.obj
 0002:00002260       __real@3f000000            00000001801db260     GuBox.obj
 0002:00002264       __real@3f7ff972            00000001801db264     GuBox.obj
 0002:00002270       __xmm@000000003a83126f3a83126f3a83126f 00000001801db270     GuBox.obj
 0002:00002280       __xmm@00000000ba83126fba83126fba83126f 00000001801db280     GuBox.obj
 0002:00002290       __xmm@3a83126f3a83126f3a83126f3a83126f 00000001801db290     GuBox.obj
 0002:000022a0       __xmm@ba83126fba83126fba83126fba83126f 00000001801db2a0     GuBox.obj
 0002:000022d0       ??_7EntityReport@Gu@physx@@6B@ 00000001801db2d0     GuSweepsHF.obj
 0002:000022d0       ??_7OverlapCallback@PxBVH@physx@@6B@ 00000001801db2d0     GuQuerySystem.obj
 0002:000022d0       ??_7OverlapReport@Gu@physx@@6B@ 00000001801db2d0     GuCCTSweepTests.obj
 0002:000022d0       ??_7RaycastCallback@PxBVH@physx@@6B@ 00000001801db2d0     GuQuerySystem.obj
 0002:000022d0       ??_7RemapCallback@RTreeCooker@physx@@6B@ 00000001801db2d0     GuCookingTriangleMesh.obj
 0002:000022f0       __real@3b03126f            00000001801db2f0     GuCCTSweepTests.obj
 0002:000022f4       __real@40000000            00000001801db2f4     GuCCTSweepTests.obj
 0002:00002330       ??_7SupportLocal@Gu@physx@@6B@ 00000001801db330     GuGeometryQuery.obj
 0002:00002350       ??_7?$SupportLocalImpl@VBoxV@Gu@physx@@@Gu@physx@@6B@ 00000001801db350     GuGeometryQuery.obj
 0002:00002370       ??_7?$SupportLocalImpl@VConvexHullV@Gu@physx@@@Gu@physx@@6B@ 00000001801db370     GuGeometryQuery.obj
 0002:00002390       ??_C@_0GD@GNNJEEDM@C?3?2Users?2mecha?2CLionProjects?2XP@ 00000001801db390     GuGeometryQuery.obj
 0002:000023f4       __real@30d1b7e9            00000001801db3f4     GuGeometryQuery.obj
 0002:000023f8       __real@322bcc77            00000001801db3f8     GuGeometryQuery.obj
 0002:000023fc       __real@358637bd            00000001801db3fc     GuGeometryQuery.obj
 0002:00002400       __real@3a83126f            00000001801db400     GuGeometryQuery.obj
 0002:00002404       __real@3ccccccd            00000001801db404     GuGeometryQuery.obj
 0002:00002408       __real@3dcccccd            00000001801db408     GuGeometryQuery.obj
 0002:0000240c       __real@49742400            00000001801db40c     GuGeometryQuery.obj
 0002:00002410       __real@7f7fffff            00000001801db410     GuGeometryQuery.obj
 0002:00002414       __real@bf800000            00000001801db414     GuGeometryQuery.obj
 0002:00002420       __xmm@0000000000000000000000003f800000 00000001801db420     GuGeometryQuery.obj
 0002:00002430       __xmm@00000000000000003f80000000000000 00000001801db430     GuGeometryQuery.obj
 0002:00002440       __xmm@00000000000000003f8000003f800000 00000001801db440     GuGeometryQuery.obj
 0002:00002450       __xmm@000000003f8000000000000000000000 00000001801db450     GuGeometryQuery.obj
 0002:00002460       __xmm@000000003f8000003f8000003f800000 00000001801db460     GuGeometryQuery.obj
 0002:00002470       __xmm@00000000ffffffffffffffffffffffff 00000001801db470     GuGeometryQuery.obj
 0002:00002480       __xmm@3d4ccccd3d4ccccd3d4ccccd3d4ccccd 00000001801db480     GuGeometryQuery.obj
 0002:00002490       __xmm@3e19999a3e19999a3e19999a3e19999a 00000001801db490     GuGeometryQuery.obj
 0002:000024a0       __xmm@3e4ccccd3e4ccccd3e4ccccd3e4ccccd 00000001801db4a0     GuGeometryQuery.obj
 0002:000024b0       __xmm@3e8000003e8000003e8000003e800000 00000001801db4b0     GuGeometryQuery.obj
 0002:000024c0       __xmm@3f7ef9db3f7ef9db3f7ef9db3f7ef9db 00000001801db4c0     GuGeometryQuery.obj
 0002:000024d0       __xmm@3f7ff2e53f7ff2e53f7ff2e53f7ff2e5 00000001801db4d0     GuGeometryQuery.obj
 0002:000024e0       __xmm@7f7fffff7f7fffff7f7fffff7f7fffff 00000001801db4e0     GuGeometryQuery.obj
 0002:000024f0       __xmm@bf000000bf000000bf000000bf000000 00000001801db4f0     GuGeometryQuery.obj
 0002:00002520       ??_C@_0GN@OBHDNJEO@C?3?2Users?2mecha?2CLionProjects?2XP@ 00000001801db520     GuMeshFactory.obj
 0002:000025a0       ??_C@_0EM@BDFDGBD@Inserting?5object?5failed?3?5Object@ 00000001801db5a0     GuMeshFactory.obj
 0002:00002610       ??_7CallbackRaycast@RTree@Gu@physx@@6B@ 00000001801db610     GuMidphaseRTree.obj
 0002:00002610       ??_7CallbackRefit@RTree@Gu@physx@@6B@ 00000001801db610     GuTriangleMeshRTree.obj
 0002:00002610       ??_7PxInsertionCallback@physx@@6B@ 00000001801db610     GuMeshFactory.obj
 0002:00002620       ??_7PxCollisionMeshMappingData@physx@@6B@ 00000001801db620     GuMeshFactory.obj
 0002:00002630       ??_7MeshFactory@Gu@physx@@6B@ 00000001801db630     GuMeshFactory.obj
 0002:00002638       ??_7MeshDataBase@Gu@physx@@6B@ 00000001801db638     GuMeshFactory.obj
 0002:00002640       ??_C@_0GN@PKFNHMJ@C?3?2Users?2mecha?2CLionProjects?2XP@ 00000001801db640     GuMeshFactory.obj
 0002:000026b0       ??_7TriangleMeshData@Gu@physx@@6B@ 00000001801db6b0     GuMeshFactory.obj
 0002:000026b8       ??_7RTreeTriangleData@Gu@physx@@6B@ 00000001801db6b8     GuMeshFactory.obj
 0002:000026c0       ??_7BV4TriangleData@Gu@physx@@6B@ 00000001801db6c0     GuMeshFactory.obj
 0002:000026c8       ??_7SoftBodyCollisionData@Gu@physx@@6B@ 00000001801db6c8     GuMeshFactory.obj
 0002:000026d0       ??_7CollisionMeshMappingData@Gu@physx@@6B@ 00000001801db6d0     GuMeshFactory.obj
 0002:000026e0       ??_7SoftBodySimulationData@Gu@physx@@6B@ 00000001801db6e0     GuMeshFactory.obj
 0002:000026f0       ??_C@_0GP@NHELMDAL@Loading?5triangle?5mesh?5failed?3?5D@ 00000001801db6f0     GuMeshFactory.obj
 0002:00002760       ??_C@_0BP@CDOKDACA@RTree?5binary?5image?5load?5error?4@ 00000001801db760     GuMeshFactory.obj
 0002:00002780       ??_C@_0BN@MJPNIELF@BV4?5binary?5image?5load?5error?4@ 00000001801db780     GuMeshFactory.obj
 0002:000027a0       ??_C@_0BO@JDPABAOF@BV32?5binary?5image?5load?5error?4@ 00000001801db7a0     GuMeshFactory.obj
 0002:000027c0       ??_C@_0GD@GELEENEF@C?3?2Users?2mecha?2CLionProjects?2XP@ 00000001801db7c0     GuMeshFactory.obj
 0002:00002830       __xmm@fe7fffff7e7fffff7e7fffff7e7fffff 00000001801db830     GuMeshFactory.obj
 0002:00002860       ??_C@_06EJKDJEDO@PxBase@   00000001801db860     GuMetaData.obj
 0002:00002868       ??_C@_07GFCEJNGM@Valency@  00000001801db868     GuMetaData.obj
 0002:00002870       ??_C@_07NHGKEEIN@mOffset@  00000001801db870     GuMetaData.obj
 0002:00002878       ??_C@_0BB@BAGHBMNJ@BigConvexRawData@ 00000001801db878     GuMetaData.obj
 0002:00002890       ??_C@_07PBDEJAAC@mSubdiv@  00000001801db890     GuMetaData.obj
 0002:00002898       ??_C@_0L@HNPACPGH@mNbSamples@ 00000001801db898     GuMetaData.obj
 0002:000028a4       ??_C@_04NCKNBPPK@PxU8@     00000001801db8a4     GuMetaData.obj
 0002:000028b0       ??_C@_08DEPEKJNI@mSamples@ 00000001801db8b0     GuMetaData.obj
 0002:000028c0       ??_C@_08IJDNJBMI@mNbVerts@ 00000001801db8c0     GuMetaData.obj
 0002:000028d0       ??_C@_0M@MMKMIJAF@mNbAdjVerts@ 00000001801db8d0     GuMetaData.obj
 0002:000028e0       ??_C@_0L@EOKMNILC@mValencies@ 00000001801db8e0     GuMetaData.obj
 0002:000028f0       ??_C@_0P@DLGEAMHJ@mAdjacentVerts@ 00000001801db8f0     GuMetaData.obj
 0002:00002900       ??_C@_03NGLDENDA@SDF@      00000001801db900     GuMetaData.obj
 0002:00002904       ??_C@_06KDGGGLIJ@PxVec3@   00000001801db904     GuMetaData.obj
 0002:0000290c       ??_C@_06GIEBFILM@PxReal@   00000001801db90c     GuMetaData.obj
 0002:00002918       ??_C@_0O@PFOPBKAM@BigConvexData@ 00000001801db918     GuMetaData.obj
 0002:00002928       ??_C@_05PLKALGFN@mData@    00000001801db928     GuMetaData.obj
 0002:00002930       ??_C@_08PEMCLHEM@mVBuffer@ 00000001801db930     GuMetaData.obj
 0002:00002940       ??_C@_09FBMAGD@Alignment@  00000001801db940     GuMetaData.obj
 0002:00002950       ??_C@_0BE@KFHIBEEA@InternalObjectsData@ 00000001801db950     GuMetaData.obj
 0002:00002968       ??_C@_07NKGFFIBH@mRadius@  00000001801db968     GuMetaData.obj
 0002:00002970       ??_C@_08EHFCACAE@mExtents@ 00000001801db970     GuMetaData.obj
 0002:00002980       ??_C@_0BA@LFMGGCBK@HullPolygonData@ 00000001801db980     GuMetaData.obj
 0002:00002990       ??_C@_06BOHHGLB@mPlane@    00000001801db990     GuMetaData.obj
 0002:00002998       ??_C@_06EHMLHGLN@mVRef8@   00000001801db998     GuMetaData.obj
 0002:000029a0       ??_C@_09BAHHHINI@mMinIndex@ 00000001801db9a0     GuMetaData.obj
 0002:000029b0       ??_C@_0P@GBLBPIPB@ConvexHullData@ 00000001801db9b0     GuMetaData.obj
 0002:000029c0       ??_C@_09JDCJAPKD@PxBounds3@ 00000001801db9c0     GuMetaData.obj
 0002:000029cc       ??_C@_05NDNHIFA@mAABB@     00000001801db9cc     GuMetaData.obj
 0002:000029d8       ??_C@_0O@LNOGEMJI@mCenterOfMass@ 00000001801db9d8     GuMetaData.obj
 0002:000029e8       ??_C@_09CNMCBBKH@mPolygons@ 00000001801db9e8     GuMetaData.obj
 0002:000029f8       ??_C@_0BC@KKPDCFJC@mBigConvexRawData@ 00000001801db9f8     GuMetaData.obj
 0002:00002a10       ??_C@_08MPNAAJLD@mSdfData@ 00000001801dba10     GuMetaData.obj
 0002:00002a20       ??_C@_08ELDMKGKH@mNbEdges@ 00000001801dba20     GuMetaData.obj
 0002:00002a30       ??_C@_0BA@CGLOHBAC@mNbHullVertices@ 00000001801dba30     GuMetaData.obj
 0002:00002a40       ??_C@_0M@HGFFLLDM@mNbPolygons@ 00000001801dba40     GuMetaData.obj
 0002:00002a50       ??_C@_09BHJEMDGO@mInternal@ 00000001801dba50     GuMetaData.obj
 0002:00002a60       ??_C@_0L@GMFHOMKA@ConvexMesh@ 00000001801dba60     GuMetaData.obj
 0002:00002a70       ??_C@_09ILEBDLJH@mHullData@ 00000001801dba70     GuMetaData.obj
 0002:00002a7c       ??_C@_03DKDIKGNC@mNb@      00000001801dba7c     GuMetaData.obj
 0002:00002a80       ??_C@_0P@ENLHFHMD@mBigConvexData@ 00000001801dba80     GuMetaData.obj
 0002:00002a90       ??_C@_05ILALLCHK@mMass@    00000001801dba90     GuMetaData.obj
 0002:00002a98       ??_C@_07DBPDADGB@PxMat33@  00000001801dba98     GuMetaData.obj
 0002:00002aa0       ??_C@_08FNBHNDBI@mInertia@ 00000001801dbaa0     GuMetaData.obj
 0002:00002ab0       ??_C@_0O@FCKNKLMJ@GuMeshFactory@ 00000001801dbab0     GuMetaData.obj
 0002:00002ac0       ??_C@_0N@EGBCLMAK@mMeshFactory@ 00000001801dbac0     GuMetaData.obj
 0002:00002ad0       ??_C@_0BE@CJJAMAMK@PxHeightFieldSample@ 00000001801dbad0     GuMetaData.obj
 0002:00002ae4       ??_C@_05MBLIPEMA@PxI16@    00000001801dbae4     GuMetaData.obj
 0002:00002aec       ??_C@_06LNLHEAAG@height@   00000001801dbaec     GuMetaData.obj
 0002:00002af8       ??_C@_0N@HHDGHJN@PxBitAndByte@ 00000001801dbaf8     GuMetaData.obj
 0002:00002b08       ??_C@_0P@MBBMLBO@materialIndex0@ 00000001801dbb08     GuMetaData.obj
 0002:00002b18       ??_C@_0P@BFAKPKFP@materialIndex1@ 00000001801dbb18     GuMetaData.obj
 0002:00002b28       ??_C@_0BD@EBLPJEOE@PxHeightFieldFlags@ 00000001801dbb28     GuMetaData.obj
 0002:00002b40       ??_C@_0BK@FNNCFFCN@PxHeightFieldFormat?3?3Enum@ 00000001801dbb40     GuMetaData.obj
 0002:00002b60       ??_C@_0BA@CLNFMAAA@HeightFieldData@ 00000001801dbb60     GuMetaData.obj
 0002:00002b70       ??_C@_04IMCGAIPI@rows@     00000001801dbb70     GuMetaData.obj
 0002:00002b78       ??_C@_07HIFEPIJN@columns@  00000001801dbb78     GuMetaData.obj
 0002:00002b80       ??_C@_08MOAGOABI@rowLimit@ 00000001801dbb80     GuMetaData.obj
 0002:00002b90       ??_C@_08BAGEHOBO@colLimit@ 00000001801dbb90     GuMetaData.obj
 0002:00002ba0       ??_C@_09LKDBLADF@nbColumns@ 00000001801dbba0     GuMetaData.obj
 0002:00002bb0       ??_C@_07ODIFGGLK@samples@  00000001801dbbb0     GuMetaData.obj
 0002:00002bb8       ??_C@_0BE@POHEGOJG@convexEdgeThreshold@ 00000001801dbbb8     GuMetaData.obj
 0002:00002bcc       ??_C@_05GECEPKB@flags@     00000001801dbbcc     GuMetaData.obj
 0002:00002bd4       ??_C@_06DLEPGFEF@format@   00000001801dbbd4     GuMetaData.obj
 0002:00002be0       ??_C@_0BF@MOGDNMPL@PxMaterialTableIndex@ 00000001801dbbe0     GuMetaData.obj
 0002:00002bf8       ??_C@_0M@JMJICJJO@HeightField@ 00000001801dbbf8     GuMetaData.obj
 0002:00002c08       ??_C@_0O@ENGHMLJP@mSampleStride@ 00000001801dbc08     GuMetaData.obj
 0002:00002c18       ??_C@_0L@EBEEMFFB@mMinHeight@ 00000001801dbc18     GuMetaData.obj
 0002:00002c28       ??_C@_0L@EAEIFPOF@mMaxHeight@ 00000001801dbc28     GuMetaData.obj
 0002:00002c38       ??_C@_0N@FEFJOKKE@mModifyCount@ 00000001801dbc38     GuMetaData.obj
 0002:00002c48       ??_C@_09PHDKHCK@RTreePage@ 00000001801dbc48     GuMetaData.obj
 0002:00002c54       ??_C@_04LLPOBGED@minx@     00000001801dbc54     GuMetaData.obj
 0002:00002c5c       ??_C@_04KCOFCHAC@miny@     00000001801dbc5c     GuMetaData.obj
 0002:00002c64       ??_C@_04IJMIHEMB@minz@     00000001801dbc64     GuMetaData.obj
 0002:00002c6c       ??_C@_04GGOBOBGO@maxx@     00000001801dbc6c     GuMetaData.obj
 0002:00002c74       ??_C@_04HPPKNACP@maxy@     00000001801dbc74     GuMetaData.obj
 0002:00002c7c       ??_C@_04FENHIDOM@maxz@     00000001801dbc7c     GuMetaData.obj
 0002:00002c84       ??_C@_04HHDFEJON@ptrs@     00000001801dbc84     GuMetaData.obj
 0002:00002c8c       ??_C@_05FFEIGAJF@RTree@    00000001801dbc8c     GuMetaData.obj
 0002:00002c94       ??_C@_06OMCHPNEO@PxVec4@   00000001801dbc94     GuMetaData.obj
 0002:00002ca0       ??_C@_0L@NBIFEFLN@mBoundsMin@ 00000001801dbca0     GuMetaData.obj
 0002:00002cb0       ??_C@_0L@MDAOKBNC@mBoundsMax@ 00000001801dbcb0     GuMetaData.obj
 0002:00002cc0       ??_C@_0N@NJEHLCOF@mInvDiagonal@ 00000001801dbcc0     GuMetaData.obj
 0002:00002cd0       ??_C@_0BA@BEFIGPFG@mDiagonalScaler@ 00000001801dbcd0     GuMetaData.obj
 0002:00002ce0       ??_C@_09DICGGKGO@mPageSize@ 00000001801dbce0     GuMetaData.obj
 0002:00002cf0       ??_C@_0O@BOFFCNOL@mNumRootPages@ 00000001801dbcf0     GuMetaData.obj
 0002:00002d00       ??_C@_0L@JKLGBKAE@mNumLevels@ 00000001801dbd00     GuMetaData.obj
 0002:00002d10       ??_C@_0M@PHDOHJGK@mTotalNodes@ 00000001801dbd10     GuMetaData.obj
 0002:00002d20       ??_C@_0M@GDGHALAO@mTotalPages@ 00000001801dbd20     GuMetaData.obj
 0002:00002d2c       ??_C@_06MHCBBJGP@mFlags@   00000001801dbd2c     GuMetaData.obj
 0002:00002d34       ??_C@_06MMNBLHOK@mPages@   00000001801dbd34     GuMetaData.obj
 0002:00002d40       ??_C@_0P@JNLGHJNH@SourceMeshBase@ 00000001801dbd40     GuMetaData.obj
 0002:00002d50       ??_C@_06JFCLJMNN@mVerts@   00000001801dbd50     GuMetaData.obj
 0002:00002d58       ??_C@_05GNIIDDHH@mType@    00000001801dbd58     GuMetaData.obj
 0002:00002d60       ??_C@_06DHAAKLFK@mRemap@   00000001801dbd60     GuMetaData.obj
 0002:00002d68       ??_C@_0L@LEOGNOEC@SourceMesh@ 00000001801dbd68     GuMetaData.obj
 0002:00002d78       ??_C@_07MPIKOOAP@mNbTris@  00000001801dbd78     GuMetaData.obj
 0002:00002d80       ??_C@_0N@FBMOMEHF@mTriangles32@ 00000001801dbd80     GuMetaData.obj
 0002:00002d90       ??_C@_0N@DGCGNFBP@mTriangles16@ 00000001801dbd90     GuMetaData.obj
 0002:00002da0       ??_C@_0O@NLNHFNO@QuantizedAABB@ 00000001801dbda0     GuMetaData.obj
 0002:00002db0       ??_C@_0BC@OOGBEMHH@mData?$FL0?$FN?4mExtents@ 00000001801dbdb0     GuMetaData.obj
 0002:00002dc8       ??_C@_0BB@OCEDKIEF@mData?$FL0?$FN?4mCenter@ 00000001801dbdc8     GuMetaData.obj
 0002:00002de0       ??_C@_0BC@HFMEAABI@mData?$FL1?$FN?4mExtents@ 00000001801dbde0     GuMetaData.obj
 0002:00002df8       ??_C@_0BB@CDMNHHIF@mData?$FL1?$FN?4mCenter@ 00000001801dbdf8     GuMetaData.obj
 0002:00002e10       ??_C@_0BC@CFKNCOI@mData?$FL2?$FN?4mExtents@ 00000001801dbe10     GuMetaData.obj
 0002:00002e28       ??_C@_0BB@LKCPBBIE@mData?$FL2?$FN?4mCenter@ 00000001801dbe28     GuMetaData.obj
 0002:00002e40       ??_C@_0O@MJJKKPFN@BVDataPackedQ@ 00000001801dbe40     GuMetaData.obj
 0002:00002e50       ??_C@_0O@JFMLAIPJ@CenterExtents@ 00000001801dbe50     GuMetaData.obj
 0002:00002e60       ??_C@_07GNKDIIKJ@mCenter@  00000001801dbe60     GuMetaData.obj
 0002:00002e68       ??_C@_0P@KBMJDPLO@BVDataPackedNQ@ 00000001801dbe68     GuMetaData.obj
 0002:00002e78       ??_C@_0M@PNCEBOG@LocalBounds@ 00000001801dbe78     GuMetaData.obj
 0002:00002e84       ??_C@_05KNFBNCOH@float@    00000001801dbe84     GuMetaData.obj
 0002:00002e90       ??_C@_0BC@LADJKHPL@mExtentsMagnitude@ 00000001801dbe90     GuMetaData.obj
 0002:00002ea8       ??_C@_07HELIOLAF@BV4Tree@  00000001801dbea8     GuMetaData.obj
 0002:00002eb0       ??_C@_0P@EMMDNPMH@mMeshInterface@ 00000001801dbeb0     GuMetaData.obj
 0002:00002ec0       ??_C@_0N@DCKMHLCL@mLocalBounds@ 00000001801dbec0     GuMetaData.obj
 0002:00002ed0       ??_C@_08EEJOMIJL@mNbNodes@ 00000001801dbed0     GuMetaData.obj
 0002:00002edc       ??_C@_06FIIIMFIO@mNodes@   00000001801dbedc     GuMetaData.obj
 0002:00002ee8       ??_C@_09FGKNPI@mInitData@  00000001801dbee8     GuMetaData.obj
 0002:00002ef8       ??_C@_0BC@CLDEHKCO@mCenterOrMinCoeff@ 00000001801dbef8     GuMetaData.obj
 0002:00002f10       ??_C@_0BD@LAOLBNJ@mExtentsOrMaxCoeff@ 00000001801dbf10     GuMetaData.obj
 0002:00002f28       ??_C@_0P@JEECKKBL@mUserAllocated@ 00000001801dbf28     GuMetaData.obj
 0002:00002f38       ??_C@_0L@GLIMNECG@mQuantized@ 00000001801dbf38     GuMetaData.obj
 0002:00002f48       ??_C@_0L@CCOJDAID@mIsEdgeSet@ 00000001801dbf48     GuMetaData.obj
 0002:00002f58       ??_C@_08BNDBAGDH@mPadding@ 00000001801dbf58     GuMetaData.obj
 0002:00002f68       ??_C@_0N@OJNNNLIB@TriangleMesh@ 00000001801dbf68     GuMetaData.obj
 0002:00002f78       ??_C@_0M@OGEDMEAL@mNbVertices@ 00000001801dbf78     GuMetaData.obj
 0002:00002f88       ??_C@_0N@MGGDNHNI@mNbTriangles@ 00000001801dbf88     GuMetaData.obj
 0002:00002f98       ??_C@_09LNNEGOJA@mVertices@ 00000001801dbf98     GuMetaData.obj
 0002:00002fa8       ??_C@_0L@KBOFAKLO@mTriangles@ 00000001801dbfa8     GuMetaData.obj
 0002:00002fb8       ??_C@_0P@MHDFIHLD@mExtraTrigData@ 00000001801dbfb8     GuMetaData.obj
 0002:00002fc8       ??_C@_0N@MGIKKCI@mGeomEpsilon@ 00000001801dbfc8     GuMetaData.obj
 0002:00002fd8       ??_C@_0BB@IFLOOCNA@mMaterialIndices@ 00000001801dbfd8     GuMetaData.obj
 0002:00002ff0       ??_C@_0L@OPJMBFMI@mFaceRemap@ 00000001801dbff0     GuMetaData.obj
 0002:00003000       ??_C@_0N@BIOECAPM@mAdjacencies@ 00000001801dc000     GuMetaData.obj
 0002:00003010       ??_C@_09CICJHLPI@mEdgeList@ 00000001801dc010     GuMetaData.obj
 0002:00003020       ??_C@_0BD@IPKCNNIK@mLocalCenterOfMass@ 00000001801dc020     GuMetaData.obj
 0002:00003038       ??_C@_0BA@OCOIGPII@mGRB_triIndices@ 00000001801dc038     GuMetaData.obj
 0002:00003048       ??_C@_0BE@JPINNDAH@mGRB_triAdjacencies@ 00000001801dc048     GuMetaData.obj
 0002:00003060       ??_C@_0P@EDFJJHEF@mGRB_faceRemap@ 00000001801dc060     GuMetaData.obj
 0002:00003070       ??_C@_0BG@EEALPPCP@mGRB_faceRemapInverse@ 00000001801dc070     GuMetaData.obj
 0002:00003088       ??_C@_0O@CKMBAIFN@mGRB_BV32Tree@ 00000001801dc088     GuMetaData.obj
 0002:00003098       ??_C@_0BE@MGIOIICI@mSdfData?4mMeshLower@ 00000001801dc098     GuMetaData.obj
 0002:000030b0       ??_C@_0BC@NNEDELGI@mSdfData?4mSpacing@ 00000001801dc0b0     GuMetaData.obj
 0002:000030c8       ??_C@_0BB@OHOFDAIL@mSdfData?4mDims?4x@ 00000001801dc0c8     GuMetaData.obj
 0002:000030e0       ??_C@_0BB@POPOABMK@mSdfData?4mDims?4y@ 00000001801dc0e0     GuMetaData.obj
 0002:000030f8       ??_C@_0BB@NFNDFCAJ@mSdfData?4mDims?4z@ 00000001801dc0f8     GuMetaData.obj
 0002:00003110       ??_C@_0BC@GMPBGGPI@mSdfData?4mNumSdfs@ 00000001801dc110     GuMetaData.obj
 0002:00003128       ??_C@_0O@BCEBBLNE@mSdfData?4mSdf@ 00000001801dc128     GuMetaData.obj
 0002:00003138       ??_C@_0BG@HMHEFHIE@mSdfData?4mSubgridSize@ 00000001801dc138     GuMetaData.obj
 0002:00003150       ??_C@_0BI@OFJBKPGB@mSdfData?4mNumStartSlots@ 00000001801dc150     GuMetaData.obj
 0002:00003168       ??_C@_0BM@MGEPBEON@mSdfData?4mSubgridStartSlots@ 00000001801dc168     GuMetaData.obj
 0002:00003188       ??_C@_0BJ@PKKGJLNM@mSdfData?4mNumSubgridSdfs@ 00000001801dc188     GuMetaData.obj
 0002:000031a8       ??_C@_0BF@HLMPGIBH@mSdfData?4mSubgridSdf@ 00000001801dc1a8     GuMetaData.obj
 0002:000031c0       ??_C@_0CF@GMJNHGOK@mSdfData?4mSdfSubgrids3DTexBlock@ 00000001801dc1c0     GuMetaData.obj
 0002:000031e8       ??_C@_0CF@HFIGEHKL@mSdfData?4mSdfSubgrids3DTexBlock@ 00000001801dc1e8     GuMetaData.obj
 0002:00003210       ??_C@_0CF@FOKLBEGI@mSdfData?4mSdfSubgrids3DTexBlock@ 00000001801dc210     GuMetaData.obj
 0002:00003238       ??_C@_0BO@EIPCIOJH@mSdfData?4mSubgridsMinSdfValue@ 00000001801dc238     GuMetaData.obj
 0002:00003258       ??_C@_0BO@NIIBJOHN@mSdfData?4mSubgridsMaxSdfValue@ 00000001801dc258     GuMetaData.obj
 0002:00003278       ??_C@_0BO@GKGODKFG@mSdfData?4mBytesPerSparsePixel@ 00000001801dc278     GuMetaData.obj
 0002:00003298       ??_C@_0BJ@LEBGJKBE@mAccumulatedTrianglesRef@ 00000001801dc298     GuMetaData.obj
 0002:000032b8       ??_C@_0BF@OJMCNCDP@mTrianglesReferences@ 00000001801dc2b8     GuMetaData.obj
 0002:000032d0       ??_C@_0BH@LDGPOFA@mNbTrianglesReferences@ 00000001801dc2d0     GuMetaData.obj
 0002:000032e8       ??_C@_0BC@IFGECKF@RTreeTriangleMesh@ 00000001801dc2e8     GuMetaData.obj
 0002:000032fc       ??_C@_06JDIHDDGN@mRTree@   00000001801dc2fc     GuMetaData.obj
 0002:00003308       ??_C@_0BA@LNNFPOKA@BV4TriangleMesh@ 00000001801dc308     GuMetaData.obj
 0002:00003318       ??_C@_08FKLPEGDB@mBV4Tree@ 00000001801dc318     GuMetaData.obj
 0002:00003328       ??_7?$SupportLocalImpl@VConvexHullNoScaleV@Gu@physx@@@Gu@physx@@6B@ 00000001801dc328     GuMTD.obj
 0002:00003370       ?absMask@?1??FAbs@aos@physx@@YA?AT__m128@@T4@@Z@4QBIB 00000001801dc370     GuMTD.obj
 0002:00003380       ??_7GjkConvex@Gu@physx@@6B@ 00000001801dc380     GuMTD.obj
 0002:000033b0       ??_7?$LocalConvex@VCapsuleV@Gu@physx@@@Gu@physx@@6B@ 00000001801dc3b0     GuMTD.obj
 0002:000033e0       ??_7?$LocalConvex@VConvexHullV@Gu@physx@@@Gu@physx@@6B@ 00000001801dc3e0     GuMTD.obj
 0002:00003410       __real@2edbe6ff            00000001801dc410     GuMTD.obj
 0002:00003414       __real@34000000            00000001801dc414     GuMTD.obj
 0002:00003418       __real@ff7fffff            00000001801dc418     GuMTD.obj
 0002:00003420       __xmm@34000000340000003400000034000000 00000001801dc420     GuMTD.obj
 0002:00003430       __xmm@358637bd358637bd358637bd358637bd 00000001801dc430     GuMTD.obj
 0002:00003440       __xmm@3dcccccd3dcccccd3dcccccd3dcccccd 00000001801dc440     GuMTD.obj
 0002:00003450       __xmm@3f7ff1413f7ff1413f7ff1413f7ff141 00000001801dc450     GuMTD.obj
 0002:00003460       __xmm@3f8000003f8000003f8000003f800000 00000001801dc460     GuMTD.obj
 0002:00003490       ??_7?$RelativeConvex@VBoxV@Gu@physx@@@Gu@physx@@6B@ 00000001801dc490     GuOverlapTests.obj
 0002:000034c0       ??_7?$RelativeConvex@VConvexHullV@Gu@physx@@@Gu@physx@@6B@ 00000001801dc4c0     GuOverlapTests.obj
 0002:00003520       __real@1e3ce508            00000001801dc520     GuRaycastTests.obj
 0002:00003524       __real@28800000            00000001801dc524     GuRaycastTests.obj
 0002:00003528       __real@33d6bf95            00000001801dc528     GuRaycastTests.obj
 0002:0000352c       __real@3727c5ac            00000001801dc52c     GuRaycastTests.obj
 0002:00003530       __real@38d1b717            00000001801dc530     GuRaycastTests.obj
 0002:00003534       __real@3f0147ae            00000001801dc534     GuRaycastTests.obj
 0002:00003538       __real@3f7ffffe            00000001801dc538     GuRaycastTests.obj
 0002:0000353c       __real@3f800347            00000001801dc53c     GuRaycastTests.obj
 0002:00003540       __real@41200000            00000001801dc540     GuRaycastTests.obj
 0002:00003544       __real@80000000            00000001801dc544     GuRaycastTests.obj
 0002:00003548       __real@b3d6bf95            00000001801dc548     GuRaycastTests.obj
 0002:0000354c       __real@b8d1b717            00000001801dc54c     GuRaycastTests.obj
 0002:00003550       __real@c1200000            00000001801dc550     GuRaycastTests.obj
 0002:00003590       ??_7?$MeshHitCallback@UPxGeomRaycastHit@physx@@@Gu@physx@@6B@ 00000001801dc590     GuSweepMTD.obj
 0002:000035a0       ??_7MeshMTDGenerationCallback@@6B@ 00000001801dc5a0     GuSweepMTD.obj
 0002:000035b0       ??_7MidPhaseQueryLocalReport@@6B@ 00000001801dc5b0     GuSweepMTD.obj
 0002:000035c0       __real@3f8147ae            00000001801dc5c0     GuSweepMTD.obj
 0002:000035c4       __real@3f933333            00000001801dc5c4     GuSweepMTD.obj
 0002:000035f0       __real@3c23d70a            00000001801dc5f0     GuSweepSharedTests.obj
 0002:000035f4       __real@42c80000            00000001801dc5f4     GuSweepSharedTests.obj
 0002:00003600       __xmm@ffffffffffffffffffffffffffffffff 00000001801dc600     GuSweepSharedTests.obj
 0002:00003630       ??_7?$LocalConvex@VBoxV@Gu@physx@@@Gu@physx@@6B@ 00000001801dc630     GuSweepTests.obj
 0002:00003660       ??_7?$LocalConvex@VTriangleV@Gu@physx@@@Gu@physx@@6B@ 00000001801dc660     GuSweepTests.obj
 0002:00003690       __real@00000000            00000001801dc690     GuSweepTests.obj
 0002:000036a0       __xmm@00000002000000020000000200000002 00000001801dc6a0     GuSweepTests.obj
 0002:000036b0       __xmm@3eaaaa9f3eaaaa9f3eaaaa9f3eaaaa9f 00000001801dc6b0     GuSweepTests.obj
 0002:00003768       ??_7PxRunnable@physx@@6B@  00000001801dc768     GuSDF.obj
 0002:00003780       ??_C@_0GF@HDOMHLJG@C?3?2Users?2mecha?2CLionProjects?2XP@ 00000001801dc780     GuSDF.obj
 0002:000037e8       ??_7PointOntoTriangleMeshProjector@Gu@physx@@6B@ 00000001801dc7e8     GuSDF.obj
 0002:00003800       ??_7?$PxThreadT@V?$PxReflectionAllocator@VPxThreadImpl@physx@@@physx@@@physx@@6B@ 00000001801dc800     GuSDF.obj
 0002:00003810       ??_C@_06FJHNOCKE@thread@   00000001801dc810     GuSDF.obj
 0002:00003820       ??_C@_0BAK@OPLLKLNG@SDF?5creation?3?5Mesh?5is?5not?5suita@ 00000001801dc820     GuSDF.obj
 0002:00003930       ??_C@_0FB@OMEANACP@SDF?5creation?3?5Input?5mesh?5is?5not@ 00000001801dc930     GuSDF.obj
 0002:00003990       ??_C@_0GE@MCLFLJMP@C?3?2Users?2mecha?2CLionProjects?2XP@ 00000001801dc990     GuSDF.obj
 0002:00003a00       ??_C@_0GC@KANHNFMG@C?3?2Users?2mecha?2CLionProjects?2XP@ 00000001801dca00     GuSDF.obj
 0002:00003a70       ??_C@_0GL@ODJKOCID@C?3?2Users?2mecha?2CLionProjects?2XP@ 00000001801dca70     GuSDF.obj
 0002:00003adc       __real@37800080            00000001801dcadc     GuSDF.obj
 0002:00003ae0       __real@3b808081            00000001801dcae0     GuSDF.obj
 0002:00003ae4       __real@3e2aaaab            00000001801dcae4     GuSDF.obj
 0002:00003ae8       __real@3eaaaaab            00000001801dcae8     GuSDF.obj
 0002:00003aec       __real@3f400000            00000001801dcaec     GuSDF.obj
 0002:00003af0       __real@3f7d70a4            00000001801dcaf0     GuSDF.obj
 0002:00003af4       __real@4996b438            00000001801dcaf4     GuSDF.obj
 0002:00003af8       __real@7e7fffff            00000001801dcaf8     GuSDF.obj
 0002:00003afc       __real@bf000000            00000001801dcafc     GuSDF.obj
 0002:00003b00       __real@fe7fffff            00000001801dcb00     GuSDF.obj
 0002:00003b10       __xmm@00000001000000010000000100000000 00000001801dcb10     GuSDF.obj
 0002:00003b20       __real@437f0000            00000001801dcb20     GuCookingSDF.obj
 0002:00003b24       __real@477fff00            00000001801dcb24     GuCookingSDF.obj
 0002:00003b50       ??_7?$RelativeConvex@UCustomConvexV@@@Gu@physx@@6B@ 00000001801dcb50     GuGjkQuery.obj
 0002:00003b80       ??_7?$LocalConvex@UCustomConvexV@@@Gu@physx@@6B@ 00000001801dcb80     GuGjkQuery.obj
 0002:00003bb0       ??_7?$LocalConvex@UPointConvexV@@@Gu@physx@@6B@ 00000001801dcbb0     GuGjkQuery.obj
 0002:00003be0       __xmm@3f0000003f0000003f0000003f000000 00000001801dcbe0     GuGjkQuery.obj
 0002:00003c10       __real@3da2f983            00000001801dcc10     GuWindingNumber.obj
 0002:00003c14       __real@3e22f983            00000001801dcc14     GuWindingNumber.obj
 0002:00003c18       __real@3f99999a            00000001801dcc18     GuWindingNumber.obj
 0002:00003c80       __real@3c343958            00000001801dcc80     GuCCDSweepConvexMesh.obj
 0002:00003c84       __real@3ca3d70a            00000001801dcc84     GuCCDSweepConvexMesh.obj
 0002:00003c88       __real@3f0ccccd            00000001801dcc88     GuCCDSweepConvexMesh.obj
 0002:00003c8c       __real@3f8ccccd            00000001801dcc8c     GuCCDSweepConvexMesh.obj
 0002:00003c90       __real@b58637bd            00000001801dcc90     GuCCDSweepConvexMesh.obj
 0002:00003cc0       ??_7?$RelativeConvex@VCapsuleV@Gu@physx@@@Gu@physx@@6B@ 00000001801dccc0     GuCCDSweepPrimitives.obj
 0002:00003cf0       ??_7?$RelativeConvex@VTriangleV@Gu@physx@@@Gu@physx@@6B@ 00000001801dccf0     GuCCDSweepPrimitives.obj
 0002:00003d20       __real@3ba3d70a            00000001801dcd20     GuCCDSweepPrimitives.obj
 0002:00003d24       __real@501502f9            00000001801dcd24     GuCCDSweepPrimitives.obj
 0002:00003d50       ??_C@_0HE@LDCBHDDP@C?3?2Users?2mecha?2CLionProjects?2XP@ 00000001801dcd50     GuAdjacencies.obj
 0002:00003dc8       ??_C@_0DA@FMEHLBKI@Adjacencies?3?3UpdateLink?3?5invali@ 00000001801dcdc8     GuAdjacencies.obj
 0002:00003e00       ??_C@_0EA@CPHOACLK@Adjacencies?3?3CreateDatabase?3?5ca@ 00000001801dce00     GuAdjacencies.obj
 0002:00003e40       ??_C@_0HB@PIEGKINK@C?3?2Users?2mecha?2CLionProjects?2XP@ 00000001801dce40     GuEdgeList.obj
 0002:00003eb8       ??_C@_0CO@GBNJFPN@EdgeList?3?3CreateFacesToEdges?3?5N@ 00000001801dceb8     GuEdgeList.obj
 0002:00003ee8       ??_C@_0CO@EHJBBMNK@EdgeList?3?3ComputeActiveEdges?3?5N@ 00000001801dcee8     GuEdgeList.obj
 0002:00003f18       ??_C@_0DI@GBHLFOFP@ActiveEdges?3?3ComputeConvexEdges@ 00000001801dcf18     GuEdgeList.obj
 0002:00003f50       ??_C@_0DM@JOGBLHDI@ActiveEdges?3?3ComputeConvexEdges@ 00000001801dcf50     GuEdgeList.obj
 0002:00003f90       ??_C@_0ED@FEMJKPEL@ActiveEdges?3?3ComputeConvexEdges@ 00000001801dcf90     GuEdgeList.obj
 0002:00003fe0       ??_C@_0EB@BFDPMFCD@ActiveEdges?3?3ComputeConvexEdges@ 00000001801dcfe0     GuEdgeList.obj
 0002:00004024       __real@bf7fbe77            00000001801dd024     GuEdgeList.obj
 0002:00004028       ??_7Quantizer@Gu@physx@@6B@ 00000001801dd028     GuQuantizer.obj
 0002:00004050       ??_7QuantizerImpl@@6B@     00000001801dd050     GuQuantizer.obj
 0002:00004080       ??_C@_0HC@KPBDAIIA@C?3?2Users?2mecha?2CLionProjects?2XP@ 00000001801dd080     GuQuantizer.obj
 0002:000040f4       __real@3f0020c5            00000001801dd0f4     GuQuantizer.obj
 0002:000040f8       __real@3f8020c5            00000001801dd0f8     GuQuantizer.obj
 0002:00004100       ??_C@_0HE@JGHKFOGL@C?3?2Users?2mecha?2CLionProjects?2XP@ 00000001801dd100     GuMeshCleaner.obj
 0002:00004174       __real@40800000            00000001801dd174     GuMeshCleaner.obj
 0002:00004180       ??_C@_0HG@NMBFAIEP@C?3?2Users?2mecha?2CLionProjects?2XP@ 00000001801dd180     GuVertexReducer.obj
 0002:000042f0       __real@3f7fbe77            00000001801dd2f0     GuContactBoxBox.obj
 0002:00004340       __real@3f7ff2e5            00000001801dd340     GuContactCapsuleCapsule.obj
 0002:000043d0       __real@358637be            00000001801dd3d0     GuContactCapsuleMesh.obj
 0002:000043d4       __real@ba83126f            00000001801dd3d4     GuContactCapsuleMesh.obj
 0002:00004430       ??_7ConvexMeshContactGenerationCallback@@6B@ 00000001801dd430     GuContactConvexMesh.obj
 0002:000044b0       __real@3ec90fdb            00000001801dd4b0     GuContactPolygonPolygon.obj
 0002:000044b4       __real@3f490fdb            00000001801dd4b4     GuContactPolygonPolygon.obj
 0002:000044b8       __real@3f96cbe4            00000001801dd4b8     GuContactPolygonPolygon.obj
 0002:000044bc       __real@3fc90fdb            00000001801dd4bc     GuContactPolygonPolygon.obj
 0002:000044c0       __real@3ffb53d2            00000001801dd4c0     GuContactPolygonPolygon.obj
 0002:000044c4       __real@4016cbe4            00000001801dd4c4     GuContactPolygonPolygon.obj
 0002:000044c8       __real@402feddf            00000001801dd4c8     GuContactPolygonPolygon.obj
 0002:00004530       ??_C@_0HG@IOJGGMGL@C?3?2Users?2mecha?2CLionProjects?2XP@ 00000001801dd530     GuBigConvexData.obj
 0002:000045d0       ??_C@_0N@CDGINLLF@PxConvexMesh@ 00000001801dd5d0     GuConvexMesh.obj
 0002:000045e0       ??_7PxBase@physx@@6B@      00000001801dd5e0     GuConvexMesh.obj
 0002:00004608       ??_C@_0CE@IDAGNPDH@isKindOf?5called?5with?5invalid?5st@ 00000001801dd608     GuConvexMesh.obj
 0002:00004630       ??_C@_0N@OPPDBGAG@PxRefCounted@ 00000001801dd630     GuConvexMesh.obj
 0002:00004640       ??_C@_0GG@PKAEDAEP@C?3?2Users?2mecha?2CLionProjects?2XP@ 00000001801dd640     GuConvexMesh.obj
 0002:000046a8       ??_7ConvexMesh@Gu@physx@@6B@ 00000001801dd6a8     GuConvexMesh.obj
 0002:00004740       ??_C@_0HD@DCCLBBFE@C?3?2Users?2mecha?2CLionProjects?2XP@ 00000001801dd740     GuConvexMesh.obj
 0002:000047b8       ??_C@_0DM@NEJKOFIP@Loading?5convex?5mesh?5failed?3?5Dep@ 00000001801dd7b8     GuConvexMesh.obj
 0002:000047f8       ??_C@_0DB@PAHEPIEL@PxConvexMesh?3?3release?3?5double?5d@ 00000001801dd7f8     GuConvexMesh.obj
 0002:00004830       ??_C@_0GL@PFDJFCAI@C?3?2Users?2mecha?2CLionProjects?2XP@ 00000001801dd830     GuConvexMesh.obj
 0002:000048c0       __xmm@000000000000000000000000ffffffff 00000001801dd8c0     GuConvexSupportTable.obj
 0002:000048d0       __xmm@0000000000000000ffffffff00000000 00000001801dd8d0     GuConvexSupportTable.obj
 0002:000048e0       __xmm@0000000000000000ffffffffffffffff 00000001801dd8e0     GuConvexSupportTable.obj
 0002:000048f0       __xmm@00000000ffffffff0000000000000000 00000001801dd8f0     GuConvexSupportTable.obj
 0002:00004900       __xmm@00000000ffffffff00000000ffffffff 00000001801dd900     GuConvexSupportTable.obj
 0002:00004910       __xmm@00000000ffffffffffffffff00000000 00000001801dd910     GuConvexSupportTable.obj
 0002:000049a0       __xmm@2b8cbccc2b8cbccc2b8cbccc2b8cbccc 00000001801dd9a0     GuDistancePointTriangle.obj
 0002:00004a10       __real@2b8cbccc            00000001801dda10     GuDistanceSegmentTriangle.obj
 0002:00004a20       __xmm@3f8000013f8000013f8000013f800001 00000001801dda20     GuDistanceSegmentTriangle.obj
 0002:00004a30       __xmm@b4000000b4000000b4000000b4000000 00000001801dda30     GuDistanceSegmentTriangle.obj
 0002:00004a60       __real@26901d7d            00000001801dda60     GuDistanceTriangleTriangle.obj
 0002:00004ae0       __xmm@38d1b71738d1b71738d1b71738d1b717 00000001801ddae0     GuGJKSimplex.obj
 0002:00004b10       ??_C@_0O@PBAKPCEC@PxHeightField@ 00000001801ddb10     GuHeightField.obj
 0002:00004b20       ??_C@_0GH@MILBGDK@C?3?2Users?2mecha?2CLionProjects?2XP@ 00000001801ddb20     GuHeightField.obj
 0002:00004b88       ??_7HeightField@Gu@physx@@6B@ 00000001801ddb88     GuHeightField.obj
 0002:00004c40       ??_C@_0DC@BDMMBOKH@PxHeightField?3?3release?3?5double?5@ 00000001801ddc40     GuHeightField.obj
 0002:00004c80       ??_C@_0HA@LHLKGDMO@C?3?2Users?2mecha?2CLionProjects?2XP@ 00000001801ddc80     GuHeightField.obj
 0002:00004cf0       ??_C@_0CI@DMKEKGNK@Gu?3?3HeightField?3?3load?3?5PX_ALLOC@ 00000001801ddcf0     GuHeightField.obj
 0002:00004d20       ??_C@_0GE@IGJBPAAD@C?3?2Users?2mecha?2CLionProjects?2XP@ 00000001801ddd20     GuHeightField.obj
 0002:00004db0       __real@3a03126f            00000001801dddb0     GuHeightFieldUtil.obj
 0002:00004db4       __real@3f19999a            00000001801dddb4     GuHeightFieldUtil.obj
 0002:00004dc0       __xmm@40000000000000000000000000000000 00000001801dddc0     GuHeightFieldUtil.obj
 0002:00004e50       ??_7HeightFieldTraceSegmentReport@@6B@ 00000001801dde50     GuSweepsHF.obj
 0002:00004e60       ??_7CapsuleTraceSegmentReport@@6B@ 00000001801dde60     GuSweepsHF.obj
 0002:00004e70       ??_7ConvexTraceSegmentReport@@6B@ 00000001801dde70     GuSweepsHF.obj
 0002:00004e80       ??_7BoxTraceSegmentReport@@6B@ 00000001801dde80     GuSweepsHF.obj
 0002:00004e90       __real@aedbe6ff            00000001801dde90     GuSweepsHF.obj
 0002:00004ec0       __real@3089705f            00000001801ddec0     GuIntersectionRayBox.obj
 0002:00004ec4       __real@b4000000            00000001801ddec4     GuIntersectionRayBox.obj
 0002:00004ed0       __xmm@000000003089705f3089705f3089705f 00000001801dded0     GuIntersectionRayBox.obj
 0002:00004ee0       __xmm@00000000bf800000bf800000bf800000 00000001801ddee0     GuIntersectionRayBox.obj
 0002:00004f30       ??_7SourceMeshBase@Gu@physx@@6B@ 00000001801ddf30     GuBV4.obj
 0002:00004f58       ??_7SourceMesh@Gu@physx@@6B@ 00000001801ddf58     GuBV4.obj
 0002:00004f80       ??_7TetrahedronSourceMesh@Gu@physx@@6B@ 00000001801ddf80     GuBV4.obj
 0002:00004fb0       ??_C@_0GK@HBMBJIJ@C?3?2Users?2mecha?2CLionProjects?2XP@ 00000001801ddfb0     GuBV4.obj
 0002:00005020       __xmm@ff7fffffff7fffffff7fffffff7fffff 00000001801de020     GuBV4.obj
 0002:00005050       ??_C@_0GP@KDNIJAPI@C?3?2Users?2mecha?2CLionProjects?2XP@ 00000001801de050     GuBV4Build.obj
 0002:000050c0       __real@38000100            00000001801de0c0     GuBV4Build.obj
 0002:000050c4       __real@3e93cd3a            00000001801de0c4     GuBV4Build.obj
 0002:000050c8       __real@46fffe00            00000001801de0c8     GuBV4Build.obj
 0002:000050cc       __real@be93cd3a            00000001801de0cc     GuBV4Build.obj
 0002:000050f0       __xmm@0000ffff0000ffff0000ffff0000ffff 00000001801de0f0     GuBV4_AABBSweep.obj
 0002:00005100       __xmm@3089705f3089705f3089705f3089705f 00000001801de100     GuBV4_AABBSweep.obj
 0002:00005110       __xmm@33d6bf9533d6bf9533d6bf9533d6bf95 00000001801de110     GuBV4_AABBSweep.obj
 0002:00005120       __xmm@40000000400000004000000040000000 00000001801de120     GuBV4_AABBSweep.obj
 0002:000051b0       __xmm@322bcc77322bcc77322bcc77322bcc77 00000001801de1b0     GuBV4_MeshMeshOverlap.obj
 0002:00005220       __real@4f7fffff            00000001801de220     GuBV4_SphereOverlap.obj
 0002:00005270       __xmm@000000007f7fffff0000000000000000 00000001801de270     GuMidphaseBV4.obj
 0002:000052e0       ??_C@_0FD@EHCCILIF@Adjacency?5information?5not?5creat@ 00000001801de2e0     GuMeshQuery.obj
 0002:00005340       ??_C@_0HA@LEFCJLKF@C?3?2Users?2mecha?2CLionProjects?2XP@ 00000001801de340     GuMeshQuery.obj
 0002:000053b0       ??_C@_0FL@BKNMAHIA@PxMeshQuery?3?3findOverlapTriangl@ 00000001801de3b0     GuMeshQuery.obj
 0002:00005410       ??_C@_0BA@MBAFFELP@MeshQuery?4sweep@ 00000001801de410     GuMeshQuery.obj
 0002:00005420       __real@4cbebc20            00000001801de420     GuMeshQuery.obj
 0002:00005450       ??_7Callback@RTree@Gu@physx@@6B@ 00000001801de450     GuMidphaseRTree.obj
 0002:00005468       ??_7?$RayRTreeCallback@$00$0A@@@6BCallbackRaycast@RTree@Gu@physx@@@ 00000001801de468     GuMidphaseRTree.obj
 0002:00005468       ??_7?$RayRTreeCallback@$0A@$0A@@@6BCallbackRaycast@RTree@Gu@physx@@@ 00000001801de468     GuMidphaseRTree.obj
 0002:00005478       ??_7?$RayRTreeCallback@$00$0A@@@6BCallback@RTree@Gu@physx@@@ 00000001801de478     GuMidphaseRTree.obj
 0002:00005478       ??_7?$RayRTreeCallback@$0A@$0A@@@6BCallback@RTree@Gu@physx@@@ 00000001801de478     GuMidphaseRTree.obj
 0002:00005490       ??_7RayMeshColliderCallback@@6B@ 00000001801de490     GuMidphaseRTree.obj
 0002:000054a0       ??_C@_0EN@DPPFLBLF@Point?9mesh?5distance?5query?5not?5s@ 00000001801de4a0     GuMidphaseRTree.obj
 0002:000054f0       ??_C@_0HE@PHPJJNEN@C?3?2Users?2mecha?2CLionProjects?2XP@ 00000001801de4f0     GuMidphaseRTree.obj
 0002:00005568       ??_7?$RayRTreeCallback@$0A@$00@@6BCallbackRaycast@RTree@Gu@physx@@@ 00000001801de568     GuMidphaseRTree.obj
 0002:00005578       ??_7?$RayRTreeCallback@$0A@$00@@6BCallback@RTree@Gu@physx@@@ 00000001801de578     GuMidphaseRTree.obj
 0002:00005590       ??_7?$RayRTreeCallback@$00$00@@6BCallbackRaycast@RTree@Gu@physx@@@ 00000001801de590     GuMidphaseRTree.obj
 0002:000055a0       ??_7?$RayRTreeCallback@$00$00@@6BCallback@RTree@Gu@physx@@@ 00000001801de5a0     GuMidphaseRTree.obj
 0002:00005620       __xmm@7f7fffff000000000000000000000000 00000001801de620     GuMidphaseRTree.obj
 0002:000056a0       ??_7?$PxReportCallback@UPxGeomIndexPair@physx@@@physx@@6B@ 00000001801de6a0     GuOverlapTestsMesh.obj
 0002:000056c0       ??_C@_0EP@CEFGCJKJ@PxGeometryQuery?3?3overlap?$CI?$CJ?3?5onl@ 00000001801de6c0     GuOverlapTestsMesh.obj
 0002:00005710       ??_C@_0HH@ECJGEBGI@C?3?2Users?2mecha?2CLionProjects?2XP@ 00000001801de710     GuOverlapTestsMesh.obj
 0002:000057b0       ?MN@RTreePage@Gu@physx@@2MB 00000001801de7b0     GuRTree.obj
 0002:000057b4       ?MX@RTreePage@Gu@physx@@2MB 00000001801de7b4     GuRTree.obj
 0002:000057c0       ??_C@_0GM@EGJELEDJ@C?3?2Users?2mecha?2CLionProjects?2XP@ 00000001801de7c0     GuRTree.obj
 0002:000058a0       ??_7SweepShapeMeshHitCallback@Gu@physx@@6B@ 00000001801de8a0     GuSweepsMesh.obj
 0002:000058b0       ??_7SweepCapsuleMeshHitCallback@Gu@physx@@6B@ 00000001801de8b0     GuSweepsMesh.obj
 0002:000058c0       ??_7SweepBoxMeshHitCallback@Gu@physx@@6B@ 00000001801de8c0     GuSweepsMesh.obj
 0002:000058d0       ??_7SweepConvexMeshHitCallback@Gu@physx@@6B@ 00000001801de8d0     GuSweepsMesh.obj
 0002:00005900       ??_C@_0P@GGNFNHKF@PxTriangleMesh@ 00000001801de900     GuTriangleMesh.obj
 0002:00005910       ??_C@_0GI@CBFIMAAE@C?3?2Users?2mecha?2CLionProjects?2XP@ 00000001801de910     GuTriangleMesh.obj
 0002:00005978       ??_7TriangleMesh@Gu@physx@@6B@ 00000001801de978     GuTriangleMesh.obj
 0002:00005a50       ??_C@_0DD@LOOPMCGG@PxTriangleMesh?3?3release?3?5double@ 00000001801dea50     GuTriangleMesh.obj
 0002:00005a90       ??_C@_0FH@PMPAJDGI@PxTriangleMesh?3?3getVerticesForM@ 00000001801dea90     GuTriangleMesh.obj
 0002:00005af0       ??_C@_0HD@MHLLOLF@C?3?2Users?2mecha?2CLionProjects?2XP@ 00000001801deaf0     GuTriangleMesh.obj
 0002:00005b70       ??_C@_0EF@GMNFLDH@PxTriangleMesh?3?3refitBVH?$CI?$CJ?5is?5n@ 00000001801deb70     GuTriangleMesh.obj
 0002:00005bc0       __xmm@38383838383838383838383838383838 00000001801debc0     GuTriangleMesh.obj
 0002:00005bf0       ??_C@_0BE@CNJKIINO@PxBVH34TriangleMesh@ 00000001801debf0     GuTriangleMeshBV4.obj
 0002:00005c08       ??_7BV4TriangleMesh@Gu@physx@@6B@ 00000001801dec08     GuTriangleMeshBV4.obj
 0002:00005ce0       ??_C@_0EF@JLFNNPLP@BVH34?5trees?3?5refit?5operation?5on@ 00000001801dece0     GuTriangleMeshBV4.obj
 0002:00005d30       ??_C@_0HG@ECKMFIOP@C?3?2Users?2mecha?2CLionProjects?2XP@ 00000001801ded30     GuTriangleMeshBV4.obj
 0002:00005da8       __real@3951b717            00000001801deda8     GuTriangleMeshBV4.obj
 0002:00005dd0       ??_C@_0BE@EIFHCCBO@PxBVH33TriangleMesh@ 00000001801dedd0     GuTriangleMeshRTree.obj
 0002:00005de8       ??_7RTreeTriangleMesh@Gu@physx@@6B@ 00000001801dede8     GuTriangleMeshRTree.obj
 0002:00005ec0       ??_7?$RefitCallback@G@physx@@6B@ 00000001801deec0     GuTriangleMeshRTree.obj
 0002:00005ed0       ??_7?$RefitCallback@I@physx@@6B@ 00000001801deed0     GuTriangleMeshRTree.obj
 0002:00005f00       ??_C@_0GL@OICAMGIM@C?3?2Users?2mecha?2CLionProjects?2XP@ 00000001801def00     GuBV32.obj
 0002:00005f90       ??_C@_0HA@OBJIEFJA@C?3?2Users?2mecha?2CLionProjects?2XP@ 00000001801def90     GuBV32Build.obj
 0002:00006020       ??_C@_0BC@FDAIDHBP@PxTetrahedronMesh@ 00000001801df020     GuTetrahedronMesh.obj
 0002:00006040       ??_C@_0GL@GMBGCGFP@C?3?2Users?2mecha?2CLionProjects?2XP@ 00000001801df040     GuTetrahedronMesh.obj
 0002:000060b0       ??_C@_0BC@FBICGJIB@PxSoftBodyAuxData@ 00000001801df0b0     GuTetrahedronMesh.obj
 0002:000060c8       ??_C@_0P@CLLFGFAA@PxSoftBodyMesh@ 00000001801df0c8     GuTetrahedronMesh.obj
 0002:000060d8       ??_7SoftBodyAuxData@Gu@physx@@6B@ 00000001801df0d8     GuTetrahedronMesh.obj
 0002:00006120       ??_7TetrahedronMesh@Gu@physx@@6B@ 00000001801df120     GuTetrahedronMesh.obj
 0002:00006198       ??_7BVTetrahedronMesh@Gu@physx@@6B@ 00000001801df198     GuTetrahedronMesh.obj
 0002:00006210       ??_7SoftBodyMesh@Gu@physx@@6B@ 00000001801df210     GuTetrahedronMesh.obj
 0002:00006290       ??_C@_0DG@JJNMDPMD@PxTetrahedronMesh?3?3release?3?5dou@ 00000001801df290     GuTetrahedronMesh.obj
 0002:000062c8       ??_C@_0DD@GGFGEPII@PxSoftBodyMesh?3?3release?3?5double@ 00000001801df2c8     GuTetrahedronMesh.obj
 0002:00006300       ??_C@_0HG@KAOPLCHL@C?3?2Users?2mecha?2CLionProjects?2XP@ 00000001801df300     GuTetrahedronMesh.obj
 0002:000063c0       __xmm@00000000358637bd358637bd358637bd 00000001801df3c0     GuPCMContactBoxBox.obj
 0002:000063d0       __xmm@3f4ccccd3f4ccccd3f4ccccd3f4ccccd 00000001801df3d0     GuPCMContactBoxBox.obj
 0002:000063e0       __xmm@3f8003473f8003473f8003473f800347 00000001801df3e0     GuPCMContactBoxBox.obj
 0002:000063f0       __xmm@ffffffff00000000ffffffffffffffff 00000001801df3f0     GuPCMContactBoxBox.obj
 0002:00006420       ??_7?$LocalConvex@VConvexHullNoScaleV@Gu@physx@@@Gu@physx@@6B@ 00000001801df420     GuPCMContactBoxConvex.obj
 0002:00006450       __xmm@3f3504f33f3504f33f3504f33f3504f3 00000001801df450     GuPCMContactBoxConvex.obj
 0002:000064a0       __xmm@ffffffffffffffffffffffff00000000 00000001801df4a0     GuPCMContactCapsuleCapsule.obj
 0002:000064d0       __xmm@3fa000003fa000003fa000003fa00000 00000001801df4d0     GuPCMContactCapsuleConvex.obj
 0002:00006500       ??_7PCMCapsuleVsHeightfieldContactGenerationCallback@@6B@ 00000001801df500     GuPCMContactCapsuleHeightField.obj
 0002:00006510       __real@3f7f3b64            00000001801df510     GuPCMContactCapsuleHeightField.obj
 0002:00006560       __xmm@3f7ff9723f7ff9723f7ff9723f7ff972 00000001801df560     GuPCMContactCapsuleMesh.obj
 0002:00006570       __xmm@3f7fffef3f7fffef3f7fffef3f7fffef 00000001801df570     GuPCMContactCapsuleMesh.obj
 0002:00006580       __xmm@60ad78ec60ad78ec60ad78ec60ad78ec 00000001801df580     GuPCMContactCapsuleMesh.obj
 0002:000065b0       ??_7?$SupportLocalImpl@VTriangleV@Gu@physx@@@Gu@physx@@6B@ 00000001801df5b0     GuPCMContactConvexCommon.obj
 0002:000065d0       __xmm@3cf5c2803cf5c2803cf5c2803cf5c280 00000001801df5d0     GuPCMContactConvexCommon.obj
 0002:000065e0       __xmm@3f7851ec3f7851ec3f7851ec3f7851ec 00000001801df5e0     GuPCMContactConvexCommon.obj
 0002:00006610       ??_7?$RelativeConvex@VConvexHullNoScaleV@Gu@physx@@@Gu@physx@@6B@ 00000001801df610     GuPCMContactConvexConvex.obj
 0002:00006670       __xmm@3f19999a3f19999a3f19999a3f19999a 00000001801df670     GuPCMContactConvexHeightField.obj
 0002:000066e0       __xmm@3f34fdf43f34fdf43f34fdf43f34fdf4 00000001801df6e0     GuPCMContactGenBoxConvex.obj
 0002:00006710       __xmm@3f80a3d73f80a3d73f80a3d73f80a3d7 00000001801df710     GuPCMContactGenSphereCapsule.obj
 0002:00006720       __xmm@bba3d70abba3d70abba3d70abba3d70a 00000001801df720     GuPCMContactGenSphereCapsule.obj
 0002:00006750       __xmm@3f7ffd613f7ffd613f7ffd613f7ffd61 00000001801df750     GuPCMContactPlaneBox.obj
 0002:00006780       __real@3b23d70b            00000001801df780     GuPCMContactPlaneCapsule.obj
 0002:00006790       __xmm@3ca3d70a3ca3d70a3ca3d70a3ca3d70a 00000001801df790     GuPCMContactPlaneCapsule.obj
 0002:000067c0       __xmm@3a03126f3a03126f3a03126f3a03126f 00000001801df7c0     GuPCMContactPlaneConvex.obj
 0002:000068e0       __xmm@3727c5ac3727c5ac3727c5ac3727c5ac 00000001801df8e0     GuPCMContactSphereSphere.obj
 0002:00006910       __xmm@3f7f06f73f7f06f73f7f06f73f7f06f7 00000001801df910     GuPCMContactCustomGeometry.obj
 0002:00006920       ?gPCMBoxPolygonData@Gu@physx@@3QBEB 00000001801df920     GuPCMShapeConvex.obj
 0002:000069a0       ?invalidateThresholds@Gu@physx@@3QBMB 00000001801df9a0     GuPersistentContactManifold.obj
 0002:000069b8       ?invalidateQuatThresholds@Gu@physx@@3QBMB 00000001801df9b8     GuPersistentContactManifold.obj
 0002:000069d0       ?invalidateThresholds2@Gu@physx@@3QBMB 00000001801df9d0     GuPersistentContactManifold.obj
 0002:000069e0       ?invalidateQuatThresholds2@Gu@physx@@3QBMB 00000001801df9e0     GuPersistentContactManifold.obj
 0002:000069f0       __xmm@00000000340000003400000034000000 00000001801df9f0     GuPersistentContactManifold.obj
 0002:00006a00       __xmm@000000003f8000003f80000000000000 00000001801dfa00     GuPersistentContactManifold.obj
 0002:00006a10       __xmm@00000000bf8000003f80000000000000 00000001801dfa10     GuPersistentContactManifold.obj
 0002:00006a20       __xmm@ffffffffffffffff00000000ffffffff 00000001801dfa20     GuPersistentContactManifold.obj
 0002:00006a50       __xmm@c1200000c1200000c1200000c1200000 00000001801dfa50     GuPCMContactGenUtil.obj
 0002:00006aa0       __real@b727c5ac            00000001801dfaa0     GuSweepBoxSphere.obj
 0002:00006b10       ??_C@_0HH@IALMCEDK@C?3?2Users?2mecha?2CLionProjects?2XP@ 00000001801dfb10     GuSweepCapsuleBox.obj
 0002:00006bd0       __real@3f7fff58            00000001801dfbd0     GuSweepCapsuleTriangle.obj
 0002:00006c40       ??_C@_0CH@DHJGKCPD@Gu?3?3computeBounds?3?5Unknown?5shap@ 00000001801dfc40     GuBounds.obj
 0002:00006c70       ??_C@_0GI@OMEAGDEI@C?3?2Users?2mecha?2CLionProjects?2XP@ 00000001801dfc70     GuBounds.obj
 0002:00006cd8       __real@34800000            00000001801dfcd8     GuBounds.obj
 0002:00006cdc       __real@3f7fffef            00000001801dfcdc     GuBounds.obj
 0002:00006ce0       __xmm@3f8147ae3f8147ae3f8147ae3f8147ae 00000001801dfce0     GuBounds.obj
 0002:00006d10       ??_C@_0GK@DIGOFKOJ@C?3?2Users?2mecha?2CLionProjects?2XP@ 00000001801dfd10     GuAABBTree.obj
 0002:00006d80       __xmm@5a60b17f5a60b17f5a60b17f5a60b17f 00000001801dfd80     GuAABBTree.obj
 0002:00006d90       __xmm@da60b17fda60b17fda60b17fda60b17f 00000001801dfd90     GuAABBTree.obj
 0002:00006e00       ??_C@_0HF@HOAHLPHO@C?3?2Users?2mecha?2CLionProjects?2XP@ 00000001801dfe00     GuIncrementalAABBTree.obj
 0002:00006e80       ??_C@_0GC@JMOCODBI@C?3?2Users?2mecha?2CLionProjects?2XP@ 00000001801dfe80     GuIncrementalAABBTree.obj
 0002:00006ee4       __real@40400000            00000001801dfee4     GuIncrementalAABBTree.obj
 0002:00006ef0       ??_C@_0GF@BLNODFEB@C?3?2Users?2mecha?2CLionProjects?2XP@ 00000001801dfef0     GuSAH.obj
 0002:00006f80       ??_7PxBVH@physx@@6B@       00000001801dff80     GuBVH.obj
 0002:00006ff8       ??_C@_05OKJNPKBM@PxBVH@    00000001801dfff8     GuBVH.obj
 0002:00007000       ??_C@_0FP@FEBKKIHD@C?3?2Users?2mecha?2CLionProjects?2XP@ 00000001801e0000     GuBVH.obj
 0002:00007060       ??_7RefCountable@Cm@physx@@6B@ 00000001801e0060     GuBVH.obj
 0002:00007070       ??_7BVH@Gu@physx@@6BPxBVH@2@@ 00000001801e0070     GuBVH.obj
 0002:000070e8       ??_7BVH@Gu@physx@@6BRefCountable@Cm@2@@ 00000001801e00e8     GuBVH.obj
 0002:00007100       ??_C@_0GF@JLGKGLE@C?3?2Users?2mecha?2CLionProjects?2XP@ 00000001801e0100     GuBVH.obj
 0002:00007168       ??_C@_0CK@HAIOEINI@PxBVH?3?3release?3?5double?5deletion@ 00000001801e0168     GuBVH.obj
 0002:000071c0       ??_C@_0HL@KPKOMFAI@C?3?2Users?2mecha?2CLionProjects?2XP@ 00000001801e01c0     GuIncrementalAABBPrunerCore.obj
 0002:0000723c       __real@3f80a3d7            00000001801e023c     GuIncrementalAABBPrunerCore.obj
 0002:00007260       ??_7BasePruner@Gu@physx@@6B@ 00000001801e0260     GuIncrementalAABBPruner.obj
 0002:00007278       ??_7IncrementalAABBPruner@Gu@physx@@6B@ 00000001801e0278     GuIncrementalAABBPruner.obj
 0002:00007300       ??_C@_0BM@FLAABPLG@SceneQuery?4prunerAddObjects@ 00000001801e0300     GuIncrementalAABBPruner.obj
 0002:00007320       ??_C@_0BP@EAAOKPEE@SceneQuery?4prunerUpdateObjects@ 00000001801e0320     GuIncrementalAABBPruner.obj
 0002:00007340       ??_C@_0BP@EHMBNBOH@SceneQuery?4prunerRemoveObjects@ 00000001801e0340     GuIncrementalAABBPruner.obj
 0002:00007360       ??_C@_0BI@HOKOKBIM@SceneQuery?4prunerCommit@ 00000001801e0360     GuIncrementalAABBPruner.obj
 0002:00007380       ??_C@_0HH@JLNGMBAH@C?3?2Users?2mecha?2CLionProjects?2XP@ 00000001801e0380     GuIncrementalAABBPruner.obj
 0002:00007420       ??_C@_0BE@PKINCBHP@PruningPool?3?3resize@ 00000001801e0420     GuPruningPool.obj
 0002:00007440       ??_C@_0GN@PDODAMAL@C?3?2Users?2mecha?2CLionProjects?2XP@ 00000001801e0440     GuPruningPool.obj
 0002:000074b0       ??_C@_0BI@HMDEMGJB@PruningPool?3?3addObjects@ 00000001801e04b0     GuPruningPool.obj
 0002:000074c8       ??_C@_0BK@JPNIEHEJ@PruningPool?3?3removeObject@ 00000001801e04c8     GuPruningPool.obj
 0002:000074e8       ??_C@_0BJ@GNLAFFBD@PruningPool?3?3shiftOrigin@ 00000001801e04e8     GuPruningPool.obj
 0002:00007508       ??_C@_0CE@MGPCCKGE@PruningPool?3?3updateAndInflateBo@ 00000001801e0508     GuPruningPool.obj
 0002:00007570       ??_7BucketPruner@Gu@physx@@6B@ 00000001801e0570     GuBucketPruner.obj
 0002:00007600       ??_C@_0GO@KLICIHNO@C?3?2Users?2mecha?2CLionProjects?2XP@ 00000001801e0600     GuBucketPruner.obj
 0002:00007670       __real@bf13cd3a            00000001801e0670     GuBucketPruner.obj
 0002:00007680       __xmm@000000007e7fffff7e7fffff7e7fffff 00000001801e0680     GuBucketPruner.obj
 0002:00007690       __xmm@00000000fe7ffffffe7ffffffe7fffff 00000001801e0690     GuBucketPruner.obj
 0002:000076a0       __xmm@3f13cd3a3f13cd3a3f13cd3a3f13cd3a 00000001801e06a0     GuBucketPruner.obj
 0002:000076b0       __xmm@bf13cd3abf13cd3abf13cd3a3f13cd3a 00000001801e06b0     GuBucketPruner.obj
 0002:000076c0       __xmm@bf8000003f8000003f800000bf800000 00000001801e06c0     GuBucketPruner.obj
 0002:000076d0       __xmm@bf8000003f800000bf8000003f800000 00000001801e06d0     GuBucketPruner.obj
 0002:000076e0       __xmm@bf800000bf8000003f8000003f800000 00000001801e06e0     GuBucketPruner.obj
 0002:000076f0       __xmm@bf800000bf800000bf8000003f800000 00000001801e06f0     GuBucketPruner.obj
 0002:00007700       ?mIndices@MaverickNode@Gu@physx@@2QBIB 00000001801e0700     GuMaverickNode.obj
 0002:00007760       ??_C@_0HG@PEKFHBJG@C?3?2Users?2mecha?2CLionProjects?2XP@ 00000001801e0760     GuExtendedBucketPruner.obj
 0002:00007800       ??_7CompanionPruner@Gu@physx@@6B@ 00000001801e0800     GuSecondaryPruner.obj
 0002:00007880       ??_7CompanionPrunerBucket@@6B@ 00000001801e0880     GuSecondaryPruner.obj
 0002:00007900       ??_7CompanionPrunerIncremental@@6B@ 00000001801e0900     GuSecondaryPruner.obj
 0002:00007980       ??_7CompanionPrunerAABBTree@@6B@ 00000001801e0980     GuSecondaryPruner.obj
 0002:00007a00       ??_C@_0HB@DBBGNNHJ@C?3?2Users?2mecha?2CLionProjects?2XP@ 00000001801e0a00     GuSecondaryPruner.obj
 0002:00007aa0       ??_7AABBPruner@Gu@physx@@6B@ 00000001801e0aa0     GuAABBPruner.obj
 0002:00007b40       ??_C@_0CC@JANKLMNO@SceneQuery?4bucketPrunerAddObjec@ 00000001801e0b40     GuAABBPruner.obj
 0002:00007b70       ??_C@_0LA@IHBEIKND@SceneQuery?5static?5AABB?5Tree?5reb@ 00000001801e0b70     GuAABBPruner.obj
 0002:00007c20       ??_C@_0GM@HFLGINEE@C?3?2Users?2mecha?2CLionProjects?2XP@ 00000001801e0c20     GuAABBPruner.obj
 0002:00007c90       ??_C@_0CB@JOCHAJIC@SceneQuery?4prunerNewTreeFinaliz@ 00000001801e0c90     GuAABBPruner.obj
 0002:00007cb8       ??_C@_0BP@IOICCIGM@SceneQuery?4prunerNewTreeSwitch@ 00000001801e0cb8     GuAABBPruner.obj
 0002:00007cd8       ??_C@_0CA@LJGALBJD@SceneQuery?4prunerNewTreeMapping@ 00000001801e0cd8     GuAABBPruner.obj
 0002:00007cf8       ??_C@_0CD@OCIEMIME@SceneQuery?4prunerNewTreeFinalRe@ 00000001801e0cf8     GuAABBPruner.obj
 0002:00007d20       ??_C@_0CG@PMFEEPAE@SceneQuery?4prunerNewTreeRemoveO@ 00000001801e0d20     GuAABBPruner.obj
 0002:00007d48       ??_C@_0BL@NAENOAHO@SceneQuery?4prunerBuildStep@ 00000001801e0d48     GuAABBPruner.obj
 0002:00007d68       ??_C@_0CC@MJCIDELA@SceneQuery?4prunerNewTreeFullRef@ 00000001801e0d68     GuAABBPruner.obj
 0002:00007d90       ??_C@_0BI@DAHHAEPA@SceneQuery?4prepareBuild@ 00000001801e0d90     GuAABBPruner.obj
 0002:00007da8       ??_C@_0CF@PDMDBIIO@SceneQuery?4prunerFullRebuildAAB@ 00000001801e0da8     GuAABBPruner.obj
 0002:00007dd0       ??_C@_0CE@GKMPPEJP@SceneQuery?4prunerUpdateBucketPr@ 00000001801e0dd0     GuAABBPruner.obj
 0002:00007df8       ??_C@_0CI@MKOHFNNO@SceneQuery?4prunerRefitUpdatedAn@ 00000001801e0df8     GuAABBPruner.obj
 0002:00007e20       ??_C@_0GP@KBGPMKCL@C?3?2Users?2mecha?2CLionProjects?2XP@ 00000001801e0e20     GuActorShapeMap.obj
 0002:00007eb0       ??_C@_0BF@DNABLJAF@Invalid?5pruner?5index@ 00000001801e0eb0     GuQuerySystem.obj
 0002:00007ed0       ??_C@_0GN@KNIFPEIB@C?3?2Users?2mecha?2CLionProjects?2XP@ 00000001801e0ed0     GuQuerySystem.obj
 0002:00007f40       ??_C@_0BO@MMDENGGP@QuerySystem?4processDirtyLists@ 00000001801e0f40     GuQuerySystem.obj
 0002:00007f60       ??_C@_0BE@PHJMAGEL@QuerySystem?3?3update@ 00000001801e0f60     GuQuerySystem.obj
 0002:00007f78       ??_C@_0BK@GODFCMPK@QuerySystem?4commitUpdates@ 00000001801e0f78     GuQuerySystem.obj
 0002:00007fc8       ??_C@_0CA@NAJNANMC@QuerySystem?4createTreeOfPruners@ 00000001801e0fc8     GuQuerySystem.obj
 0002:00008010       ??_C@_0GJ@BNKDJCCK@C?3?2Users?2mecha?2CLionProjects?2XP@ 00000001801e1010     GuFactory.obj
 0002:00008080       ?reductionFactors@SubSortQuick@physx@@2QBMB 00000001801e1080     GuRTreeCooking.obj
 0002:00008090       ?stopAtTrisPerLeaf1@SubSortQuick@physx@@2QBIB 00000001801e1090     GuRTreeCooking.obj
 0002:00008160       ??_C@_0HG@BCHBDLGD@C?3?2Users?2mecha?2CLionProjects?2XP@ 00000001801e1160     GuRTreeCooking.obj
 0002:000081d8       __real@41100000            00000001801e11d8     GuRTreeCooking.obj
 0002:000081dc       __real@41700000            00000001801e11dc     GuRTreeCooking.obj
 0002:000081e0       __real@42200000            00000001801e11e0     GuRTreeCooking.obj
 0002:000081f0       __xmm@00000004000000030000000200000001 00000001801e11f0     GuRTreeCooking.obj
 0002:00008220       ??_C@_0HE@DBIIOEDN@C?3?2Users?2mecha?2CLionProjects?2XP@ 00000001801e1220     GuCookingBVH.obj
 0002:00008298       ??_C@_0DL@JHPKHGFA@Cooking?3?3cookBVH?3?5user?9provided@ 00000001801e1298     GuCookingBVH.obj
 0002:000082d8       ??_C@_0DN@PLNPGFEB@Cooking?3?3createBVH?3?5user?9provid@ 00000001801e12d8     GuCookingBVH.obj
 0002:00008320       ??_C@_0EL@JCJBAPHL@Cooking?3?3cookHeightField?3?5user?9@ 00000001801e1320     GuCookingHF.obj
 0002:00008370       ??_C@_0HD@HAKFOBGD@C?3?2Users?2mecha?2CLionProjects?2XP@ 00000001801e1370     GuCookingHF.obj
 0002:000083f0       ??_C@_0EN@FCEPCAFC@Cooking?3?3createHeightField?3?5use@ 00000001801e13f0     GuCookingHF.obj
 0002:00008440       ??_C@_0EK@EKAIJEBL@Cooking?3?3cookConvexMesh?3?5user?9p@ 00000001801e1440     GuCookingConvexMesh.obj
 0002:00008490       ??_C@_0FA@GFFGAPML@Cooking?3?3cookConvexMesh?3?5provid@ 00000001801e1490     GuCookingConvexMesh.obj
 0002:000084e0       ??_C@_0EP@PKDCPNNO@Cooking?3?3cookConvexMesh?3?5provid@ 00000001801e14e0     GuCookingConvexMesh.obj
 0002:00008530       ??_C@_0EO@LKFMMDE@Cooking?3?3cookConvexMesh?3?5user?9p@ 00000001801e1530     GuCookingConvexMesh.obj
 0002:00008580       ??_C@_0EL@KJEPJALG@Cooking?3?3cookConvexMesh?3?5user?9p@ 00000001801e1580     GuCookingConvexMesh.obj
 0002:000085d0       ??_C@_0FM@LHMEBKMM@Cooking?3?3cookConvexMesh?3?5GPU?9co@ 00000001801e15d0     GuCookingConvexMesh.obj
 0002:00008630       ??_C@_0FJ@FHCFFABE@Cooking?3?3cookConvexMesh?3?5GPU?9co@ 00000001801e1630     GuCookingConvexMesh.obj
 0002:00008690       ??_C@_0LM@CHONPBFM@Cooking?3?3cookConvexMesh?3?5GPU?9co@ 00000001801e1690     GuCookingConvexMesh.obj
 0002:00008750       ??_C@_0HL@LBGLLNBF@C?3?2Users?2mecha?2CLionProjects?2XP@ 00000001801e1750     GuCookingConvexMesh.obj
 0002:000087f0       ??_7TriangleMeshBuilder@physx@@6B@ 00000001801e17f0     GuCookingTriangleMesh.obj
 0002:00008818       ??_7RTreeTriangleMeshBuilder@physx@@6B@ 00000001801e1818     GuCookingTriangleMesh.obj
 0002:00008840       ??_7BV4TriangleMeshBuilder@physx@@6B@ 00000001801e1840     GuCookingTriangleMesh.obj
 0002:00008870       ??_C@_0HN@PHJAOLGI@C?3?2Users?2mecha?2CLionProjects?2XP@ 00000001801e1870     GuCookingTriangleMesh.obj
 0002:000088f0       ??_C@_0EM@DBPINPE@TriangleMeshBuilder?3?3cleanMesh?3@ 00000001801e18f0     GuCookingTriangleMesh.obj
 0002:00008940       ??_C@_0EF@MLNDPEDJ@TriangleMeshBuilder?3?3cleanMesh?3@ 00000001801e1940     GuCookingTriangleMesh.obj
 0002:00008990       ??_C@_0FJ@HHJLKGDF@TriangleMesh?3?5triangles?5are?5too@ 00000001801e1990     GuCookingTriangleMesh.obj
 0002:000089f0       ??_C@_0CN@KGPHHHLK@TriangleMesh?3?5mesh?5is?5too?5big?5f@ 00000001801e19f0     GuCookingTriangleMesh.obj
 0002:00008a20       ??_C@_0DD@CMJGDCNN@TriangleMesh?3?3loadFromDesc?3?5des@ 00000001801e1a20     GuCookingTriangleMesh.obj
 0002:00008a60       ??_C@_0ED@ILJJNHIP@TriangleMesh?3?3loadFromDesc?3?5mPa@ 00000001801e1a60     GuCookingTriangleMesh.obj
 0002:00008aa8       ??_C@_0BK@JIDHMMCE@BV4?5tree?5failed?5to?5build?4@ 00000001801e1aa8     GuCookingTriangleMesh.obj
 0002:00008ac8       ??_C@_0BL@DHNECNBE@BV32?5tree?5failed?5to?5build?4@ 00000001801e1ac8     GuCookingTriangleMesh.obj
 0002:00008ae8       ??_7RTreeCookerRemap@@6B@  00000001801e1ae8     GuCookingTriangleMesh.obj
 0002:00008b00       ??_C@_0FC@PJIHAFK@Cooking?3?3validateTriangleMesh?3?5@ 00000001801e1b00     GuCookingTriangleMesh.obj
 0002:00008be0       ??_7PxCollisionTetrahedronMeshData@physx@@6B@ 00000001801e1be0     GuCookingTetrahedronMesh.obj
 0002:00008c10       ??_7PxSimulationTetrahedronMeshData@physx@@6B@ 00000001801e1c10     GuCookingTetrahedronMesh.obj
 0002:00008c30       ??_7CollisionTetrahedronMeshData@Gu@physx@@6B@ 00000001801e1c30     GuCookingTetrahedronMesh.obj
 0002:00008c60       ??_7SimulationTetrahedronMeshData@Gu@physx@@6B@ 00000001801e1c60     GuCookingTetrahedronMesh.obj
 0002:00008c80       ??_C@_0IA@NFKKIGAC@C?3?2Users?2mecha?2CLionProjects?2XP@ 00000001801e1c80     GuCookingTetrahedronMesh.obj
 0002:00008d00       ??_7?$LocalConvex@VTetrahedronV@Gu@physx@@@Gu@physx@@6B@ 00000001801e1d00     GuCookingTetrahedronMesh.obj
 0002:00008d30       ??_C@_0CD@OJGNHLOE@BV4_AABBTree?5tree?5failed?5to?5bui@ 00000001801e1d30     GuCookingTetrahedronMesh.obj
 0002:00008d58       ??_C@_0DG@NCNIEEHB@TetrahedronMesh?3?3loadFromDesc?3?5@ 00000001801e1d58     GuCookingTetrahedronMesh.obj
 0002:00008d90       ??_C@_0EG@CJIFGLMC@TetrahedronMesh?3?3loadFromDesc?3?5@ 00000001801e1d90     GuCookingTetrahedronMesh.obj
 0002:00008dd8       __real@be2aaaab            00000001801e1dd8     GuCookingTetrahedronMesh.obj
 0002:00008de0       __xmm@00000003000000030000000300000003 00000001801e1de0     GuCookingTetrahedronMesh.obj
 0002:00008e10       __real@3bc79ca10c924223    00000001801e1e10     GuCookingVolumeIntegration.obj
 0002:00008e18       __real@3f91111111111111    00000001801e1e18     GuCookingVolumeIntegration.obj
 0002:00008e20       __real@3fa5555555555555    00000001801e1e20     GuCookingVolumeIntegration.obj
 0002:00008e28       __real@3fa999999999999a    00000001801e1e28     GuCookingVolumeIntegration.obj
 0002:00008e30       __real@3fb5555555555555    00000001801e1e30     GuCookingVolumeIntegration.obj
 0002:00008e38       __real@3fc5555555555555    00000001801e1e38     GuCookingVolumeIntegration.obj
 0002:00008e40       __real@3fe0000000000000    00000001801e1e40     GuCookingVolumeIntegration.obj
 0002:00008e48       __real@3ff0000000000000    00000001801e1e48     GuCookingVolumeIntegration.obj
 0002:00008e50       __real@4008000000000000    00000001801e1e50     GuCookingVolumeIntegration.obj
 0002:00008e58       __real@4010000000000000    00000001801e1e58     GuCookingVolumeIntegration.obj
 0002:00008e60       __real@bf91111111111111    00000001801e1e60     GuCookingVolumeIntegration.obj
 0002:00008e68       __real@bfa999999999999a    00000001801e1e68     GuCookingVolumeIntegration.obj
 0002:00008e70       __real@bfb5555555555555    00000001801e1e70     GuCookingVolumeIntegration.obj
 0002:00008e78       __real@bfc5555555555555    00000001801e1e78     GuCookingVolumeIntegration.obj
 0002:00008e80       __xmm@3c0888893c0888893c0888893c088889 00000001801e1e80     GuCookingVolumeIntegration.obj
 0002:00008e90       __xmm@3c8888893c8888893c8888893c888889 00000001801e1e90     GuCookingVolumeIntegration.obj
 0002:00008ea0       __xmm@3d2aaaab3d2aaaab3d2aaaab3d2aaaab 00000001801e1ea0     GuCookingVolumeIntegration.obj
 0002:00008eb0       __xmm@3e2aaaab3e2aaaab3e2aaaab3e2aaaab 00000001801e1eb0     GuCookingVolumeIntegration.obj
 0002:00008ec0       __xmm@3f811111111111113f81111111111111 00000001801e1ec0     GuCookingVolumeIntegration.obj
 0002:00008ed0       __xmm@3f811111111111113f91111111111111 00000001801e1ed0     GuCookingVolumeIntegration.obj
 0002:00008ee0       __xmm@3f911111111111113f91111111111111 00000001801e1ee0     GuCookingVolumeIntegration.obj
 0002:00008ef0       __xmm@3fa55555555555553fa5555555555555 00000001801e1ef0     GuCookingVolumeIntegration.obj
 0002:00008f00       __xmm@3fa55555555555553fc5555555555555 00000001801e1f00     GuCookingVolumeIntegration.obj
 0002:00008f10       __xmm@3fd55555555555553fd5555555555555 00000001801e1f10     GuCookingVolumeIntegration.obj
 0002:00008f20       __xmm@3fe00000000000003fe0000000000000 00000001801e1f20     GuCookingVolumeIntegration.obj
 0002:00008f30       __xmm@7fffffffffffffff7fffffffffffffff 00000001801e1f30     GuCookingVolumeIntegration.obj
 0002:00008f40       __xmm@80000000000000008000000000000000 00000001801e1f40     GuCookingVolumeIntegration.obj
 0002:00008f50       ??_7ConvexHullLib@physx@@6B@ 00000001801e1f50     GuCookingQuickHullConvexHullLib.obj
 0002:00008f70       ??_7QuickHullConvexHullLib@physx@@6B@ 00000001801e1f70     GuCookingQuickHullConvexHullLib.obj
 0002:00008f90       ??_C@_0IH@EJGAMCLM@C?3?2Users?2mecha?2CLionProjects?2XP@ 00000001801e1f90     GuCookingQuickHullConvexHullLib.obj
 0002:00009020       ??_C@_0GA@EPPAEJPM@QuickHullConvexHullLib?3?3findSim@ 00000001801e2020     GuCookingQuickHullConvexHullLib.obj
 0002:00009080       ??_C@_0FB@NEBIJMML@QuickHullConvexHullLib?3?3findSim@ 00000001801e2080     GuCookingQuickHullConvexHullLib.obj
 0002:000090e0       ??_C@_0FB@CLLCBEMM@QuickHullConvexHullLib?3?3findSim@ 00000001801e20e0     GuCookingQuickHullConvexHullLib.obj
 0002:00009134       __real@34c00000            00000001801e2134     GuCookingQuickHullConvexHullLib.obj
 0002:00009138       ??_C@_0DP@PJBJBEGF@Meshmerizer?3?3extractHullPolygon@ 00000001801e2138     GuCookingConvexPolygonsBuilder.obj
 0002:00009180       ??_C@_0IG@IGJINKCD@C?3?2Users?2mecha?2CLionProjects?2XP@ 00000001801e2180     GuCookingConvexPolygonsBuilder.obj
 0002:00009208       ??_C@_0DL@IAFKOCCK@ConvexHullBuilder?3?5convex?5hull?5@ 00000001801e2208     GuCookingConvexPolygonsBuilder.obj
 0002:00009250       ??_C@_0GF@OJLJHAMH@ConvexHullBuilder?3?3CreateTriang@ 00000001801e2250     GuCookingConvexPolygonsBuilder.obj
 0002:000092e0       ??_C@_0DF@LLFJIJGM@Gu?3?3ConvexMesh?3?3loadFromDesc?3?5d@ 00000001801e22e0     GuCookingConvexMeshBuilder.obj
 0002:00009320       ??_C@_0HK@JOGKIEAA@Gu?3?3ConvexMesh?3?5Mesh?5has?5a?5nega@ 00000001801e2320     GuCookingConvexMeshBuilder.obj
 0002:000093a0       ??_C@_0DH@NJPPHFFD@Gu?3?3ConvexMesh?3?5Error?5computing@ 00000001801e23a0     GuCookingConvexMeshBuilder.obj
 0002:000093d8       ??_C@_0DJ@LJDLGLDJ@Gu?3?3ConvexMesh?3?3loadConvexHull?3@ 00000001801e23d8     GuCookingConvexMeshBuilder.obj
 0002:00009420       ??_C@_0HJ@KJANPPOE@ConvexMeshBuilder?3?3computeHullP@ 00000001801e2420     GuCookingConvexMeshBuilder.obj
 0002:000094a0       ??_C@_0IC@MFKDFBMA@C?3?2Users?2mecha?2CLionProjects?2XP@ 00000001801e24a0     GuCookingConvexMeshBuilder.obj
 0002:00009528       ??_C@_0O@JMAGMMGG@PxHullPolygon@ 00000001801e2528     GuCookingConvexMeshBuilder.obj
 0002:00009538       __real@3f13cd3a            00000001801e2538     GuCookingConvexMeshBuilder.obj
 0002:00009560       ??_C@_0IA@KECNNGBJ@C?3?2Users?2mecha?2CLionProjects?2XP@ 00000001801e2560     GuCookingConvexHullUtils.obj
 0002:000095e0       __real@3e20d97c            00000001801e25e0     GuCookingConvexHullUtils.obj
 0002:000095f0       ??_C@_0HO@IBCEFCEE@C?3?2Users?2mecha?2CLionProjects?2XP@ 00000001801e25f0     GuCookingConvexHullLib.obj
 0002:00009670       ??_C@_0JE@PABBNGEL@ConvexHullLib?3?3cleanupVertices?3@ 00000001801e2670     GuCookingConvexHullLib.obj
 0002:00009730       ??_C@_0IC@LAHPBJF@C?3?2Users?2mecha?2CLionProjects?2XP@ 00000001801e2730     GuCookingConvexHullBuilder.obj
 0002:000097c0       ??_C@_0EB@DCEIFDGC@ConvexHullBuilder?3?3init?3?5convex@ 00000001801e27c0     GuCookingConvexHullBuilder.obj
 0002:00009810       ??_C@_0FM@KICBLCBH@Gu?3?3ConvexMesh?3?3checkHullPolygo@ 00000001801e2810     GuCookingConvexHullBuilder.obj
 0002:00009870       ??_C@_0GO@HBFIOGLL@Gu?3?3ConvexMesh?3?3checkHullPolygo@ 00000001801e2870     GuCookingConvexHullBuilder.obj
 0002:000098e0       ??_C@_0HF@OLJFBIEL@ConvexHullBuilder?3?5convex?5hull?5@ 00000001801e28e0     GuCookingConvexHullBuilder.obj
 0002:00009960       ??_C@_0OG@JNHFOIL@ConvexHullBuilder?3?5convex?5hull?5@ 00000001801e2960     GuCookingConvexHullBuilder.obj
 0002:00009a50       ??_C@_0EJ@NIOIBAKH@Cooking?3?3cookConvexMesh?3?5non?9ma@ 00000001801e2a50     GuCookingConvexHullBuilder.obj
 0002:00009ac0       ??_C@_0IF@FLPBGGMD@C?3?2Users?2mecha?2CLionProjects?2XP@ 00000001801e2ac0     GuCookingBigConvexDataBuilder.obj
 0002:00009b50       __sz_PhysXFoundation_64_dll 00000001801e2b50     PhysXFoundation_64:PhysXFoundation_64.dll
 0002:00009b68       ??_C@_1BK@DBDEIDLH@?$AAK?$AAE?$AAR?$AAN?$AAE?$AAL?$AA3?$AA2?$AA?4?$AAD?$AAL?$AAL@ 00000001801e2b68     Delayimp:delayhlp.obj
 0002:00009b88       ??_C@_0BI@OMNLIJDB@AcquireSRWLockExclusive@ 00000001801e2b88     Delayimp:delayhlp.obj
 0002:00009ba0       ??_C@_0BI@HMIEPCNJ@ReleaseSRWLockExclusive@ 00000001801e2ba0     Delayimp:delayhlp.obj
 0002:00009bb8       __pfnDliFailureHook2       00000001801e2bb8     Delayimp:delayhk1.obj
 0002:00009bc8       ??_7type_info@@6B@         00000001801e2bc8     LIBCMT:std_type_info_static.obj
 0002:00009c30       _pDefaultRawDllMain        00000001801e2c30     LIBCMT:dll_dllmain.obj
 0002:00009c30       _pRawDllMain               00000001801e2c30     LIBCMT:dll_dllmain.obj
 0002:00009c40       _load_config_used          00000001801e2c40     LIBCMT:loadcfg.obj
 0002:00009d80       _pDestructExceptionObject  00000001801e2d80     libvcruntime:ehhelpers.obj
 0002:0000a4a0       ??_C@_08EHJDFFNH@__based?$CI@ 00000001801e34a0     libvcruntime:undname.obj
 0002:0000a4b0       ??_C@_07KOLFKCDI@__cdecl@  00000001801e34b0     libvcruntime:undname.obj
 0002:0000a4b8       ??_C@_08GHMPAG@__pascal@   00000001801e34b8     libvcruntime:undname.obj
 0002:0000a4c8       ??_C@_09IFJBGAPI@__stdcall@ 00000001801e34c8     libvcruntime:undname.obj
 0002:0000a4d8       ??_C@_0L@NPHFGOKO@__thiscall@ 00000001801e34d8     libvcruntime:undname.obj
 0002:0000a4e8       ??_C@_0L@JMKHOMEK@__fastcall@ 00000001801e34e8     libvcruntime:undname.obj
 0002:0000a4f8       ??_C@_0N@BCKKPABJ@__vectorcall@ 00000001801e34f8     libvcruntime:undname.obj
 0002:0000a508       ??_C@_09HIJEGCPM@__clrcall@ 00000001801e3508     libvcruntime:undname.obj
 0002:0000a514       ??_C@_06GHPCKEAG@__eabi@   00000001801e3514     libvcruntime:undname.obj
 0002:0000a520       ??_C@_09IOPIDJLG@__swift_1@ 00000001801e3520     libvcruntime:undname.obj
 0002:0000a530       ??_C@_09KFNFGKHF@__swift_2@ 00000001801e3530     libvcruntime:undname.obj
 0002:0000a540       ??_C@_09LMMOFLDE@__swift_3@ 00000001801e3540     libvcruntime:undname.obj
 0002:0000a550       ??_C@_07JOMMBBKO@__ptr64@  00000001801e3550     libvcruntime:undname.obj
 0002:0000a558       ??_C@_0L@PILCLIHE@__restrict@ 00000001801e3558     libvcruntime:undname.obj
 0002:0000a568       ??_C@_0M@GFIIJFMG@__unaligned@ 00000001801e3568     libvcruntime:undname.obj
 0002:0000a578       ??_C@_09DHDLOLLB@restrict?$CI@ 00000001801e3578     libvcruntime:undname.obj
 0002:0000a584       ??_C@_04NIHEBCM@?5new@     00000001801e3584     libvcruntime:undname.obj
 0002:0000a590       ??_C@_07FPCDHGMM@?5delete@ 00000001801e3590     libvcruntime:undname.obj
 0002:0000a598       ??_C@_01NEMOKFLO@?$DN@     00000001801e3598     libvcruntime:undname.obj
 0002:0000a59c       ??_C@_02GPIOPFAK@?$DO?$DO@ 00000001801e359c     libvcruntime:undname.obj
 0002:0000a5a0       ??_C@_02FODMEDOG@?$DM?$DM@ 00000001801e35a0     libvcruntime:undname.obj
 0002:0000a5a4       ??_C@_01DCLJPIOD@?$CB@     00000001801e35a4     libvcruntime:undname.obj
 0002:0000a5a8       ??_C@_02EGOFBIJA@?$DN?$DN@ 00000001801e35a8     libvcruntime:undname.obj
 0002:0000a5ac       ??_C@_02FDNJECIE@?$CB?$DN@ 00000001801e35ac     libvcruntime:undname.obj
 0002:0000a5b0       ??_C@_02GPECMEKF@?$FL?$FN@ 00000001801e35b0     libvcruntime:undname.obj
 0002:0000a5b8       ??_C@_08LHJFAFGD@operator@ 00000001801e35b8     libvcruntime:undname.obj
 0002:0000a5c4       ??_C@_02HBOOOICD@?9?$DO@   00000001801e35c4     libvcruntime:undname.obj
 0002:0000a5c8       ??_C@_01NBENCBCI@?$CK@     00000001801e35c8     libvcruntime:undname.obj
 0002:0000a5cc       ??_C@_02ECNGHCIF@?$CL?$CL@ 00000001801e35cc     libvcruntime:undname.obj
 0002:0000a5d0       ??_C@_02BAABKJLB@?9?9@     00000001801e35d0     libvcruntime:undname.obj
 0002:0000a5d4       ??_C@_01JOAMLHOP@?9@       00000001801e35d4     libvcruntime:undname.obj
 0002:0000a5d8       ??_C@_01MIFGBAGJ@?$CL@     00000001801e35d8     libvcruntime:undname.obj
 0002:0000a5dc       ??_C@_01HNPIGOCE@?$CG@     00000001801e35dc     libvcruntime:undname.obj
 0002:0000a5e0       ??_C@_03MNHNFDLC@?9?$DO?$CK@ 00000001801e35e0     libvcruntime:undname.obj
 0002:0000a5e4       ??_C@_01KMDKNFGN@?1@       00000001801e35e4     libvcruntime:undname.obj
 0002:0000a5e8       ??_C@_01FGNFDNOH@?$CF@     00000001801e35e8     libvcruntime:undname.obj
 0002:0000a5ec       ??_C@_01MNNFJEPP@?$DM@     00000001801e35ec     libvcruntime:undname.obj
 0002:0000a5f0       ??_C@_02EHCHHCKH@?$DM?$DN@ 00000001801e35f0     libvcruntime:undname.obj
 0002:0000a5f4       ??_C@_01PPODPGHN@?$DO@     00000001801e35f4     libvcruntime:undname.obj
 0002:0000a5f8       ??_C@_02EEKDKGMJ@?$DO?$DN@ 00000001801e35f8     libvcruntime:undname.obj
 0002:0000a5fc       ??_C@_01IHBHIGKO@?0@       00000001801e35fc     libvcruntime:undname.obj
 0002:0000a600       ??_C@_02HCKGKOFO@?$CI?$CJ@ 00000001801e3600     libvcruntime:undname.obj
 0002:0000a604       ??_C@_01PJKLJHI@?$HO@      00000001801e3604     libvcruntime:undname.obj
 0002:0000a608       ??_C@_01JKBOJNNK@?$FO@     00000001801e3608     libvcruntime:undname.obj
 0002:0000a60c       ??_C@_01DNKMNLPK@?$HM@     00000001801e360c     libvcruntime:undname.obj
 0002:0000a610       ??_C@_02PPKAJPJL@?$CG?$CG@ 00000001801e3610     libvcruntime:undname.obj
 0002:0000a614       ??_C@_02NONPIBCD@?$HM?$HM@ 00000001801e3614     libvcruntime:undname.obj
 0002:0000a618       ??_C@_02FPIMKNGF@?$CK?$DN@ 00000001801e3618     libvcruntime:undname.obj
 0002:0000a61c       ??_C@_02FOEOMHFC@?$CL?$DN@ 00000001801e361c     libvcruntime:undname.obj
 0002:0000a620       ??_C@_02FKMDLLOA@?9?$DN@   00000001801e3620     libvcruntime:undname.obj
 0002:0000a624       ??_C@_02FJEHGPIO@?1?$DN@   00000001801e3624     libvcruntime:undname.obj
 0002:0000a628       ??_C@_02FENAOKFI@?$CF?$DN@ 00000001801e3628     libvcruntime:undname.obj
 0002:0000a62c       ??_C@_03IKFCCPFF@?$DO?$DO?$DN@ 00000001801e362c     libvcruntime:undname.obj
 0002:0000a630       ??_C@_03CDNPDDLA@?$DM?$DM?$DN@ 00000001801e3630     libvcruntime:undname.obj
 0002:0000a634       ??_C@_02FGJGFEAB@?$CG?$DN@ 00000001801e3634     libvcruntime:undname.obj
 0002:0000a638       ??_C@_02DHLNPPGH@?$HM?$DN@ 00000001801e3638     libvcruntime:undname.obj
 0002:0000a63c       ??_C@_02MHEGNOJ@?$FO?$DN@  00000001801e363c     libvcruntime:undname.obj
 0002:0000a640       ??_C@_09IFPLHPGF@?$GAvftable?8@ 00000001801e3640     libvcruntime:undname.obj
 0002:0000a650       ??_C@_09BLBHBJP@?$GAvbtable?8@ 00000001801e3650     libvcruntime:undname.obj
 0002:0000a660       ??_C@_07FEEIOKP@?$GAvcall?8@ 00000001801e3660     libvcruntime:undname.obj
 0002:0000a668       ??_C@_08LLFFHHDJ@?$GAtypeof?8@ 00000001801e3668     libvcruntime:undname.obj
 0002:0000a678       ??_C@_0BF@KDPPACIK@?$GAlocal?5static?5guard?8@ 00000001801e3678     libvcruntime:undname.obj
 0002:0000a690       ??_C@_08OBABFOLI@?$GAstring?8@ 00000001801e3690     libvcruntime:undname.obj
 0002:0000a6a0       ??_C@_0BD@JDLKDPAB@?$GAvbase?5destructor?8@ 00000001801e36a0     libvcruntime:undname.obj
 0002:0000a6b8       ??_C@_0BN@DEGPLNFK@?$GAvector?5deleting?5destructor?8@ 00000001801e36b8     libvcruntime:undname.obj
 0002:0000a6d8       ??_C@_0BO@OBMKPJIG@?$GAdefault?5constructor?5closure?8@ 00000001801e36d8     libvcruntime:undname.obj
 0002:0000a6f8       ??_C@_0BN@IMDCHIKM@?$GAscalar?5deleting?5destructor?8@ 00000001801e36f8     libvcruntime:undname.obj
 0002:0000a718       ??_C@_0BO@PFGOCPJJ@?$GAvector?5constructor?5iterator?8@ 00000001801e3718     libvcruntime:undname.obj
 0002:0000a738       ??_C@_0BN@LFPFMEDL@?$GAvector?5destructor?5iterator?8@ 00000001801e3738     libvcruntime:undname.obj
 0002:0000a758       ??_C@_0CE@IKBNEHA@?$GAvector?5vbase?5constructor?5itera@ 00000001801e3758     libvcruntime:undname.obj
 0002:0000a780       ??_C@_0BL@NILFHHPC@?$GAvirtual?5displacement?5map?8@ 00000001801e3780     libvcruntime:undname.obj
 0002:0000a7a0       ??_C@_0CB@JONCMFFK@?$GAeh?5vector?5constructor?5iterator@ 00000001801e37a0     libvcruntime:undname.obj
 0002:0000a7c8       ??_C@_0CA@GCEOPDGL@?$GAeh?5vector?5destructor?5iterator?8@ 00000001801e37c8     libvcruntime:undname.obj
 0002:0000a7e8       ??_C@_0CH@OOJPLCPH@?$GAeh?5vector?5vbase?5constructor?5it@ 00000001801e37e8     libvcruntime:undname.obj
 0002:0000a810       ??_C@_0BL@LLKPOHJI@?$GAcopy?5constructor?5closure?8@ 00000001801e3810     libvcruntime:undname.obj
 0002:0000a830       ??_C@_0BA@KBCDOMBN@?$GAudt?5returning?8@ 00000001801e3830     libvcruntime:undname.obj
 0002:0000a840       ??_C@_03KLGMFNMG@?$GAEH@   00000001801e3840     libvcruntime:undname.obj
 0002:0000a844       ??_C@_05KHLCHHI@?$GARTTI@  00000001801e3844     libvcruntime:undname.obj
 0002:0000a850       ??_C@_0BA@KKLDJDLB@?$GAlocal?5vftable?8@ 00000001801e3850     libvcruntime:undname.obj
 0002:0000a860       ??_C@_0CE@IIHCMGGL@?$GAlocal?5vftable?5constructor?5clos@ 00000001801e3860     libvcruntime:undname.obj
 0002:0000a884       ??_C@_06FHBGPFGH@?5new?$FL?$FN@ 00000001801e3884     libvcruntime:undname.obj
 0002:0000a890       ??_C@_09LBNFPBCA@?5delete?$FL?$FN@ 00000001801e3890     libvcruntime:undname.obj
 0002:0000a8a0       ??_C@_0P@HJKNJFNN@?$GAomni?5callsig?8@ 00000001801e38a0     libvcruntime:undname.obj
 0002:0000a8b0       ??_C@_0BL@CNOONJFP@?$GAplacement?5delete?5closure?8@ 00000001801e38b0     libvcruntime:undname.obj
 0002:0000a8d0       ??_C@_0BN@CKNJLHMB@?$GAplacement?5delete?$FL?$FN?5closure?8@ 00000001801e38d0     libvcruntime:undname.obj
 0002:0000a8f0       ??_C@_0CG@CFDHKGGD@?$GAmanaged?5vector?5constructor?5ite@ 00000001801e38f0     libvcruntime:undname.obj
 0002:0000a918       ??_C@_0CF@IMGKMJNO@?$GAmanaged?5vector?5destructor?5iter@ 00000001801e3918     libvcruntime:undname.obj
 0002:0000a940       ??_C@_0CG@HLDDJMAG@?$GAeh?5vector?5copy?5constructor?5ite@ 00000001801e3940     libvcruntime:undname.obj
 0002:0000a968       ??_C@_0CM@FCBBDIGB@?$GAeh?5vector?5vbase?5copy?5construct@ 00000001801e3968     libvcruntime:undname.obj
 0002:0000a998       ??_C@_0BL@CLIPGLGB@?$GAdynamic?5initializer?5for?5?8@ 00000001801e3998     libvcruntime:undname.obj
 0002:0000a9b8       ??_C@_0CB@PDBIFEP@?$GAdynamic?5atexit?5destructor?5for?5@ 00000001801e39b8     libvcruntime:undname.obj
 0002:0000a9e0       ??_C@_0CD@CGAJBKEJ@?$GAvector?5copy?5constructor?5iterat@ 00000001801e39e0     libvcruntime:undname.obj
 0002:0000aa08       ??_C@_0CJ@GJELGAMM@?$GAvector?5vbase?5copy?5constructor?5@ 00000001801e3a08     libvcruntime:undname.obj
 0002:0000aa38       ??_C@_0CL@FGIJHLCE@?$GAmanaged?5vector?5copy?5constructo@ 00000001801e3a38     libvcruntime:undname.obj
 0002:0000aa68       ??_C@_0BM@PMGGMLDN@?$GAlocal?5static?5thread?5guard?8@ 00000001801e3a68     libvcruntime:undname.obj
 0002:0000aa88       ??_C@_0N@BDNMDMOL@operator?5?$CC?$CC?5@ 00000001801e3a88     libvcruntime:undname.obj
 0002:0000aa98       ??_C@_0BC@GGEBGALA@operator?5co_await@ 00000001801e3a98     libvcruntime:undname.obj
 0002:0000aab0       ??_C@_0M@GAAIMMOH@operator?$DM?$DN?$DO@ 00000001801e3ab0     libvcruntime:undname.obj
 0002:0000aac0       ??_C@_0BC@DAFEJGAK@?5Type?5Descriptor?8@ 00000001801e3ac0     libvcruntime:undname.obj
 0002:0000aad8       ??_C@_0BM@LDKODKLH@?5Base?5Class?5Descriptor?5at?5?$CI@ 00000001801e3ad8     libvcruntime:undname.obj
 0002:0000aaf8       ??_C@_0BD@LGICGFMM@?5Base?5Class?5Array?8@ 00000001801e3af8     libvcruntime:undname.obj
 0002:0000ab10       ??_C@_0BN@MECKDCOJ@?5Class?5Hierarchy?5Descriptor?8@ 00000001801e3b10     libvcruntime:undname.obj
 0002:0000ab30       ??_C@_0BK@CFCOFLF@?5Complete?5Object?5Locator?8@ 00000001801e3b30     libvcruntime:undname.obj
 0002:0000ab50       ??_C@_0BG@JNJLAMPM@?$GAanonymous?5namespace?8@ 00000001801e3b50     libvcruntime:undname.obj
 0002:0000ab68       ??_C@_04HEJADOOB@CV?3?5@   00000001801e3b68     libvcruntime:undname.obj
 0002:0000ab70       ??_C@_02MOLJINC@?3?3@      00000001801e3b70     libvcruntime:undname.obj
 0002:0000ab78       ??_C@_0BE@JAEOCHPE@template?9parameter?9@ 00000001801e3b78     libvcruntime:undname.obj
 0002:0000ab90       ??_C@_0BF@LNLGBBNL@?$GAtemplate?9parameter?9@ 00000001801e3b90     libvcruntime:undname.obj
 0002:0000aba8       ??_C@_0O@KHGCOMHP@generic?9type?9@ 00000001801e3ba8     libvcruntime:undname.obj
 0002:0000abb8       ??_C@_0P@ODDENDLM@?$GAgeneric?9type?9@ 00000001801e3bb8     libvcruntime:undname.obj
 0002:0000abc8       ??_C@_02OHHJMEON@?8?8@     00000001801e3bc8     libvcruntime:undname.obj
 0002:0000abd0       ??_C@_0BN@IBLMMFAP@?$GAnon?9type?9template?9parameter@ 00000001801e3bd0     libvcruntime:undname.obj
 0002:0000abf0       ??_C@_03DLDNIBIK@?$CFlf@   00000001801e3bf0     libvcruntime:undname.obj
 0002:0000abf4       ??_C@_04OFALKAJ@?$DP?$DP_C@ 00000001801e3bf4     libvcruntime:undname.obj
 0002:0000abfc       ??_C@_03KHICJKCI@?4?4?4@   00000001801e3bfc     libvcruntime:undname.obj
 0002:0000ac00       ??_C@_04HIBGFPH@NULL@      00000001801e3c00     libvcruntime:undname.obj
 0002:0000ac08       ??_C@_02DPKJAMEF@?$CFd@    00000001801e3c08     libvcruntime:undname.obj
 0002:0000ac10       ??_C@_0BK@IHCCFNEL@?$GAtemplate?9type?9parameter?9@ 00000001801e3c10     libvcruntime:undname.obj
 0002:0000ac30       ??_C@_0BK@OFCNNNKO@?$GAgeneric?9class?9parameter?9@ 00000001801e3c30     libvcruntime:undname.obj
 0002:0000ac50       ??_C@_0BL@NGJBLFIL@?$GAgeneric?9method?9parameter?9@ 00000001801e3c50     libvcruntime:undname.obj
 0002:0000ac70       ??_C@_07OHNGEDJK@nullptr@  00000001801e3c70     libvcruntime:undname.obj
 0002:0000ac78       ??_C@_06COJIGPIB@lambda@   00000001801e3c78     libvcruntime:undname.obj
 0002:0000ac80       ??_C@_0BE@EODMJLIF@?$GAtemplate?9parameter@ 00000001801e3c80     libvcruntime:undname.obj
 0002:0000ac94       ??_C@_03OPGICMGF@?$HN?8?5@ 00000001801e3c94     libvcruntime:undname.obj
 0002:0000ac98       ??_C@_02IGFCGPIL@?$HN?8@   00000001801e3c98     libvcruntime:undname.obj
 0002:0000aca0       ??_C@_0N@CBHHHENL@?$GAvtordispex?$HL@ 00000001801e3ca0     libvcruntime:undname.obj
 0002:0000acb0       ??_C@_0L@GHPFDFH@?$GAvtordisp?$HL@ 00000001801e3cb0     libvcruntime:undname.obj
 0002:0000acc0       ??_C@_0L@HNGCOGAE@?$GAadjustor?$HL@ 00000001801e3cc0     libvcruntime:undname.obj
 0002:0000acd0       ??_C@_0CB@KJDOOODE@?$GAlocal?5static?5destructor?5helper@ 00000001801e3cd0     libvcruntime:undname.obj
 0002:0000acf8       ??_C@_0DB@ILEFOCIJ@?$GAtemplate?5static?5data?5member?5co@ 00000001801e3cf8     libvcruntime:undname.obj
 0002:0000ad30       ??_C@_0DA@HGFJFBBE@?$GAtemplate?5static?5data?5member?5de@ 00000001801e3d30     libvcruntime:undname.obj
 0002:0000ad60       ??_C@_07PGOEDBHP@static?5@ 00000001801e3d60     libvcruntime:undname.obj
 0002:0000ad68       ??_C@_08NIEOINHE@virtual?5@ 00000001801e3d68     libvcruntime:undname.obj
 0002:0000ad78       ??_C@_09LAPHOOG@private?3?5@ 00000001801e3d78     libvcruntime:undname.obj
 0002:0000ad88       ??_C@_0M@GAIFPFIP@protected?3?5@ 00000001801e3d88     libvcruntime:undname.obj
 0002:0000ad98       ??_C@_08GPDDCMKI@public?3?5@ 00000001801e3d98     libvcruntime:undname.obj
 0002:0000ada8       ??_C@_08KJLFOPNE@?$FLthunk?$FN?3@ 00000001801e3da8     libvcruntime:undname.obj
 0002:0000adb8       ??_C@_0M@DHNBOJMP@extern?5?$CCC?$CC?5@ 00000001801e3db8     libvcruntime:undname.obj
 0002:0000adc4       ??_C@_02KCKGHPCA@?$CJ?5@   00000001801e3dc4     libvcruntime:undname.obj
 0002:0000adc8       ??_C@_05CIHEBHNO@char?5@   00000001801e3dc8     libvcruntime:undname.obj
 0002:0000add0       ??_C@_06EHJMALKF@short?5@  00000001801e3dd0     libvcruntime:undname.obj
 0002:0000add8       ??_C@_04LAHKHJMA@int?5@    00000001801e3dd8     libvcruntime:undname.obj
 0002:0000ade0       ??_C@_05CJIMAING@long?5@   00000001801e3de0     libvcruntime:undname.obj
 0002:0000ade8       ??_C@_09EBBEKKIH@unsigned?5@ 00000001801e3de8     libvcruntime:undname.obj
 0002:0000adf4       ??_C@_05BEFAKPML@void?5@   00000001801e3df4     libvcruntime:undname.obj
 0002:0000ae00       ??_C@_09GAIEOBLP@volatile?5@ 00000001801e3e00     libvcruntime:undname.obj
 0002:0000ae10       ??_C@_08PABEKFH@volatile@  00000001801e3e10     libvcruntime:undname.obj
 0002:0000ae20       ??_C@_0BA@LKIJLKPP@std?3?3nullptr_t?5@ 00000001801e3e20     libvcruntime:undname.obj
 0002:0000ae30       ??_C@_0P@GCOCNKDM@std?3?3nullptr_t@ 00000001801e3e30     libvcruntime:undname.obj
 0002:0000ae40       ??_C@_0L@EGPHHEKN@?$DMellipsis?$DO@ 00000001801e3e40     libvcruntime:undname.obj
 0002:0000ae4c       ??_C@_04EENFHACM@?0?4?4?4@ 00000001801e3e4c     libvcruntime:undname.obj
 0002:0000ae58       ??_C@_0M@ELJOJFFH@?0?$DMellipsis?$DO@ 00000001801e3e58     libvcruntime:undname.obj
 0002:0000ae68       ??_C@_09DNHFEOJI@?5noexcept@ 00000001801e3e68     libvcruntime:undname.obj
 0002:0000ae74       ??_C@_03PBJBJNON@cpu@      00000001801e3e74     libvcruntime:undname.obj
 0002:0000ae78       ??_C@_03DCBBJBAA@amp@      00000001801e3e78     libvcruntime:undname.obj
 0002:0000ae7c       ??_C@_02KEGNLNML@?0?5@     00000001801e3e7c     libvcruntime:undname.obj
 0002:0000ae80       ??_C@_04ENMBGAPA@char@     00000001801e3e80     libvcruntime:undname.obj
 0002:0000ae88       ??_C@_05BFKKPKCG@short@    00000001801e3e88     libvcruntime:undname.obj
 0002:0000ae90       ??_C@_03JBIPMCLC@int@      00000001801e3e90     libvcruntime:undname.obj
 0002:0000ae94       ??_C@_04GOKPGOLB@long@     00000001801e3e94     libvcruntime:undname.obj
 0002:0000ae9c       ??_C@_06BNJCAIGJ@double@   00000001801e3e9c     libvcruntime:undname.obj
 0002:0000aea4       ??_C@_06EBGKOKIG@__int8@   00000001801e3ea4     libvcruntime:undname.obj
 0002:0000aeb0       ??_C@_07ICFHOGAF@__int16@  00000001801e3eb0     libvcruntime:undname.obj
 0002:0000aeb8       ??_C@_07OFLPPHGP@__int32@  00000001801e3eb8     libvcruntime:undname.obj
 0002:0000aec0       ??_C@_07LFCOJCAC@__int64@  00000001801e3ec0     libvcruntime:undname.obj
 0002:0000aec8       ??_C@_08GAHOLHEO@__int128@ 00000001801e3ec8     libvcruntime:undname.obj
 0002:0000aed8       ??_C@_09EEKGDCPH@?$DMunknown?$DO@ 00000001801e3ed8     libvcruntime:undname.obj
 0002:0000aee8       ??_C@_07CFHGOPCN@char8_t@  00000001801e3ee8     libvcruntime:undname.obj
 0002:0000aef0       ??_C@_08HBIPOFJB@char16_t@ 00000001801e3ef0     libvcruntime:undname.obj
 0002:0000af00       ??_C@_08IECNCBKG@char32_t@ 00000001801e3f00     libvcruntime:undname.obj
 0002:0000af10       ??_C@_07CLGGIAMF@wchar_t@  00000001801e3f10     libvcruntime:undname.obj
 0002:0000af18       ??_C@_04HAPDLBFF@auto@     00000001801e3f18     libvcruntime:undname.obj
 0002:0000af20       ??_C@_0P@LHCGKIGK@decltype?$CIauto?$CJ@ 00000001801e3f20     libvcruntime:undname.obj
 0002:0000af30       ??_C@_05PCNBGHCF@this?5@   00000001801e3f30     libvcruntime:undname.obj
 0002:0000af38       ??_C@_06GCICPBLB@__w64?5@  00000001801e3f38     libvcruntime:undname.obj
 0002:0000af40       ??_C@_07NFANNNEC@UNKNOWN@  00000001801e3f40     libvcruntime:undname.obj
 0002:0000af48       ??_C@_07EDHNAJHC@signed?5@ 00000001801e3f48     libvcruntime:undname.obj
 0002:0000af50       ??_C@_05BNCCCJPP@const@    00000001801e3f50     libvcruntime:undname.obj
 0002:0000af58       ??_C@_09EFNPDFFP@?5volatile@ 00000001801e3f58     libvcruntime:undname.obj
 0002:0000af68       ??_C@_0P@GCIFDJCJ@?$GAunknown?5ecsu?8@ 00000001801e3f68     libvcruntime:undname.obj
 0002:0000af78       ??_C@_06MOJHIBMG@union?5@  00000001801e3f78     libvcruntime:undname.obj
 0002:0000af80       ??_C@_07DIBCDNGL@struct?5@ 00000001801e3f80     libvcruntime:undname.obj
 0002:0000af88       ??_C@_06LJBABKPM@class?5@  00000001801e3f88     libvcruntime:undname.obj
 0002:0000af90       ??_C@_08KOFANOFK@coclass?5@ 00000001801e3f90     libvcruntime:undname.obj
 0002:0000afa0       ??_C@_0N@DLIEFKNA@cointerface?5@ 00000001801e3fa0     libvcruntime:undname.obj
 0002:0000afb0       ??_C@_05LJGMCFOG@enum?5@   00000001801e3fb0     libvcruntime:undname.obj
 0002:0000afb8       ??_C@_06LIJLOJAG@const?5@  00000001801e3fb8     libvcruntime:undname.obj
 0002:0000afc0       ??_C@_02KJPKDIBN@?$CG?5@   00000001801e3fc0     libvcruntime:undname.obj
 0002:0000afc4       ??_C@_03PCKGMOPB@?$CG?$CG?5@ 00000001801e3fc4     libvcruntime:undname.obj
 0002:0000afc8       ??_C@_0M@EALIELKG@cli?3?3array?$DM@ 00000001801e3fc8     libvcruntime:undname.obj
 0002:0000afd8       ??_C@_0O@GKABPPIF@cli?3?3pin_ptr?$DM@ 00000001801e3fd8     libvcruntime:undname.obj
 0002:0000afe8       ??_C@_02GOGNNPBN@?$CJ?$FL@ 00000001801e3fe8     libvcruntime:undname.obj
 0002:0000afec       ??_C@_06EEGAIFAK@?$HLflat?$HN@ 00000001801e3fec     libvcruntime:undname.obj
 0002:0000aff4       ??_C@_05JIBOFOHK@?$HLfor?5@ 00000001801e3ff4     libvcruntime:undname.obj
 0002:0000affc       ??_C@_02MDINNEEG@s?5@      00000001801e3ffc     libvcruntime:undname.obj
 0002:0000b008       ??_7charNode@@6B@          00000001801e4008     libvcruntime:undname.obj
 0002:0000b030       ??_7pcharNode@@6B@         00000001801e4030     libvcruntime:undname.obj
 0002:0000b058       ??_7pDNameNode@@6B@        00000001801e4058     libvcruntime:undname.obj
 0002:0000b080       ??_7DNameStatusNode@@6B@   00000001801e4080     libvcruntime:undname.obj
 0002:0000b0a8       ??_7pairNode@@6B@          00000001801e40a8     libvcruntime:undname.obj
 0002:0000b1d0       ??_C@_04OKOHEJBO@?5?$DP?$DP?5@ 00000001801e41d0     libvcruntime:undname.obj
 0002:0000b1e0       ?nodes@?1??make@DNameStatusNode@@SAPEBV2@W4DNameStatus@@@Z@4QBV2@B 00000001801e41e0     libvcruntime:undname.obj
 0002:0000b220       ?s_negLengthTab@FH4@@3QBCB 00000001801e4220     libvcruntime:risctrnsctrl.obj
 0002:0000b230       ?s_shiftTab@FH4@@3QBEB     00000001801e4230     libvcruntime:risctrnsctrl.obj
 0002:0000b390       ??_C@_1DM@KHCHBNEB@?$AAa?$AAp?$AAi?$AA?9?$AAm?$AAs?$AA?9?$AAw?$AAi?$AAn?$AA?9?$AAc?$AAo?$AAr?$AAe@ 00000001801e4390     libvcruntime:winapi_downlevel.obj
 0002:0000b3d0       ??_C@_1DK@LPPGFMPP@?$AAa?$AAp?$AAi?$AA?9?$AAm?$AAs?$AA?9?$AAw?$AAi?$AAn?$AA?9?$AAc?$AAo?$AAr?$AAe@ 00000001801e43d0     libvcruntime:winapi_downlevel.obj
 0002:0000b410       ??_C@_1BC@GDMECMAK@?$AAk?$AAe?$AAr?$AAn?$AAe?$AAl?$AA3?$AA2@ 00000001801e4410     libvcruntime:winapi_downlevel.obj
 0002:0000b428       ??_C@_1BA@PFFKHIOG@?$AAa?$AAp?$AAi?$AA?9?$AAm?$AAs?$AA?9@ 00000001801e4428     libvcruntime:winapi_downlevel.obj
 0002:0000b440       ??_C@_08KNHFBNJ@FlsAlloc@  00000001801e4440     libvcruntime:winapi_downlevel.obj
 0002:0000b458       ??_C@_07PEJMOBNF@FlsFree@  00000001801e4458     libvcruntime:winapi_downlevel.obj
 0002:0000b468       ??_C@_0M@GDNOONDI@FlsGetValue@ 00000001801e4468     libvcruntime:winapi_downlevel.obj
 0002:0000b480       ??_C@_0M@JCPCPOEF@FlsSetValue@ 00000001801e4480     libvcruntime:winapi_downlevel.obj
 0002:0000b498       ??_C@_0BM@HCFOFFN@InitializeCriticalSectionEx@ 00000001801e4498     libvcruntime:winapi_downlevel.obj
 0002:0000b4c0       ??_7exception@std@@6B@     00000001801e44c0     libvcruntime:frame.obj
 0002:0000b4d0       ??_C@_0BC@EOODALEL@Unknown?5exception@ 00000001801e44d0     libvcruntime:frame.obj
 0002:0000b4f0       ??_7bad_exception@std@@6B@ 00000001801e44f0     libvcruntime:frame.obj
 0002:0000b500       ??_C@_0O@DPKOEFFH@bad?5exception@ 00000001801e4500     libvcruntime:frame.obj
 0002:0000b850       ?standard_lookup_table_spectre@__crt_stdio_output@@3V?$spectre_mitigated_lookup_table@Ustate_transition_pair@__crt_stdio_output@@$0IA@@1@B 00000001801e4850     libucrt:output.obj
 0002:0000b950       ?format_validation_lookup_table_spectre@__crt_stdio_output@@3V?$spectre_mitigated_lookup_table@Ustate_transition_pair@__crt_stdio_output@@$0IA@@1@B 00000001801e4950     libucrt:output.obj
 0002:0000ba50       ??_C@_1O@CEDCILHN@?$AA?$CI?$AAn?$AAu?$AAl?$AAl?$AA?$CJ@ 00000001801e4a50     libucrt:output.obj
 0002:0000ba60       ??_C@_06OJHGLDPL@?$CInull?$CJ@ 00000001801e4a60     libucrt:output.obj
 0002:0000caf8       __real@3f1a36e2eb1c432d    00000001801e5af8     libucrt:atan2f.obj
 0002:0000cb00       __real@3fb0000000000000    00000001801e5b00     libucrt:atan2f.obj
 0002:0000cb08       __real@3fc2492482bd6be1    00000001801e5b08     libucrt:atan2f.obj
 0002:0000cb10       __real@3fc99999999643a3    00000001801e5b10     libucrt:atan2f.obj
 0002:0000cb18       __real@3fd5555555550877    00000001801e5b18     libucrt:atan2f.obj
 0002:0000cb20       __real@3fd5555555555538    00000001801e5b20     libucrt:atan2f.obj
 0002:0000cb28       __real@3ff921fb54442d18    00000001801e5b28     libucrt:atan2f.obj
 0002:0000cb30       __real@400921fb54442d18    00000001801e5b30     libucrt:atan2f.obj
 0002:0000cb38       __real@40490fdb            00000001801e5b38     libucrt:atan2f.obj
 0002:0000cb40       __real@4070000000000000    00000001801e5b40     libucrt:atan2f.obj
 0002:0000cb48       __real@bf490fdb            00000001801e5b48     libucrt:atan2f.obj
 0002:0000cb4c       __real@bfc90fdb            00000001801e5b4c     libucrt:atan2f.obj
